# Exports
# Format: func-addr:func-name
#============================================================

0x10016bfd:??0?$ProductorTemplate@VFAAlarm@GameClient@@@GameClient@@QAE@ABV01@@Z
0x1000c987:??0?$ProductorTemplate@VFAAlarm@GameClient@@@GameClient@@QAE@XZ
0x10012da0:??0?$ProductorTemplate@VFAArmor@GameClient@@@GameClient@@QAE@ABV01@@Z
0x100017c6:??0?$ProductorTemplate@VFAArmor@GameClient@@@GameClient@@QAE@XZ
0x10009403:??0?$ProductorTemplate@VFACapability@GameClient@@@GameClient@@QAE@ABV01@@Z
0x1000d864:??0?$ProductorTemplate@VFACapability@GameClient@@@GameClient@@QAE@XZ
0x1000a344:??0?$ProductorTemplate@VFADamage@GameClient@@@GameClient@@QAE@ABV01@@Z
0x10001df7:??0?$ProductorTemplate@VFADamage@GameClient@@@GameClient@@QAE@XZ
0x100020cc:??0?$ProductorTemplate@VFAEnergy@GameClient@@@GameClient@@QAE@ABV01@@Z
0x1000b7f8:??0?$ProductorTemplate@VFAEnergy@GameClient@@@GameClient@@QAE@XZ
0x1000d2d3:??0?$ProductorTemplate@VFAMovement@GameClient@@@GameClient@@QAE@ABV01@@Z
0x1000e624:??0?$ProductorTemplate@VFAMovement@GameClient@@@GameClient@@QAE@XZ
0x10012d8c:??0?$ProductorTemplate@VFARepair@GameClient@@@GameClient@@QAE@ABV01@@Z
0x10012bfc:??0?$ProductorTemplate@VFARepair@GameClient@@@GameClient@@QAE@XZ
0x100146e1:??0?$ProductorTemplate@VFARetrieval@GameClient@@@GameClient@@QAE@ABV01@@Z
0x10004e62:??0?$ProductorTemplate@VFARetrieval@GameClient@@@GameClient@@QAE@XZ
0x1000ee49:??0?$ProductorTemplate@VFASatelliteCapability@GameClient@@@GameClient@@QAE@ABV01@@Z
0x10009377:??0?$ProductorTemplate@VFASatelliteCapability@GameClient@@@GameClient@@QAE@XZ
0x1000f0d3:??0?$ProductorTemplate@VFASearch@GameClient@@@GameClient@@QAE@ABV01@@Z
0x1001a389:??0?$ProductorTemplate@VFASearch@GameClient@@@GameClient@@QAE@XZ
0x1001a6f4:??0?$ProductorTemplate@VFASummon@GameClient@@@GameClient@@QAE@ABV01@@Z
0x1000a5a6:??0?$ProductorTemplate@VFASummon@GameClient@@@GameClient@@QAE@XZ
0x100177d8:??0?$ProductorTemplate@VFAircraftVehicle@GameClient@@@GameClient@@QAE@ABV01@@Z
0x10017b5c:??0?$ProductorTemplate@VFAircraftVehicle@GameClient@@@GameClient@@QAE@XZ
0x10005f1a:??0?$ProductorTemplate@VFAura@GameClient@@@GameClient@@QAE@ABV01@@Z
0x10017210:??0?$ProductorTemplate@VFAura@GameClient@@@GameClient@@QAE@XZ
0x100071b7:??0?$ProductorTemplate@VFBooty@GameClient@@@GameClient@@QAE@ABV01@@Z
0x10014d9e:??0?$ProductorTemplate@VFBooty@GameClient@@@GameClient@@QAE@XZ
0x100146aa:??0?$ProductorTemplate@VFBullet@GameClient@@@GameClient@@QAE@ABV01@@Z
0x10012adf:??0?$ProductorTemplate@VFBullet@GameClient@@@GameClient@@QAE@XZ
0x10007289:??0?$ProductorTemplate@VFDamageEquip@GameClient@@@GameClient@@QAE@ABV01@@Z
0x1000c0b3:??0?$ProductorTemplate@VFDamageEquip@GameClient@@@GameClient@@QAE@XZ
0x1000e44e:??0?$ProductorTemplate@VFEstabDoor@GameClient@@@GameClient@@QAE@ABV01@@Z
0x1000fdd5:??0?$ProductorTemplate@VFEstabDoor@GameClient@@@GameClient@@QAE@XZ
0x100120ee:??0?$ProductorTemplate@VFFunc_Power@GameClient@@@GameClient@@QAE@ABV01@@Z
0x10018b65:??0?$ProductorTemplate@VFFunc_Power@GameClient@@@GameClient@@QAE@XZ
0x10006a41:??0?$ProductorTemplate@VFFunc_Power_Input@GameClient@@@GameClient@@QAE@ABV01@@Z
0x10004a61:??0?$ProductorTemplate@VFFunc_Power_Input@GameClient@@@GameClient@@QAE@XZ
0x100134c1:??0?$ProductorTemplate@VFFunc_RobotReceive@GameClient@@@GameClient@@QAE@ABV01@@Z
0x10018cb4:??0?$ProductorTemplate@VFFunc_RobotReceive@GameClient@@@GameClient@@QAE@XZ
0x1000d3d7:??0?$ProductorTemplate@VFFunc_Sheild@GameClient@@@GameClient@@QAE@ABV01@@Z
0x10005e52:??0?$ProductorTemplate@VFFunc_Sheild@GameClient@@@GameClient@@QAE@XZ
0x10003bc5:??0?$ProductorTemplate@VFFunc_VehicleReceive@GameClient@@@GameClient@@QAE@ABV01@@Z
0x1000ed72:??0?$ProductorTemplate@VFFunc_VehicleReceive@GameClient@@@GameClient@@QAE@XZ
0x1000b316:??0?$ProductorTemplate@VFItem@GameClient@@@GameClient@@QAE@ABV01@@Z
0x100127b5:??0?$ProductorTemplate@VFItem@GameClient@@@GameClient@@QAE@XZ
0x10010ef6:??0?$ProductorTemplate@VFNonControlledEstab@GameClient@@@GameClient@@QAE@ABV01@@Z
0x1000713a:??0?$ProductorTemplate@VFNonControlledEstab@GameClient@@@GameClient@@QAE@XZ
0x10015285:??0?$ProductorTemplate@VFOccupyIcon@@@GameClient@@QAE@ABV01@@Z
0x10015d3e:??0?$ProductorTemplate@VFOccupyIcon@@@GameClient@@QAE@XZ
0x10002815:??0?$ProductorTemplate@VFPedrailVehicle@GameClient@@@GameClient@@QAE@ABV01@@Z
0x10006c76:??0?$ProductorTemplate@VFPedrailVehicle@GameClient@@@GameClient@@QAE@XZ
0x1001a672:??0?$ProductorTemplate@VFPedrailVehicleWheel@GameClient@@@GameClient@@QAE@ABV01@@Z
0x1000a254:??0?$ProductorTemplate@VFPedrailVehicleWheel@GameClient@@@GameClient@@QAE@XZ
0x1000b447:??0?$ProductorTemplate@VFProductInfo@GameClient@@@GameClient@@QAE@ABV01@@Z
0x10002f3b:??0?$ProductorTemplate@VFProductInfo@GameClient@@@GameClient@@QAE@XZ
0x100107ee:??0?$ProductorTemplate@VFRobot@GameClient@@@GameClient@@QAE@ABV01@@Z
0x10018a34:??0?$ProductorTemplate@VFRobot@GameClient@@@GameClient@@QAE@XZ
0x1001599c:??0?$ProductorTemplate@VFRobotArmor@GameClient@@@GameClient@@QAE@ABV01@@Z
0x1000dd5a:??0?$ProductorTemplate@VFRobotArmor@GameClient@@@GameClient@@QAE@XZ
0x100114e6:??0?$ProductorTemplate@VFRobotBody@GameClient@@@GameClient@@QAE@ABV01@@Z
0x1000f871:??0?$ProductorTemplate@VFRobotBody@GameClient@@@GameClient@@QAE@XZ
0x1000ce14:??0?$ProductorTemplate@VFRobotCore@GameClient@@@GameClient@@QAE@ABV01@@Z
0x1000e2e1:??0?$ProductorTemplate@VFRobotCore@GameClient@@@GameClient@@QAE@XZ
0x10016013:??0?$ProductorTemplate@VFRobotFramework@GameClient@@@GameClient@@QAE@ABV01@@Z
0x10006ee7:??0?$ProductorTemplate@VFRobotFramework@GameClient@@@GameClient@@QAE@XZ
0x10002694:??0?$ProductorTemplate@VFSAlarm@GameClient@@@GameClient@@QAE@ABV01@@Z
0x10001f8c:??0?$ProductorTemplate@VFSAlarm@GameClient@@@GameClient@@QAE@XZ
0x1000285b:??0?$ProductorTemplate@VFSLock@GameClient@@@GameClient@@QAE@ABV01@@Z
0x10019ebb:??0?$ProductorTemplate@VFSLock@GameClient@@@GameClient@@QAE@XZ
0x1000c6a8:??0?$ProductorTemplate@VFSOccupy@GameClient@@@GameClient@@QAE@ABV01@@Z
0x100043ef:??0?$ProductorTemplate@VFSOccupy@GameClient@@@GameClient@@QAE@XZ
0x1001281e:??0?$ProductorTemplate@VFSeat@GameClient@@@GameClient@@QAE@ABV01@@Z
0x100161a3:??0?$ProductorTemplate@VFSeat@GameClient@@@GameClient@@QAE@XZ
0x1000c44b:??0?$ProductorTemplate@VFSkill@GameClient@@@GameClient@@QAE@ABV01@@Z
0x10009c50:??0?$ProductorTemplate@VFSkill@GameClient@@@GameClient@@QAE@XZ
0x10013377:??0?$ProductorTemplate@VFSuspendVehicle@GameClient@@@GameClient@@QAE@ABV01@@Z
0x10004f43:??0?$ProductorTemplate@VFSuspendVehicle@GameClient@@@GameClient@@QAE@XZ
0x1000600f:??0?$ProductorTemplate@VFSuspendVehicleWheel@GameClient@@@GameClient@@QAE@ABV01@@Z
0x1000201d:??0?$ProductorTemplate@VFSuspendVehicleWheel@GameClient@@@GameClient@@QAE@XZ
0x10004412:??0?$ProductorTemplate@VFTransformItem@GameClient@@@GameClient@@QAE@ABV01@@Z
0x10014de9:??0?$ProductorTemplate@VFTransformItem@GameClient@@@GameClient@@QAE@XZ
0x1001411e:??0?$ProductorTemplate@VFWeapon@GameClient@@@GameClient@@QAE@ABV01@@Z
0x10018615:??0?$ProductorTemplate@VFWeapon@GameClient@@@GameClient@@QAE@XZ
0x1000bd4d:??0?$ProductorTemplate@VFWheelVehicle@GameClient@@@GameClient@@QAE@ABV01@@Z
0x10009011:??0?$ProductorTemplate@VFWheelVehicle@GameClient@@@GameClient@@QAE@XZ
0x10018e3f:??0?$ProductorTemplate@VFWheelVehicleWheel@GameClient@@@GameClient@@QAE@ABV01@@Z
0x1000b343:??0?$ProductorTemplate@VFWheelVehicleWheel@GameClient@@@GameClient@@QAE@XZ
0x10006dbb:??0AAlarm@GameClient@@QAE@ABV01@@Z
0x1000c144:??0AAlarm@GameClient@@QAE@K@Z
0x1000d17a:??0AArmor@GameClient@@QAE@ABV01@@Z
0x1001320a:??0AArmor@GameClient@@QAE@K@Z
0x1000575e:??0ACapability@GameClient@@QAE@ABV01@@Z
0x10009d59:??0ACapability@GameClient@@QAE@K@Z
0x100107b7:??0ADamage@GameClient@@QAE@ABV01@@Z
0x1000e8ef:??0ADamage@GameClient@@QAE@K@Z
0x1000ecd7:??0AEnergy@GameClient@@QAE@ABV01@@Z
0x10008ed1:??0AEnergy@GameClient@@QAE@K@Z
0x10010109:??0AEquip@GameClient@@QAE@ABV01@@Z
0x10002d83:??0AEquip@GameClient@@QAE@PAVWorld@@@Z
0x1000b519:??0AMovement@GameClient@@QAE@ABV01@@Z
0x10009fde:??0AMovement@GameClient@@QAE@K@Z
0x10003aee:??0ARepair@GameClient@@QAE@ABV01@@Z
0x100028fb:??0ARepair@GameClient@@QAE@K@Z
0x10005dd5:??0ARetrieval@GameClient@@QAE@ABV01@@Z
0x1001735a:??0ARetrieval@GameClient@@QAE@K@Z
0x1000b433:??0ASatelliteCapability@GameClient@@QAE@ABV01@@Z
0x100087e7:??0ASatelliteCapability@GameClient@@QAE@K@Z
0x1001832c:??0ASearch@GameClient@@QAE@ABV01@@Z
0x100161da:??0ASearch@GameClient@@QAE@K@Z
0x10015d25:??0ASummon@GameClient@@QAE@ABV01@@Z
0x100175cb:??0ASummon@GameClient@@QAE@K@Z
0x10014a88:??0AdapterActor@GameClient@@QAE@ABV01@@Z
0x1000451b:??0AdapterActor@GameClient@@QAE@PAVWorld@@@Z
0x1001195a:??0AdapterActorALReport@GameClient@@QAE@ABV01@@Z
0x100148a8:??0AdapterActorALReport@GameClient@@QAE@PAVAdapterActor@1@@Z
0x10013480:??0AddToGroupObserver@GameClient@@QAE@ABV01@@Z
0x100151e5:??0AddToGroupObserver@GameClient@@QAE@XZ
0x100049fd:??0AircraftVehicle@GameClient@@QAE@ABV01@@Z
0x100050ec:??0AircraftVehicle@GameClient@@QAE@K@Z
0x100056b4:??0AircraftVehicleController@GameClient@@QAE@ABV01@@Z
0x100181c9:??0AircraftVehicleController@GameClient@@QAE@XZ
0x10017f7b:??0AnimationModal@@QAE@ABV0@@Z
0x10017869:??0AnimationModal@@QAE@PAVWorld@@@Z
0x10014cd6:??0Aura@GameClient@@QAE@ABV01@@Z
0x10001154:??0Aura@GameClient@@QAE@K@Z
0x1000ae3e:??0AuraManager@GameClient@@QAE@ABV01@@Z
0x1001353e:??0AuraManager@GameClient@@QAE@XZ
0x100112e8:??0BattleFieldManager@GameClient@@QAE@ABV01@@Z
0x1001394e:??0BattleFieldManager@GameClient@@QAE@XZ
0x100125a8:??0BigMapState@@QAE@ABV0@@Z
0x10006b1d:??0BigMapState@@QAE@XZ
0x10013b83:??0BoardRobotObserver@GameClient@@QAE@ABV01@@Z
0x10006e2e:??0BoardRobotObserver@GameClient@@QAE@XZ
0x100122e7:??0Booty@GameClient@@QAE@ABV01@@Z
0x10002fc2:??0Booty@GameClient@@QAE@K@Z
0x1000c7c0:??0BouncyParticles@@QAE@ABV0@@Z
0x10004647:??0BouncyParticles@@QAE@PAVWorld@@KMHHAAVVector@@11MMMMMMMM_NPAVMaterial@@@Z
0x100029eb:??0BouncyParticles@@QAE@PAVWorld@@KMHHAAVVector@@11MMMMMMMM_NPAVTexture@@W4BlendMode@@@Z
0x100159e2:??0CAlarmMessageUI@@QAE@ABV0@@Z
0x1001623e:??0CAlarmMessageUI@@QAE@XZ
0x10004e4e:??0CAnalyzeSystem@GameClient@@QAE@ABV01@@Z
0x1000c6f3:??0CAnalyzeSystem@GameClient@@QAE@XZ
0x10008977:??0CBattleFieldDetailUI@@QAE@ABV0@@Z
0x10018863:??0CBattleFieldDetailUI@@QAE@XZ
0x100089a4:??0CChatInputUI@@QAE@ABV0@@Z
0x1001868d:??0CChatInputUI@@QAE@XZ
0x10003544:??0CChatMessageUI@@QAE@ABV0@@Z
0x1000931d:??0CChatMessageUI@@QAE@XZ
0x1000a8a3:??0CControlCenterListUI@@QAE@ABV0@@Z
0x1000c7d9:??0CControlCenterListUI@@QAE@XZ
0x10017f6c:??0CDropBagUI@@QAE@ABV0@@Z
0x1000f4d9:??0CDropBagUI@@QAE@XZ
0x10007892:??0CEstablishmentUI@@QAE@ABV0@@Z
0x10016ea5:??0CEstablishmentUI@@QAE@XZ
0x1000277f:??0CGroupMemberUI@@QAE@ABV0@@Z
0x10018e76:??0CGroupMemberUI@@QAE@XZ
0x10011982:??0CGroupQuickCallUI@@QAE@ABV0@@Z
0x1001a316:??0CGroupQuickCallUI@@QAE@XZ
0x1001580c:??0CHallMapUI@@QAE@ABV0@@Z
0x10009caa:??0CHallMapUI@@QAE@XZ
0x100086d9:??0CKillingInfoUI@@QAE@ABV0@@Z
0x1000369d:??0CKillingInfoUI@@QAE@XZ
0x100076df:??0CLoginUI@@QAE@ABV0@@Z
0x1000b8a2:??0CLoginUI@@QAE@XZ
0x1000f5b5:??0CMiniWorldMapUI@@QAE@ABV0@@Z
0x1000b992:??0CMiniWorldMapUI@@QAE@XZ
0x10009638:??0COccupyEstabUI@@QAE@ABV0@@Z
0x10017b4d:??0COccupyEstabUI@@QAE@XZ
0x10011e50:??0CPasswordInputUI@@QAE@ABV0@@Z
0x1000d611:??0CPasswordInputUI@@QAE@XZ
0x10012f30:??0CPowerTransportUI@@QAE@ABV0@@Z
0x1000b74e:??0CPowerTransportUI@@QAE@XZ
0x10005c13:??0CRadarMapUI@@QAE@ABV0@@Z
0x100090cf:??0CRadarMapUI@@QAE@XZ
0x10015979:??0CRobotRoofUI@@QAE@ABV0@@Z
0x10016ba8:??0CRobotRoofUI@@QAE@XZ
0x1000740f:??0CStatusUI@@QAE@ABV0@@Z
0x10010f41:??0CStatusUI@@QAE@XZ
0x1001534d:??0CVehicleRoofUI@@QAE@ABV0@@Z
0x10004110:??0CVehicleRoofUI@@QAE@XZ
0x10001613:??0CWaitQueueUI@@QAE@ABV0@@Z
0x1001204e:??0CWaitQueueUI@@QAE@XZ
0x1001a81b:??0CameraHandler@@QAE@ABV0@@Z
0x10006f14:??0CameraHandler@@QAE@XZ
0x1000874c:??0ChangeLeaderObserver@GameClient@@QAE@ABV01@@Z
0x10009ee4:??0ChangeLeaderObserver@GameClient@@QAE@XZ
0x10008657:??0ChangeSeatObserver@GameClient@@QAE@ABV01@@Z
0x1000c4a5:??0ChangeSeatObserver@GameClient@@QAE@XZ
0x1000fbc8:??0CharacterExploitUpdateObserver@@QAE@ABV0@@Z
0x1001052d:??0CharacterExploitUpdateObserver@@QAE@XZ
0x10002aef:??0ChatManager@GameClient@@QAE@ABV01@@Z
0x1000eab1:??0ChatManager@GameClient@@QAE@XZ
0x10001393:??0CombinActor@GameClient@@QAE@ABV01@@Z
0x1000da80:??0CombinActor@GameClient@@QAE@PAVWorld@@@Z
0x10004b5b:??0CombinPart@GameClient@@QAE@ABU01@@Z
0x1001a0f0:??0CombinPart@GameClient@@QAE@XZ
0x10010186:??0CombinRobot@GameClient@@QAE@ABV01@@Z
0x1000d224:??0CombinRobot@GameClient@@QAE@PAVWorld@@@Z
0x100106fe:??0ControlledEstab@GameClient@@QAE@ABV01@@Z
0x100060e6:??0ControlledEstab@GameClient@@QAE@K@Z
0x10018449:??0CorpCmdUpdatedObserver@@QAE@ABV0@@Z
0x1000198d:??0CorpCmdUpdatedObserver@@QAE@XZ
0x10013494:??0CtlEsabHeartMoveP2PObserver@GameClient@@QAE@ABV01@@Z
0x10012215:??0CtlEsabHeartMoveP2PObserver@GameClient@@QAE@XZ
0x1000d3f5:??0CtlEsabHeartPosObserver@GameClient@@QAE@ABV01@@Z
0x10004d4a:??0CtlEsabHeartPosObserver@GameClient@@QAE@XZ
0x1000ee58:??0CtlEsabHeartRotObserver@GameClient@@QAE@ABV01@@Z
0x10005b69:??0CtlEsabHeartRotObserver@GameClient@@QAE@XZ
0x10007b3f:??0CtlEsabStageChangeObserver@GameClient@@QAE@ABV01@@Z
0x10019a6a:??0CtlEsabStageChangeObserver@GameClient@@QAE@XZ
0x100138d1:??0CtlEsabTransformObserver@GameClient@@QAE@ABV01@@Z
0x1000d067:??0CtlEsabTransformObserver@GameClient@@QAE@XZ
0x10001e47:??0DamageEquip@GameClient@@QAE@ABV01@@Z
0x10012616:??0DamageEquip@GameClient@@QAE@K@Z
0x10002676:??0DamageManager@GameClient@@QAE@ABV01@@Z
0x100177e2:??0DamageManager@GameClient@@QAE@XZ
0x1001786e:??0DamageUnit@GameClient@@QAE@ABV01@@Z
0x1000d3e6:??0DamageUnit@GameClient@@QAE@XZ
0x1000f006:??0DataObject@GameClient@@QAE@ABV01@@Z
0x100081ed:??0DataObject@GameClient@@QAE@XZ
0x10004ad4:??0DismissGroupObserver@GameClient@@QAE@ABV01@@Z
0x10011c98:??0DismissGroupObserver@GameClient@@QAE@XZ
0x10010212:??0DynamicLasers@@QAE@ABV0@@Z
0x10017e95:??0DynamicLasers@@QAE@PAVWorld@@IKAAVVector@@MMMMPAVTexture@@W4BlendMode@@@Z
0x10018444:??0DynamicLasers@@QAE@PAVWorld@@IKAAVVector@@MMPAVMaterial@@@Z
0x1000727a:??0Effect_Base@@QAE@ABV0@@Z
0x1001aa87:??0Effect_Base@@QAE@PAVWorld@@@Z
0x10015fff:??0Effect_DynamicLasers@@QAE@ABV0@@Z
0x10006cad:??0Effect_DynamicLasers@@QAE@PAVWorld@@@Z
0x100190f6:??0Effect_Laser@@QAE@ABV0@@Z
0x10010a5a:??0Effect_Laser@@QAE@PAVWorld@@@Z
0x1000848b:??0Effect_LaserParticle@@QAE@ABV0@@Z
0x10003de6:??0Effect_LaserParticle@@QAE@PAVWorld@@@Z
0x10016de7:??0Effect_Light@@QAE@ABV0@@Z
0x1000efd4:??0Effect_Light@@QAE@PAVWorld@@@Z
0x1000e390:??0Effect_LightBeam@@QAE@ABV0@@Z
0x100076ad:??0Effect_LightBeam@@QAE@PAVWorld@@@Z
0x10018c9b:??0Effect_LightDizzy@@QAE@ABV0@@Z
0x10009c2d:??0Effect_LightDizzy@@QAE@PAVWorld@@@Z
0x10007c3e:??0Effect_MultiTexParticles@@QAE@ABV0@@Z
0x1001a47e:??0Effect_MultiTexParticles@@QAE@PAVWorld@@@Z
0x100060dc:??0Effect_MultiTexParticlesEx@@QAE@ABV0@@Z
0x1000227a:??0Effect_MultiTexParticlesEx@@QAE@PAVWorld@@@Z
0x1000e403:??0Effect_ParticleSystem@@QAE@ABV0@@Z
0x10005187:??0Effect_ParticleSystem@@QAE@PAVWorld@@@Z
0x10017878:??0Effect_ParticleSystemEx@@QAE@ABV0@@Z
0x1000f7f9:??0Effect_ParticleSystemEx@@QAE@PAVWorld@@@Z
0x10009093:??0Effect_Precipitation@@QAE@ABV0@@Z
0x10013e12:??0Effect_Precipitation@@QAE@PAVWorld@@@Z
0x10012391:??0Effect_ShadedParticles@@QAE@ABV0@@Z
0x10012ac6:??0Effect_ShadedParticles@@QAE@PAVWorld@@@Z
0x1000e2a0:??0Effect_TraceLineSystem@@QAE@ABV0@@Z
0x10003634:??0Effect_TraceLineSystem@@QAE@PAVWorld@@@Z
0x100086c5:??0EndUseEstabObserver@GameClient@@QAE@ABV01@@Z
0x1001162b:??0EndUseEstabObserver@GameClient@@QAE@XZ
0x1000bf73:??0EnterEstabEffectArea@GameClient@@QAE@ABV01@@Z
0x1000f05b:??0EnterEstabEffectArea@GameClient@@QAE@K@Z
0x10010555:??0Equip@GameClient@@QAE@ABV01@@Z
0x1001a3a7:??0Equip@GameClient@@QAE@K@Z
0x1000a498:??0EquipAsyncLoaderReport@GameClient@@QAE@ABV01@@Z
0x10019768:??0EquipAsyncLoaderReport@GameClient@@QAE@PAVAEquip@1@@Z
0x1001a7a3:??0EquipManager@GameClient@@QAE@ABV01@@Z
0x10019eca:??0EquipManager@GameClient@@QAE@XZ
0x100089ae:??0EstabControllerManager@GameClient@@QAE@ABV01@@Z
0x1001708a:??0EstabControllerManager@GameClient@@QAE@XZ
0x100074af:??0EstabDoor@GameClient@@QAE@ABV01@@Z
0x10012df5:??0EstabDoor@GameClient@@QAE@K@Z
0x10007d3d:??0EstabDoorState@GameClient@@QAE@ABV01@@Z
0x10019d17:??0EstabDoorState@GameClient@@QAE@XZ
0x1000e697:??0EstabManager@GameClient@@QAE@ABV01@@Z
0x10018ac5:??0EstabManager@GameClient@@QAE@XZ
0x1000118b:??0EstabOccupyObserver@GameClient@@QAE@ABV01@@Z
0x10008eea:??0EstabOccupyObserver@GameClient@@QAE@XZ
0x10019b87:??0EstabStateChangedObserver@GameClient@@QAE@ABV01@@Z
0x100171e8:??0EstabStateChangedObserver@GameClient@@QAE@XZ
0x1000524f:??0Establishment@GameClient@@QAE@ABV01@@Z
0x10005a60:??0Establishment@GameClient@@QAE@K@Z
0x100130b1:??0FAAlarm@GameClient@@QAE@ABV01@@Z
0x100104f6:??0FAAlarm@GameClient@@QAE@XZ
0x10013cf5:??0FAArmor@GameClient@@QAE@ABV01@@Z
0x100033d7:??0FAArmor@GameClient@@QAE@XZ
0x1000b5aa:??0FACapability@GameClient@@QAE@ABV01@@Z
0x1000e79b:??0FACapability@GameClient@@QAE@XZ
0x10007e55:??0FADamage@GameClient@@QAE@ABV01@@Z
0x100058df:??0FADamage@GameClient@@QAE@XZ
0x1000e4ee:??0FAEnergy@GameClient@@QAE@ABV01@@Z
0x10010726:??0FAEnergy@GameClient@@QAE@XZ
0x100015cd:??0FAMovement@GameClient@@QAE@ABV01@@Z
0x100026b2:??0FAMovement@GameClient@@QAE@XZ
0x1000beab:??0FARepair@GameClient@@QAE@ABV01@@Z
0x10010956:??0FARepair@GameClient@@QAE@XZ
0x10012af3:??0FARetrieval@GameClient@@QAE@ABV01@@Z
0x1000e5ac:??0FARetrieval@GameClient@@QAE@XZ
0x10013250:??0FASatelliteCapability@GameClient@@QAE@ABV01@@Z
0x1000fdc6:??0FASatelliteCapability@GameClient@@QAE@XZ
0x10011e0f:??0FASearch@GameClient@@QAE@ABV01@@Z
0x1000d80a:??0FASearch@GameClient@@QAE@XZ
0x10004b92:??0FASummon@GameClient@@QAE@ABV01@@Z
0x1001882c:??0FASummon@GameClient@@QAE@XZ
0x1001454c:??0FAircraftVehicle@GameClient@@QAE@ABV01@@Z
0x10017f58:??0FAircraftVehicle@GameClient@@QAE@XZ
0x1000ed77:??0FAura@GameClient@@QAE@ABV01@@Z
0x1000c563:??0FAura@GameClient@@QAE@XZ
0x100042af:??0FBooty@GameClient@@QAE@ABV01@@Z
0x10012d32:??0FBooty@GameClient@@QAE@XZ
0x100182b9:??0FControlledEstab@GameClient@@QAE@ABV01@@Z
0x100182c8:??0FControlledEstab@GameClient@@QAE@XZ
0x1000cadb:??0FDamageEquip@GameClient@@QAE@ABV01@@Z
0x10017017:??0FDamageEquip@GameClient@@QAE@XZ
0x10018228:??0FEquip@GameClient@@QAE@ABV01@@Z
0x10005a4c:??0FEquip@GameClient@@QAE@XZ
0x10002a04:??0FEstabDoor@GameClient@@QAE@ABV01@@Z
0x100182e1:??0FEstabDoor@GameClient@@QAE@XZ
0x10018fb1:??0FEstablishment@GameClient@@QAE@ABV01@@Z
0x10014245:??0FEstablishment@GameClient@@QAE@XZ
0x1001549c:??0FFunc_Power@GameClient@@QAE@ABV01@@Z
0x10018aa7:??0FFunc_Power@GameClient@@QAE@XZ
0x100141aa:??0FFunc_Power_Input@GameClient@@QAE@ABV01@@Z
0x100159fb:??0FFunc_Power_Input@GameClient@@QAE@XZ
0x10014d99:??0FFunc_Produce@GameClient@@QAE@ABV01@@Z
0x1000eb97:??0FFunc_Produce@GameClient@@QAE@XZ
0x10011a09:??0FFunc_Receive@GameClient@@QAE@ABV01@@Z
0x10012a9e:??0FFunc_Receive@GameClient@@QAE@XZ
0x1000dc33:??0FFunc_RobotReceive@GameClient@@QAE@ABV01@@Z
0x10012341:??0FFunc_RobotReceive@GameClient@@QAE@XZ
0x10013485:??0FFunc_Sheild@GameClient@@QAE@ABV01@@Z
0x1000ca68:??0FFunc_Sheild@GameClient@@QAE@XZ
0x10011310:??0FFunc_Store@GameClient@@QAE@ABV01@@Z
0x1000bbd1:??0FFunc_Store@GameClient@@QAE@XZ
0x1000903e:??0FFunc_VehicleReceive@GameClient@@QAE@ABV01@@Z
0x10019e34:??0FFunc_VehicleReceive@GameClient@@QAE@XZ
0x10001762:??0FFunction@GameClient@@QAE@ABV01@@Z
0x10002f5e:??0FFunction@GameClient@@QAE@XZ
0x100068f2:??0FItem@GameClient@@QAE@ABV01@@Z
0x100076e9:??0FItem@GameClient@@QAE@XZ
0x1000d189:??0FNonControlledEstab@GameClient@@QAE@ABV01@@Z
0x10011ce3:??0FNonControlledEstab@GameClient@@QAE@XZ
0x1000d4ef:??0FPedrailVehicle@GameClient@@QAE@ABV01@@Z
0x1000e935:??0FPedrailVehicle@GameClient@@QAE@XZ
0x10006532:??0FPedrailVehicleWheel@GameClient@@QAE@ABV01@@Z
0x1001057d:??0FPedrailVehicleWheel@GameClient@@QAE@XZ
0x10017bb1:??0FProduct@GameClient@@QAE@ABV01@@Z
0x10003427:??0FProduct@GameClient@@QAE@XZ
0x10005ec5:??0FProductInfo@GameClient@@QAE@ABV01@@Z
0x1000d99a:??0FProductInfo@GameClient@@QAE@XZ
0x10013417:??0FRobot@GameClient@@QAE@ABV01@@Z
0x10015cad:??0FRobot@GameClient@@QAE@XZ
0x10016a40:??0FRobotArmor@GameClient@@QAE@ABV01@@Z
0x10017fda:??0FRobotArmor@GameClient@@QAE@XZ
0x10016310:??0FRobotBody@GameClient@@QAE@ABV01@@Z
0x1000b348:??0FRobotBody@GameClient@@QAE@XZ
0x1000f56a:??0FRobotCore@GameClient@@QAE@ABV01@@Z
0x10010eb0:??0FRobotCore@GameClient@@QAE@XZ
0x10002cf7:??0FRobotFramework@GameClient@@QAE@ABV01@@Z
0x100157b7:??0FRobotFramework@GameClient@@QAE@XZ
0x100152fd:??0FSAlarm@GameClient@@QAE@ABV01@@Z
0x10008107:??0FSAlarm@GameClient@@QAE@XZ
0x10019fc4:??0FSLock@GameClient@@QAE@ABV01@@Z
0x10009f7f:??0FSLock@GameClient@@QAE@XZ
0x100071fd:??0FSOccupy@GameClient@@QAE@ABV01@@Z
0x100147bd:??0FSOccupy@GameClient@@QAE@XZ
0x1000c1ad:??0FSeat@GameClient@@QAE@ABV01@@Z
0x10001b95:??0FSeat@GameClient@@QAE@XZ
0x1001ac76:??0FSkill@GameClient@@QAE@ABV01@@Z
0x100186e2:??0FSkill@GameClient@@QAE@XZ
0x1000ec32:??0FSuspendVehicle@GameClient@@QAE@ABV01@@Z
0x1000876f:??0FSuspendVehicle@GameClient@@QAE@XZ
0x10009f98:??0FSuspendVehicleWheel@GameClient@@QAE@ABV01@@Z
0x100155e1:??0FSuspendVehicleWheel@GameClient@@QAE@XZ
0x10011f27:??0FSystemPart@GameClient@@QAE@ABV01@@Z
0x1001018b:??0FSystemPart@GameClient@@QAE@XZ
0x100167ac:??0FTransformItem@GameClient@@QAE@ABV01@@Z
0x10009c7d:??0FTransformItem@GameClient@@QAE@XZ
0x10017044:??0FWeapon@GameClient@@QAE@ABV01@@Z
0x10016f2c:??0FWeapon@GameClient@@QAE@XZ
0x100026b7:??0FWheel@GameClient@@QAE@ABV01@@Z
0x10007d9c:??0FWheel@GameClient@@QAE@XZ
0x1000ed8b:??0FWheelVehicle@GameClient@@QAE@ABV01@@Z
0x1000993f:??0FWheelVehicle@GameClient@@QAE@XZ
0x1000402a:??0FWheelVehicleWheel@GameClient@@QAE@ABV01@@Z
0x10016685:??0FWheelVehicleWheel@GameClient@@QAE@XZ
0x10019a97:??0Flyweight@GameClient@@QAE@ABV01@@Z
0x1000a993:??0Flyweight@GameClient@@QAE@XZ
0x1000c6fd:??0FlyweightManager@GameClient@@QAE@ABV01@@Z
0x10008463:??0FlyweightManager@GameClient@@QAE@XZ
0x10007a13:??0FuncManager@GameClient@@QAE@ABV01@@Z
0x10012c74:??0FuncManager@GameClient@@QAE@XZ
0x100186ce:??0Func_Power@GameClient@@QAE@ABV01@@Z
0x1000f5a1:??0Func_Power@GameClient@@QAE@K@Z
0x10016987:??0Func_Power_Input@GameClient@@QAE@ABV01@@Z
0x10013f6b:??0Func_Power_Input@GameClient@@QAE@K@Z
0x100109a6:??0Func_Receive@GameClient@@QAE@ABV01@@Z
0x10008d32:??0Func_Receive@GameClient@@QAE@K@Z
0x1000bfb4:??0Func_RobotReceive@GameClient@@QAE@ABV01@@Z
0x100160ea:??0Func_RobotReceive@GameClient@@QAE@K@Z
0x10013d63:??0Func_Sheild@GameClient@@QAE@ABV01@@Z
0x100054ed:??0Func_Sheild@GameClient@@QAE@K@Z
0x10003404:??0Func_Store@GameClient@@QAE@ABV01@@Z
0x10008706:??0Func_Store@GameClient@@QAE@K@Z
0x10011fd1:??0Func_VehicleReceive@GameClient@@QAE@ABV01@@Z
0x10005155:??0Func_VehicleReceive@GameClient@@QAE@K@Z
0x10012e09:??0Function@GameClient@@QAE@ABV01@@Z
0x10016a7c:??0Function@GameClient@@QAE@K@Z
0x1001997a:??0GMKickResObserver@GameClient@@QAE@ABV01@@Z
0x1001367e:??0GMKickResObserver@GameClient@@QAE@XZ
0x1001a9e7:??0GUIConsole@@QAE@ABV0@@Z
0x10008d28:??0GUIConsole@@QAE@XZ
0x1000ea20:??0Game@@QAE@ABV0@@Z
0x10016b94:??0Game@@QAE@XZ
0x10010cc1:??0Group@GameClient@@QAE@ABV01@@Z
0x10012dfa:??0Group@GameClient@@QAE@KK@Z
0x100098b8:??0GroupManager@GameClient@@QAE@ABV01@@Z
0x10014295:??0GroupManager@GameClient@@QAE@XZ
0x10011969:??0HUDSystem@@QAE@ABV0@@Z
0x1000a010:??0HUDSystem@@QAE@XZ
0x10004273:??0HallMapBattleFieldInfoUpdatedObserver@@QAE@ABV0@@Z
0x10013d59:??0HallMapBattleFieldInfoUpdatedObserver@@QAE@XZ
0x1000b627:??0HookAlarmArea@@QAE@ABV0@@Z
0x1000308f:??0HookAlarmArea@@QAE@PAVWorld@@@Z
0x100175f3:??0HookEsbAirDrop@@QAE@ABV0@@Z
0x10012585:??0HookEsbAirDrop@@QAE@PAVWorld@@@Z
0x10006776:??0HookEsbEnergy@@QAE@ABV0@@Z
0x10012990:??0HookEsbEnergy@@QAE@PAVWorld@@@Z
0x1000f498:??0HookEsbProduce@@QAE@ABV0@@Z
0x1000a466:??0HookEsbProduce@@QAE@PAVWorld@@@Z
0x10019655:??0HookEsbSheild@@QAE@ABV0@@Z
0x1000c63f:??0HookEsbSheild@@QAE@PAVWorld@@@Z
0x1001a3b6:??0HookEsbStore@@QAE@ABV0@@Z
0x10013b4c:??0HookEsbStore@@QAE@PAVWorld@@@Z
0x1000d08f:??0HookEsbTake@@QAE@ABV0@@Z
0x10003c3d:??0HookEsbTake@@QAE@PAVWorld@@@Z
0x1000e840:??0HookEsbTransport@@QAE@ABV0@@Z
0x10009aa2:??0HookEsbTransport@@QAE@PAVWorld@@@Z
0x10011ec3:??0HookEstablishment@@QAE@ABV0@@Z
0x1001979a:??0HookEstablishment@@QAE@PAVWorld@@@Z
0x10008242:??0ICtlEstabController@GameClient@@QAE@ABV01@@Z
0x1001a2df:??0ICtlEstabController@GameClient@@QAE@XZ
0x1000e093:??0IEstabController@GameClient@@QAE@ABV01@@Z
0x1000dc9c:??0IEstabController@GameClient@@QAE@XZ
0x10006fcd:??0Interactable@GameClient@@QAE@ABV01@@Z
0x1000a407:??0Interactable@GameClient@@QAE@K@Z
0x1000cfa9:??0InviteObserver@GameClient@@QAE@ABV01@@Z
0x10015c2b:??0InviteObserver@GameClient@@QAE@XZ
0x10008562:??0InviteResObserver@GameClient@@QAE@ABV01@@Z
0x10011e2d:??0InviteResObserver@GameClient@@QAE@XZ
0x1000cea0:??0Item@GameClient@@QAE@ABV01@@Z
0x100116fd:??0Item@GameClient@@QAE@K@Z
0x100038c8:??0Laser@@QAE@ABV0@@Z
0x10008431:??0Laser@@QAE@PAVWorld@@KAAVVector@@1MPAVMaterial@@@Z
0x10012b70:??0Laser@@QAE@PAVWorld@@KAAVVector@@1MPAVTexture@@W4BlendMode@@@Z
0x10016ea0:??0LaserParticleSystem@@QAE@ABV0@@Z
0x1000693d:??0LaserParticleSystem@@QAE@KMPAVWorld@@MHHAAVVector@@11MMMMMMMM_N2PAVMaterial@@@Z
0x1000d5cb:??0LaserParticleSystem@@QAE@KMPAVWorld@@MHHAAVVector@@11MMMMMMMM_N2PAVTexture@@W4BlendMode@@@Z
0x1000d4c7:??0LightBeam@@QAE@ABV0@@Z
0x1000c84c:??0LightBeam@@QAE@PAVWorld@@PAVMaterial@@HMMMMK@Z
0x100044b7:??0LightBeam@@QAE@PAVWorld@@PAVTexture@@HMMMMK@Z
0x1000570e:??0LocalUserManager@GameClient@@QAE@ABV01@@Z
0x100084ae:??0LocalUserManager@GameClient@@QAE@XZ
0x10001fcd:??0LogicFactory@GameClient@@QAE@ABV01@@Z
0x100055e7:??0LogicFactory@GameClient@@QAE@XZ
0x100051e1:??0MapState@@QAE@ABV0@@Z
0x10002adb:??0MapState@@QAE@XZ
0x1000e67e:??0MapStateManager@@QAE@ABV0@@Z
0x10013fca:??0MapStateManager@@QAE@XZ
0x10003693:??0NeedPasswordObserver@GameClient@@QAE@ABV01@@Z
0x100101ea:??0NeedPasswordObserver@GameClient@@QAE@XZ
0x10004b15:??0NonControlledEstab@GameClient@@QAE@ABV01@@Z
0x10004c3c:??0NonControlledEstab@GameClient@@QAE@K@Z
0x10014a56:??0OccupyIcon@GameClient@@QAE@ABV01@@Z
0x1000167c:??0OccupyIcon@GameClient@@QAE@K@Z
0x10013679:??0PartAsyncLoaderReport@GameClient@@QAE@ABV01@@Z
0x100056ff:??0PartAsyncLoaderReport@GameClient@@QAE@PAVCombinActor@1@@Z
0x1001a933:??0ParticleSystem@@QAE@ABV0@@Z
0x10014155:??0ParticleSystem@@QAE@PAVWorld@@HKMMPAVTexture@@W4BlendMode@@@Z
0x1000abb4:??0ParticleSystem@@QAE@PAVWorld@@KMHHAAVVector@@11_N1MMMMMMMMMM2PAVMaterial@@@Z
0x100074aa:??0ParticleSystem@@QAE@PAVWorld@@KMHHAAVVector@@11_N1MMMMMMMMMM2PAVTexture@@W4BlendMode@@@Z
0x10007dce:??0ParticleSystemEx@@QAE@ABV0@@Z
0x1000f36c:??0ParticleSystemEx@@QAE@PAVWorld@@HKMMPAVTexture@@W4BlendMode@@@Z
0x1001042e:??0ParticleSystemEx@@QAE@PAVWorld@@KMHHAAVVector@@MM11_N1MMMMMMMMMMM2PAVMaterial@@@Z
0x10003477:??0ParticleSystemEx@@QAE@PAVWorld@@KMHHAAVVector@@MM11_N1MMMMMMMMMMM2PAVTexture@@W4BlendMode@@@Z
0x10010d4d:??0ParticleTrail@@QAE@ABV0@@Z
0x10011da1:??0ParticleTrail@@QAE@PAVWorld@@@Z
0x100010eb:??0PassInputedObserver@@QAE@ABV0@@Z
0x100087b5:??0PassInputedObserver@@QAE@XZ
0x10013133:??0PassengerController@GameClient@@QAE@ABV01@@Z
0x100108ed:??0PassengerController@GameClient@@QAE@XZ
0x1000f3d0:??0PedrailVehicle@GameClient@@QAE@ABV01@@Z
0x10009b88:??0PedrailVehicle@GameClient@@QAE@K@Z
0x100063d9:??0PedrailVehicleController@GameClient@@QAE@ABV01@@Z
0x10006799:??0PedrailVehicleController@GameClient@@QAE@XZ
0x10002347:??0PhysicsParticles@@QAE@ABV0@@Z
0x1000eb4c:??0PhysicsParticles@@QAE@_NMMHPAVWorld@@KMHHAAVVector@@22MMMMMMMM0PAVTexture@@W4BlendMode@@@Z
0x10009c3c:??0ProductManager@GameClient@@QAE@ABV01@@Z
0x1000103c:??0ProductManager@GameClient@@QAE@XZ
0x1000a61e:??0Productor@GameClient@@QAE@ABV01@@Z
0x1000aa33:??0Productor@GameClient@@QAE@ABV?$basic_string@DU?$char_traits@D@std@@V?$allocator@D@2@@std@@@Z
0x1000587b:??0RadarMapState@@QAE@ABV0@@Z
0x1000fb3c:??0RadarMapState@@QAE@XZ
0x1000d567:??0RandomTextureParticles@@QAE@ABV0@@Z
0x10004bab:??0RandomTextureParticles@@QAE@PAVWorld@@KMHHAAVVector@@11MMMMMMMM_NAAV?$vector@PAVMaterial@@V?$allocator@PAVMaterial@@@std@@@std@@@Z
0x10013908:??0RandomTextureParticles@@QAE@PAVWorld@@KMHHAAVVector@@11MMMMMMMM_NAAV?$vector@PAVTexture@@V?$allocator@PAVTexture@@@std@@@std@@W4BlendMode@@@Z
0x10018098:??0RandomTextureParticlesEx@@QAE@ABV0@@Z
0x10008f58:??0RandomTextureParticlesEx@@QAE@PAVWorld@@KMHHAAVVector@@MM11MMMMMMMMM_NAAV?$vector@PAVTexture@@V?$allocator@PAVTexture@@@std@@@std@@W4BlendMode@@@Z
0x100064d3:??0RandomTexturePhysicsParticles@@QAE@ABV0@@Z
0x100177bf:??0RandomTexturePhysicsParticles@@QAE@_NMMHPAVWorld@@KMHHAAVVector@@22MMMMMMMM0AAV?$vector@PAVTexture@@V?$allocator@PAVTexture@@@std@@@std@@W4BlendMode@@@Z
0x1001989e:??0RandomTextureTraceLine@@QAE@ABV0@@Z
0x100028b0:??0RandomTextureTraceLine@@QAE@PAVWorld@@KMHHAAVVector@@11MMMMMMMM_NAAV?$vector@PAVMaterial@@V?$allocator@PAVMaterial@@@std@@@std@@@Z
0x100162d9:??0RandomTextureTraceLine@@QAE@PAVWorld@@KMHHAAVVector@@11MMMMMMMM_NAAV?$vector@PAVTexture@@V?$allocator@PAVTexture@@@std@@@std@@W4BlendMode@@@Z
0x1000d733:??0RandomTextureTraceLineEx@@QAE@ABV0@@Z
0x100030ee:??0RandomTextureTraceLineEx@@QAE@PAVWorld@@KMHHAAVVector@@MM11MMMMMMMMM_NAAV?$vector@PAVTexture@@V?$allocator@PAVTexture@@@std@@@std@@W4BlendMode@@@Z
0x10013cfa:??0ReceiveChatMessageObserver@GameClient@@QAE@ABV01@@Z
0x100082c9:??0ReceiveChatMessageObserver@GameClient@@QAE@XZ
0x10013e8a:??0RemovedFromGroupObserver@GameClient@@QAE@ABV01@@Z
0x1000f2db:??0RemovedFromGroupObserver@GameClient@@QAE@XZ
0x10014754:??0Robot@GameClient@@QAE@ABV01@@Z
0x10001195:??0Robot@GameClient@@QAE@K@Z
0x100118a6:??0RobotArmor@GameClient@@QAE@ABV01@@Z
0x10004a7a:??0RobotArmor@GameClient@@QAE@K@Z
0x10001136:??0RobotAsyncLoaderReport@GameClient@@QAE@ABV01@@Z
0x1000bcb7:??0RobotAsyncLoaderReport@GameClient@@QAE@PAVCombinRobot@1@@Z
0x10010c3a:??0RobotBody@GameClient@@QAE@ABV01@@Z
0x1000fa6f:??0RobotBody@GameClient@@QAE@K@Z
0x1000d48b:??0RobotCallback@GameClient@@QAE@ABV01@@Z
0x100079e6:??0RobotCallback@GameClient@@QAE@PAVRobot@1@@Z
0x100085bc:??0RobotCore@GameClient@@QAE@ABV01@@Z
0x10004a75:??0RobotCore@GameClient@@QAE@K@Z
0x10005ede:??0RobotManager@GameClient@@QAE@ABV01@@Z
0x100170c6:??0RobotManager@GameClient@@QAE@XZ
0x10001460:??0RobotPartModel@FRobotBody@GameClient@@QAE@ABU012@@Z
0x100143e4:??0RobotPartModel@FRobotBody@GameClient@@QAE@XZ
0x10015eb0:??0RobotSuicideConfirmCallback@GameClient@@QAE@ABV01@@Z
0x10007d0b:??0RobotSuicideConfirmCallback@GameClient@@QAE@XZ
0x1001183d:??0SAlarm@GameClient@@QAE@ABV01@@Z
0x10018a7f:??0SAlarm@GameClient@@QAE@K@Z
0x1000bc6c:??0SLock@GameClient@@QAE@ABV01@@Z
0x10014b41:??0SLock@GameClient@@QAE@K@Z
0x10001267:??0SOccupy@GameClient@@QAE@ABV01@@Z
0x10003d14:??0SOccupy@GameClient@@QAE@K@Z
0x100133fe:??0SampleBullet@@QAE@ABV0@@Z
0x100025ea:??0SampleBullet@@QAE@PAVWorld@@@Z
0x10019353:??0SamplePlayer@@QAE@ABV0@@Z
0x100192ef:??0SamplePlayer@@QAE@PAVWorld@@@Z
0x10008684:??0SampleWeapon@@QAE@ABV0@@Z
0x100198ad:??0SampleWeapon@@QAE@PAVWorld@@@Z
0x10003a85:??0Seat@GameClient@@QAE@ABV01@@Z
0x10019b14:??0Seat@GameClient@@QAE@K@Z
0x10015564:??0SelectRebornLocObserver@GameClient@@QAE@ABV01@@Z
0x10007ea0:??0SelectRebornLocObserver@GameClient@@QAE@XZ
0x10015f3c:??0SenceBackgroundMusicPlayer@@QAE@ABV0@@Z
0x1000eb88:??0SenceBackgroundMusicPlayer@@QAE@PAVWorld@@@Z
0x10007fae:??0Skill@GameClient@@QAE@ABV01@@Z
0x10015488:??0Skill@GameClient@@QAE@K@Z
0x10012abc:??0SkillManager@GameClient@@QAE@ABV01@@Z
0x1000d931:??0SkillManager@GameClient@@QAE@XZ
0x1001805c:??0SoundMgr@@IAE@XZ
0x10015613:??0SoundMgr@@QAE@ABV0@@Z
0x10011581:??0SurfaceDecal@@QAE@ABV0@@Z
0x10014312:??0SurfaceDecal@@QAE@PAVWorld@@PAVMaterial@@AAVVector@@2KMMMW4BlendMode@@@Z
0x10009ebc:??0SurfaceDecal@@QAE@PAVWorld@@PAVTexture@@AAVVector@@2KMMMW4BlendMode@@_N@Z
0x1000390e:??0SuspendVehicle@GameClient@@QAE@ABV01@@Z
0x100045de:??0SuspendVehicle@GameClient@@QAE@K@Z
0x1000d5f3:??0SuspendVehicleController@GameClient@@QAE@ABV01@@Z
0x1000383c:??0SuspendVehicleController@GameClient@@QAE@XZ
0x1001946b:??0SyncEstabInfoObserver@GameClient@@QAE@ABV01@@Z
0x10017323:??0SyncEstabInfoObserver@GameClient@@QAE@XZ
0x10011455:??0SyncSeatRotationObserver@GameClient@@QAE@ABV01@@Z
0x10019add:??0SyncSeatRotationObserver@GameClient@@QAE@XZ
0x1000de04:??0SystemPart@GameClient@@QAE@ABV01@@Z
0x10008634:??0SystemPart@GameClient@@QAE@K@Z
0x10003549:??0TraceLineSystem@@QAE@ABV0@@Z
0x10008e09:??0TraceLineSystem@@QAE@PAVWorld@@HKMPAVTexture@@W4BlendMode@@@Z
0x10003f4e:??0TraceLineSystem@@QAE@PAVWorld@@KMHHAAVVector@@11MMMMMMMM_NPAVMaterial@@@Z
0x10016e28:??0TraceLineSystem@@QAE@PAVWorld@@KMHHAAVVector@@11MMMMMMMM_NPAVTexture@@W4BlendMode@@@Z
0x1001a609:??0TraceLineSystemEx@@QAE@ABV0@@Z
0x100180c5:??0TraceLineSystemEx@@QAE@PAVWorld@@HKMPAVTexture@@W4BlendMode@@@Z
0x10011185:??0TraceLineSystemEx@@QAE@PAVWorld@@KMHHAAVVector@@MM11MMMMMMMMM_NPAVMaterial@@@Z
0x100104c4:??0TraceLineSystemEx@@QAE@PAVWorld@@KMHHAAVVector@@MM11MMMMMMMMM_NPAVTexture@@W4BlendMode@@@Z
0x10019475:??0TransformItem@GameClient@@QAE@ABV01@@Z
0x10011c75:??0TransformItem@GameClient@@QAE@K@Z
0x100092a5:??0UnBoardRobotObserver@GameClient@@QAE@ABV01@@Z
0x1000bb8b:??0UnBoardRobotObserver@GameClient@@QAE@XZ
0x10002725:??0UpdateAllStockObserver@GameClient@@QAE@ABV01@@Z
0x10014c27:??0UpdateAllStockObserver@GameClient@@QAE@XZ
0x10010db1:??0UpdateCommandoObserver@GameClient@@QAE@ABV01@@Z
0x1001ac80:??0UpdateCommandoObserver@GameClient@@QAE@XZ
0x10003486:??0UpdateCorpCmdObserver@GameClient@@QAE@ABV01@@Z
0x10019902:??0UpdateCorpCmdObserver@GameClient@@QAE@XZ
0x100165f9:??0UpdateCorpInfoObserver@GameClient@@QAE@ABV01@@Z
0x1001795e:??0UpdateCorpInfoObserver@GameClient@@QAE@XZ
0x1000311b:??0UpdateCorpMemberInfoObserver@GameClient@@QAE@ABV01@@Z
0x100066b3:??0UpdateCorpMemberInfoObserver@GameClient@@QAE@XZ
0x1000f40c:??0UpdateEstabArmorObserver@GameClient@@QAE@ABV01@@Z
0x1000d58a:??0UpdateEstabArmorObserver@GameClient@@QAE@XZ
0x10014f33:??0UpdateGroupCmdObserver@GameClient@@QAE@ABV01@@Z
0x10002257:??0UpdateGroupCmdObserver@GameClient@@QAE@XZ
0x10001834:??0UpdateGroupMemberInfoObserver@GameClient@@QAE@ABV01@@Z
0x10007d1f:??0UpdateGroupMemberInfoObserver@GameClient@@QAE@XZ
0x100036ac:??0UpdateMemberIDObserver@GameClient@@QAE@ABV01@@Z
0x10001fd2:??0UpdateMemberIDObserver@GameClient@@QAE@XZ
0x10009bc9:??0UpdateStockObserver@GameClient@@QAE@ABV01@@Z
0x1000e8e0:??0UpdateStockObserver@GameClient@@QAE@XZ
0x10005001:??0UpdateVehicleMove@GameClient@@QAE@ABV01@@Z
0x1000bf4b:??0UpdateVehicleMove@GameClient@@QAE@XZ
0x10006f0f:??0UseEstabObserver@GameClient@@QAE@ABV01@@Z
0x10001f7d:??0UseEstabObserver@GameClient@@QAE@XZ
0x100082bf:??0VehicleStockUpdatedObserver@@QAE@ABV0@@Z
0x10013160:??0VehicleStockUpdatedObserver@@QAE@XZ
0x1000c32e:??0WaterDecal@@QAE@ABV0@@Z
0x10005d5d:??0WaterDecal@@QAE@PAVWorld@@PAVTexture@@1AAVVector@@MUFloatColor@@W4BlendMode@@@Z
0x1000c220:??0Weapon@GameClient@@QAE@ABV01@@Z
0x1000f844:??0Weapon@GameClient@@QAE@K@Z
0x10012012:??0WeaponPattern@GameClient@@QAE@ABV01@@Z
0x10015fb4:??0WeaponPattern@GameClient@@QAE@XZ
0x1000b1fe:??0WheelVehicle@GameClient@@QAE@ABV01@@Z
0x10015082:??0WheelVehicle@GameClient@@QAE@K@Z
0x10012ec2:??0WheelVehicleController@GameClient@@QAE@ABV01@@Z
0x10019687:??0WheelVehicleController@GameClient@@QAE@XZ
0x10011d1a:??0WorldObject@GameClient@@QAE@ABV01@@Z
0x10016fef:??0WorldObject@GameClient@@QAE@K@Z
0x1000c96e:??1?$ProductorTemplate@VFAAlarm@GameClient@@@GameClient@@UAE@XZ
0x100147d1:??1?$ProductorTemplate@VFAArmor@GameClient@@@GameClient@@UAE@XZ
0x100177c9:??1?$ProductorTemplate@VFACapability@GameClient@@@GameClient@@UAE@XZ
0x10010eb5:??1?$ProductorTemplate@VFADamage@GameClient@@@GameClient@@UAE@XZ
0x10018255:??1?$ProductorTemplate@VFAEnergy@GameClient@@@GameClient@@UAE@XZ
0x1000c52c:??1?$ProductorTemplate@VFAMovement@GameClient@@@GameClient@@UAE@XZ
0x1000d7a6:??1?$ProductorTemplate@VFARepair@GameClient@@@GameClient@@UAE@XZ
0x10003fb2:??1?$ProductorTemplate@VFARetrieval@GameClient@@@GameClient@@UAE@XZ
0x10007e64:??1?$ProductorTemplate@VFASatelliteCapability@GameClient@@@GameClient@@UAE@XZ
0x10015267:??1?$ProductorTemplate@VFASearch@GameClient@@@GameClient@@UAE@XZ
0x10010ac8:??1?$ProductorTemplate@VFASummon@GameClient@@@GameClient@@UAE@XZ
0x10001875:??1?$ProductorTemplate@VFAircraftVehicle@GameClient@@@GameClient@@UAE@XZ
0x100056aa:??1?$ProductorTemplate@VFAura@GameClient@@@GameClient@@UAE@XZ
0x1000ccca:??1?$ProductorTemplate@VFBooty@GameClient@@@GameClient@@UAE@XZ
0x100172ce:??1?$ProductorTemplate@VFBullet@GameClient@@@GameClient@@UAE@XZ
0x10006e8d:??1?$ProductorTemplate@VFDamageEquip@GameClient@@@GameClient@@UAE@XZ
0x1001a38e:??1?$ProductorTemplate@VFEstabDoor@GameClient@@@GameClient@@UAE@XZ
0x100158c5:??1?$ProductorTemplate@VFFunc_Power@GameClient@@@GameClient@@UAE@XZ
0x1000cfd6:??1?$ProductorTemplate@VFFunc_Power_Input@GameClient@@@GameClient@@UAE@XZ
0x10006343:??1?$ProductorTemplate@VFFunc_RobotReceive@GameClient@@@GameClient@@UAE@XZ
0x1000e66f:??1?$ProductorTemplate@VFFunc_Sheild@GameClient@@@GameClient@@UAE@XZ
0x100192a4:??1?$ProductorTemplate@VFFunc_VehicleReceive@GameClient@@@GameClient@@UAE@XZ
0x10015839:??1?$ProductorTemplate@VFItem@GameClient@@@GameClient@@UAE@XZ
0x10004408:??1?$ProductorTemplate@VFNonControlledEstab@GameClient@@@GameClient@@UAE@XZ
0x10009fed:??1?$ProductorTemplate@VFOccupyIcon@@@GameClient@@UAE@XZ
0x10003571:??1?$ProductorTemplate@VFPedrailVehicle@GameClient@@@GameClient@@UAE@XZ
0x10015e51:??1?$ProductorTemplate@VFPedrailVehicleWheel@GameClient@@@GameClient@@UAE@XZ
0x1001a9e2:??1?$ProductorTemplate@VFProductInfo@GameClient@@@GameClient@@UAE@XZ
0x10018e30:??1?$ProductorTemplate@VFRobot@GameClient@@@GameClient@@UAE@XZ
0x10016fa9:??1?$ProductorTemplate@VFRobotArmor@GameClient@@@GameClient@@UAE@XZ
0x100060be:??1?$ProductorTemplate@VFRobotBody@GameClient@@@GameClient@@UAE@XZ
0x1000732e:??1?$ProductorTemplate@VFRobotCore@GameClient@@@GameClient@@UAE@XZ
0x100076b7:??1?$ProductorTemplate@VFRobotFramework@GameClient@@@GameClient@@UAE@XZ
0x1001167b:??1?$ProductorTemplate@VFSAlarm@GameClient@@@GameClient@@UAE@XZ
0x1000bed8:??1?$ProductorTemplate@VFSLock@GameClient@@@GameClient@@UAE@XZ
0x1000a934:??1?$ProductorTemplate@VFSOccupy@GameClient@@@GameClient@@UAE@XZ
0x1000a30d:??1?$ProductorTemplate@VFSeat@GameClient@@@GameClient@@UAE@XZ
0x10014e9d:??1?$ProductorTemplate@VFSkill@GameClient@@@GameClient@@UAE@XZ
0x1000687f:??1?$ProductorTemplate@VFSuspendVehicle@GameClient@@@GameClient@@UAE@XZ
0x1000f1eb:??1?$ProductorTemplate@VFSuspendVehicleWheel@GameClient@@@GameClient@@UAE@XZ
0x1000f0d8:??1?$ProductorTemplate@VFTransformItem@GameClient@@@GameClient@@UAE@XZ
0x10013296:??1?$ProductorTemplate@VFWeapon@GameClient@@@GameClient@@UAE@XZ
0x10011d29:??1?$ProductorTemplate@VFWheelVehicle@GameClient@@@GameClient@@UAE@XZ
0x10012580:??1?$ProductorTemplate@VFWheelVehicleWheel@GameClient@@@GameClient@@UAE@XZ
0x10014533:??1AAlarm@GameClient@@UAE@XZ
0x1000f7e0:??1AArmor@GameClient@@UAE@XZ
0x1000ebf1:??1ACapability@GameClient@@UAE@XZ
0x100170e4:??1ADamage@GameClient@@UAE@XZ
0x10017a21:??1AEnergy@GameClient@@UAE@XZ
0x1000512d:??1AEquip@GameClient@@UAE@XZ
0x10001983:??1AMovement@GameClient@@UAE@XZ
0x1000970f:??1ARepair@GameClient@@UAE@XZ
0x10019033:??1ARetrieval@GameClient@@UAE@XZ
0x1001a05a:??1ASatelliteCapability@GameClient@@UAE@XZ
0x100097e1:??1ASearch@GameClient@@UAE@XZ
0x10009ea8:??1ASummon@GameClient@@UAE@XZ
0x10009999:??1AdapterActor@GameClient@@UAE@XZ
0x10018df4:??1AdapterActorALReport@GameClient@@UAE@XZ
0x1000fb5f:??1AircraftVehicle@GameClient@@UAE@XZ
0x1000948a:??1AircraftVehicleController@GameClient@@UAE@XZ
0x10009309:??1AnimationModal@@UAE@XZ
0x10004246:??1Aura@GameClient@@UAE@XZ
0x100140ce:??1AuraManager@GameClient@@QAE@XZ
0x1000ce2d:??1BattleFieldManager@GameClient@@UAE@XZ
0x10010398:??1BigMapState@@UAE@XZ
0x100143bc:??1Booty@GameClient@@UAE@XZ
0x10017468:??1BouncyParticles@@UAE@XZ
0x100055d8:??1CAlarmMessageUI@@UAE@XZ
0x1000c05e:??1CAnalyzeSystem@GameClient@@QAE@XZ
0x1000fc36:??1CBattleFieldDetailUI@@UAE@XZ
0x1000753b:??1CChatInputUI@@UAE@XZ
0x10005de4:??1CChatMessageUI@@UAE@XZ
0x100098c2:??1CControlCenterListUI@@UAE@XZ
0x10014493:??1CDropBagUI@@UAE@XZ
0x10019de9:??1CEstablishmentUI@@UAE@XZ
0x10008567:??1CGroupMemberUI@@UAE@XZ
0x1000d594:??1CGroupQuickCallUI@@UAE@XZ
0x10010c21:??1CHallMapUI@@UAE@XZ
0x1000f565:??1CKillingInfoUI@@UAE@XZ
0x1000e0ed:??1CLoginUI@@UAE@XZ
0x1000c635:??1CMiniWorldMapUI@@UAE@XZ
0x1000708b:??1COccupyEstabUI@@UAE@XZ
0x10013efd:??1CPasswordInputUI@@UAE@XZ
0x1000ef93:??1CPowerTransportUI@@UAE@XZ
0x10016eeb:??1CRadarMapUI@@UAE@XZ
0x10016595:??1CRobotRoofUI@@UAE@XZ
0x100023dd:??1CStatusUI@@UAE@XZ
0x100073a6:??1CVehicleRoofUI@@UAE@XZ
0x1001686a:??1CWaitQueueUI@@UAE@XZ
0x10005a06:??1CameraHandler@@QAE@XZ
0x1000f3a3:??1ChatManager@GameClient@@UAE@XZ
0x100122b5:??1CombinActor@GameClient@@UAE@XZ
0x1000bfaf:??1CombinPart@GameClient@@QAE@XZ
0x10004bd8:??1CombinRobot@GameClient@@UAE@XZ
0x10007e37:??1ControlledEstab@GameClient@@UAE@XZ
0x100188a9:??1DamageEquip@GameClient@@UAE@XZ
0x1001a9f1:??1DamageManager@GameClient@@QAE@XZ
0x10005aba:??1DamageUnit@GameClient@@UAE@XZ
0x10018d31:??1DataObject@GameClient@@UAE@XZ
0x10005907:??1DynamicLasers@@UAE@XZ
0x1000daf3:??1Effect_Base@@UAE@XZ
0x100173d2:??1Effect_DynamicLasers@@UAE@XZ
0x1001a677:??1Effect_Laser@@UAE@XZ
0x100097a5:??1Effect_LaserParticle@@UAE@XZ
0x10009ad9:??1Effect_Light@@UAE@XZ
0x1000f7ae:??1Effect_LightBeam@@UAE@XZ
0x1001aa0a:??1Effect_LightDizzy@@UAE@XZ
0x100071c6:??1Effect_MultiTexParticles@@UAE@XZ
0x10003c51:??1Effect_MultiTexParticlesEx@@UAE@XZ
0x1000e174:??1Effect_ParticleSystem@@UAE@XZ
0x10009f0c:??1Effect_ParticleSystemEx@@UAE@XZ
0x1000addf:??1Effect_Precipitation@@UAE@XZ
0x10017a71:??1Effect_ShadedParticles@@UAE@XZ
0x1001004b:??1Effect_TraceLineSystem@@UAE@XZ
0x10012fd0:??1Equip@GameClient@@UAE@XZ
0x100044ad:??1EquipAsyncLoaderReport@GameClient@@UAE@XZ
0x1001143c:??1EquipManager@GameClient@@QAE@XZ
0x10011aa4:??1EstabControllerManager@GameClient@@UAE@XZ
0x10007edc:??1EstabDoor@GameClient@@UAE@XZ
0x10018d27:??1EstabManager@GameClient@@UAE@XZ
0x1000a4f7:??1Establishment@GameClient@@UAE@XZ
0x100051d2:??1FAAlarm@GameClient@@UAE@XZ
0x10016c2f:??1FAArmor@GameClient@@UAE@XZ
0x10014b8c:??1FACapability@GameClient@@UAE@XZ
0x10010361:??1FADamage@GameClient@@UAE@XZ
0x10018d5e:??1FAEnergy@GameClient@@UAE@XZ
0x1000f9b1:??1FAMovement@GameClient@@UAE@XZ
0x1000c810:??1FARepair@GameClient@@UAE@XZ
0x1001a1a4:??1FARetrieval@GameClient@@UAE@XZ
0x100050e2:??1FASatelliteCapability@GameClient@@UAE@XZ
0x100078a6:??1FASearch@GameClient@@UAE@XZ
0x10012ee5:??1FASummon@GameClient@@UAE@XZ
0x10015e88:??1FAircraftVehicle@GameClient@@UAE@XZ
0x1000925f:??1FAura@GameClient@@UAE@XZ
0x10004705:??1FBooty@GameClient@@UAE@XZ
0x10007054:??1FControlledEstab@GameClient@@UAE@XZ
0x1000f600:??1FDamageEquip@GameClient@@UAE@XZ
0x10005f7e:??1FEquip@GameClient@@UAE@XZ
0x10005a29:??1FEstabDoor@GameClient@@UAE@XZ
0x1001568b:??1FEstablishment@GameClient@@UAE@XZ
0x10013ec6:??1FFunc_Power@GameClient@@UAE@XZ
0x1000c77a:??1FFunc_Power_Input@GameClient@@UAE@XZ
0x10001d61:??1FFunc_Produce@GameClient@@UAE@XZ
0x10013381:??1FFunc_Receive@GameClient@@UAE@XZ
0x100161a8:??1FFunc_RobotReceive@GameClient@@UAE@XZ
0x100031f2:??1FFunc_Sheild@GameClient@@UAE@XZ
0x100160d6:??1FFunc_Store@GameClient@@UAE@XZ
0x100156fe:??1FFunc_VehicleReceive@GameClient@@UAE@XZ
0x10002509:??1FFunction@GameClient@@UAE@XZ
0x100028ab:??1FItem@GameClient@@UAE@XZ
0x10014817:??1FNonControlledEstab@GameClient@@UAE@XZ
0x10012404:??1FPedrailVehicle@GameClient@@UAE@XZ
0x1001a55a:??1FPedrailVehicleWheel@GameClient@@UAE@XZ
0x10011284:??1FProduct@GameClient@@UAE@XZ
0x1000b082:??1FProductInfo@GameClient@@UAE@XZ
0x100097b9:??1FRobot@GameClient@@UAE@XZ
0x1000dbb1:??1FRobotArmor@GameClient@@UAE@XZ
0x10017cd3:??1FRobotBody@GameClient@@UAE@XZ
0x10014be1:??1FRobotCore@GameClient@@UAE@XZ
0x10013cbe:??1FRobotFramework@GameClient@@UAE@XZ
0x10013043:??1FSAlarm@GameClient@@UAE@XZ
0x1000240a:??1FSLock@GameClient@@UAE@XZ
0x10005add:??1FSOccupy@GameClient@@UAE@XZ
0x10004093:??1FSeat@GameClient@@UAE@XZ
0x1001041f:??1FSkill@GameClient@@UAE@XZ
0x1000aa60:??1FSuspendVehicle@GameClient@@UAE@XZ
0x100150d7:??1FSuspendVehicleWheel@GameClient@@UAE@XZ
0x10013a6b:??1FSystemPart@GameClient@@UAE@XZ
0x10001474:??1FTransformItem@GameClient@@UAE@XZ
0x1000834b:??1FWeapon@GameClient@@UAE@XZ
0x1001006e:??1FWheel@GameClient@@UAE@XZ
0x10004769:??1FWheelVehicle@GameClient@@UAE@XZ
0x10003fa3:??1FWheelVehicleWheel@GameClient@@UAE@XZ
0x1000321f:??1Flyweight@GameClient@@UAE@XZ
0x1000e9d0:??1FlyweightManager@GameClient@@QAE@XZ
0x10003e77:??1FuncManager@GameClient@@UAE@XZ
0x10018575:??1Func_Power@GameClient@@UAE@XZ
0x100113e7:??1Func_Power_Input@GameClient@@UAE@XZ
0x1000727f:??1Func_Receive@GameClient@@UAE@XZ
0x100048a9:??1Func_RobotReceive@GameClient@@UAE@XZ
0x10003526:??1Func_Sheild@GameClient@@UAE@XZ
0x10013953:??1Func_Store@GameClient@@UAE@XZ
0x1000def4:??1Func_VehicleReceive@GameClient@@UAE@XZ
0x1001a618:??1Function@GameClient@@UAE@XZ
0x10004abb:??1GUIConsole@@QAE@XZ
0x1000fcae:??1Game@@QAE@XZ
0x1001a429:??1Group@GameClient@@QAE@XZ
0x10012878:??1GroupManager@GameClient@@UAE@XZ
0x1001536b:??1HUDSystem@@QAE@XZ
0x1000eaa7:??1HookAlarmArea@@UAE@XZ
0x10015591:??1HookEsbAirDrop@@UAE@XZ
0x10015e7e:??1HookEsbEnergy@@UAE@XZ
0x1000421e:??1HookEsbProduce@@UAE@XZ
0x100059d9:??1HookEsbSheild@@UAE@XZ
0x10009c87:??1HookEsbStore@@UAE@XZ
0x1000e3fe:??1HookEsbTake@@UAE@XZ
0x100118d3:??1HookEsbTransport@@UAE@XZ
0x10005ef2:??1HookEstablishment@@UAE@XZ
0x1000db66:??1ICtlEstabController@GameClient@@UAE@XZ
0x10003846:??1IEstabController@GameClient@@UAE@XZ
0x10007f27:??1Interactable@GameClient@@UAE@XZ
0x10012a2b:??1Item@GameClient@@UAE@XZ
0x1000efc5:??1Laser@@UAE@XZ
0x1000f9b6:??1LaserParticleSystem@@UAE@XZ
0x10002955:??1LightBeam@@UAE@XZ
0x1000728e:??1LocalUserManager@GameClient@@UAE@XZ
0x1001267a:??1LogicFactory@GameClient@@QAE@XZ
0x1000b2cb:??1MapState@@UAE@XZ
0x100054c0:??1MapStateManager@@QAE@XZ
0x10017e1d:??1NonControlledEstab@GameClient@@UAE@XZ
0x100025f9:??1OccupyIcon@GameClient@@UAE@XZ
0x1000d1f7:??1PartAsyncLoaderReport@GameClient@@UAE@XZ
0x1000b8ca:??1ParticleSystem@@UAE@XZ
0x1000a001:??1ParticleSystemEx@@UAE@XZ
0x1001981c:??1ParticleTrail@@UAE@XZ
0x100170a8:??1PassengerController@GameClient@@UAE@XZ
0x100125da:??1PedrailVehicle@GameClient@@UAE@XZ
0x1001a49c:??1PedrailVehicleController@GameClient@@UAE@XZ
0x10017ca1:??1PhysicsParticles@@UAE@XZ
0x1000943f:??1ProductManager@GameClient@@UAE@XZ
0x1000f5f6:??1Productor@GameClient@@UAE@XZ
0x10001564:??1RadarMapState@@UAE@XZ
0x1001682e:??1RandomTextureParticles@@UAE@XZ
0x1000424b:??1RandomTextureParticlesEx@@UAE@XZ
0x1000da4e:??1RandomTexturePhysicsParticles@@UAE@XZ
0x100122f1:??1RandomTextureTraceLine@@UAE@XZ
0x10008b9d:??1RandomTextureTraceLineEx@@UAE@XZ
0x10015adc:??1Robot@GameClient@@UAE@XZ
0x10002153:??1RobotArmor@GameClient@@UAE@XZ
0x10016806:??1RobotAsyncLoaderReport@GameClient@@UAE@XZ
0x10007298:??1RobotBody@GameClient@@UAE@XZ
0x1001a94c:??1RobotCallback@GameClient@@UAE@XZ
0x10002a4a:??1RobotCore@GameClient@@UAE@XZ
0x100038f0:??1RobotManager@GameClient@@QAE@XZ
0x10009bab:??1RobotPartModel@FRobotBody@GameClient@@QAE@XZ
0x1000e683:??1RobotSuicideConfirmCallback@GameClient@@UAE@XZ
0x10016437:??1SAlarm@GameClient@@UAE@XZ
0x1000e8e5:??1SLock@GameClient@@UAE@XZ
0x1000e872:??1SOccupy@GameClient@@UAE@XZ
0x1000b2ad:??1SampleBullet@@UAE@XZ
0x10002c2f:??1SamplePlayer@@UAE@XZ
0x10009a43:??1SampleWeapon@@UAE@XZ
0x1000cf22:??1Seat@GameClient@@UAE@XZ
0x100035a8:??1SenceBackgroundMusicPlayer@@UAE@XZ
0x1000d832:??1Skill@GameClient@@UAE@XZ
0x10015627:??1SkillManager@GameClient@@QAE@XZ
0x1000e890:??1SoundMgr@@UAE@XZ
0x10003f62:??1SurfaceDecal@@UAE@XZ
0x10009827:??1SuspendVehicle@GameClient@@UAE@XZ
0x10010b68:??1SuspendVehicleController@GameClient@@UAE@XZ
0x10012b07:??1SystemPart@GameClient@@UAE@XZ
0x100162de:??1TraceLineSystem@@UAE@XZ
0x10001960:??1TraceLineSystemEx@@UAE@XZ
0x10003143:??1TransformItem@GameClient@@UAE@XZ
0x1000e69c:??1WaterDecal@@UAE@XZ
0x10018d2c:??1Weapon@GameClient@@UAE@XZ
0x100022d4:??1WeaponPattern@GameClient@@QAE@XZ
0x10015b77:??1WheelVehicle@GameClient@@UAE@XZ
0x1000fff6:??1WheelVehicleController@GameClient@@UAE@XZ
0x1000ab55:??1WorldObject@GameClient@@UAE@XZ
0x100117e3:??4?$ProductorTemplate@VFAAlarm@GameClient@@@GameClient@@QAEAAV01@ABV01@@Z
0x100040c0:??4?$ProductorTemplate@VFAArmor@GameClient@@@GameClient@@QAEAAV01@ABV01@@Z
0x10005c3b:??4?$ProductorTemplate@VFACapability@GameClient@@@GameClient@@QAEAAV01@ABV01@@Z
0x10014db2:??4?$ProductorTemplate@VFADamage@GameClient@@@GameClient@@QAEAAV01@ABV01@@Z
0x1000a871:??4?$ProductorTemplate@VFAEnergy@GameClient@@@GameClient@@QAEAAV01@ABV01@@Z
0x1000ca2c:??4?$ProductorTemplate@VFAMovement@GameClient@@@GameClient@@QAEAAV01@ABV01@@Z
0x1000439a:??4?$ProductorTemplate@VFARepair@GameClient@@@GameClient@@QAEAAV01@ABV01@@Z
0x100129db:??4?$ProductorTemplate@VFARetrieval@GameClient@@@GameClient@@QAEAAV01@ABV01@@Z
0x10015bf4:??4?$ProductorTemplate@VFASatelliteCapability@GameClient@@@GameClient@@QAEAAV01@ABV01@@Z
0x1000e9c6:??4?$ProductorTemplate@VFASearch@GameClient@@@GameClient@@QAEAAV01@ABV01@@Z
0x10003c74:??4?$ProductorTemplate@VFASummon@GameClient@@@GameClient@@QAEAAV01@ABV01@@Z
0x10001bc2:??4?$ProductorTemplate@VFAircraftVehicle@GameClient@@@GameClient@@QAEAAV01@ABV01@@Z
0x1000628a:??4?$ProductorTemplate@VFAura@GameClient@@@GameClient@@QAEAAV01@ABV01@@Z
0x1000bb0e:??4?$ProductorTemplate@VFBooty@GameClient@@@GameClient@@QAEAAV01@ABV01@@Z
0x100178fa:??4?$ProductorTemplate@VFBullet@GameClient@@@GameClient@@QAEAAV01@ABV01@@Z
0x10003ba7:??4?$ProductorTemplate@VFDamageEquip@GameClient@@@GameClient@@QAEAAV01@ABV01@@Z
0x10014a3d:??4?$ProductorTemplate@VFEstabDoor@GameClient@@@GameClient@@QAEAAV01@ABV01@@Z
0x10015915:??4?$ProductorTemplate@VFFunc_Power@GameClient@@@GameClient@@QAEAAV01@ABV01@@Z
0x1000cac7:??4?$ProductorTemplate@VFFunc_Power_Input@GameClient@@@GameClient@@QAEAAV01@ABV01@@Z
0x10003cc9:??4?$ProductorTemplate@VFFunc_RobotReceive@GameClient@@@GameClient@@QAEAAV01@ABV01@@Z
0x10012fb7:??4?$ProductorTemplate@VFFunc_Sheild@GameClient@@@GameClient@@QAEAAV01@ABV01@@Z
0x10004a5c:??4?$ProductorTemplate@VFFunc_VehicleReceive@GameClient@@@GameClient@@QAEAAV01@ABV01@@Z
0x10002a0e:??4?$ProductorTemplate@VFItem@GameClient@@@GameClient@@QAEAAV01@ABV01@@Z
0x1001713e:??4?$ProductorTemplate@VFNonControlledEstab@GameClient@@@GameClient@@QAEAAV01@ABV01@@Z
0x100131dd:??4?$ProductorTemplate@VFOccupyIcon@@@GameClient@@QAEAAV01@ABV01@@Z
0x100156a9:??4?$ProductorTemplate@VFPedrailVehicle@GameClient@@@GameClient@@QAEAAV01@ABV01@@Z
0x10001401:??4?$ProductorTemplate@VFPedrailVehicleWheel@GameClient@@@GameClient@@QAEAAV01@ABV01@@Z
0x10012ab2:??4?$ProductorTemplate@VFProductInfo@GameClient@@@GameClient@@QAEAAV01@ABV01@@Z
0x1000fc59:??4?$ProductorTemplate@VFRobot@GameClient@@@GameClient@@QAEAAV01@ABV01@@Z
0x100035ee:??4?$ProductorTemplate@VFRobotArmor@GameClient@@@GameClient@@QAEAAV01@ABV01@@Z
0x1000c388:??4?$ProductorTemplate@VFRobotBody@GameClient@@@GameClient@@QAEAAV01@ABV01@@Z
0x10011374:??4?$ProductorTemplate@VFRobotCore@GameClient@@@GameClient@@QAEAAV01@ABV01@@Z
0x100098e5:??4?$ProductorTemplate@VFRobotFramework@GameClient@@@GameClient@@QAEAAV01@ABV01@@Z
0x10019baf:??4?$ProductorTemplate@VFSAlarm@GameClient@@@GameClient@@QAEAAV01@ABV01@@Z
0x10002e32:??4?$ProductorTemplate@VFSLock@GameClient@@@GameClient@@QAEAAV01@ABV01@@Z
0x10007379:??4?$ProductorTemplate@VFSOccupy@GameClient@@@GameClient@@QAEAAV01@ABV01@@Z
0x1000f146:??4?$ProductorTemplate@VFSeat@GameClient@@@GameClient@@QAEAAV01@ABV01@@Z
0x10018cf0:??4?$ProductorTemplate@VFSkill@GameClient@@@GameClient@@QAEAAV01@ABV01@@Z
0x10007aae:??4?$ProductorTemplate@VFSuspendVehicle@GameClient@@@GameClient@@QAEAAV01@ABV01@@Z
0x1000210d:??4?$ProductorTemplate@VFSuspendVehicleWheel@GameClient@@@GameClient@@QAEAAV01@ABV01@@Z
0x1000a1af:??4?$ProductorTemplate@VFTransformItem@GameClient@@@GameClient@@QAEAAV01@ABV01@@Z
0x10008af3:??4?$ProductorTemplate@VFWeapon@GameClient@@@GameClient@@QAEAAV01@ABV01@@Z
0x1001398f:??4?$ProductorTemplate@VFWheelVehicle@GameClient@@@GameClient@@QAEAAV01@ABV01@@Z
0x1001577b:??4?$ProductorTemplate@VFWheelVehicleWheel@GameClient@@@GameClient@@QAEAAV01@ABV01@@Z
0x10009f3e:??4AAlarm@GameClient@@QAEAAV01@ABV01@@Z
0x1001474f:??4AArmor@GameClient@@QAEAAV01@ABV01@@Z
0x10006eec:??4ACapability@GameClient@@QAEAAV01@ABV01@@Z
0x10006163:??4ADamage@GameClient@@QAEAAV01@ABV01@@Z
0x10018543:??4AEnergy@GameClient@@QAEAAV01@ABV01@@Z
0x10002a1d:??4AEquip@GameClient@@QAEAAV01@ABV01@@Z
0x10011554:??4AMovement@GameClient@@QAEAAV01@ABV01@@Z
0x10012594:??4ARepair@GameClient@@QAEAAV01@ABV01@@Z
0x100023ce:??4ARetrieval@GameClient@@QAEAAV01@ABV01@@Z
0x10003a99:??4ASatelliteCapability@GameClient@@QAEAAV01@ABV01@@Z
0x10003b3e:??4ASearch@GameClient@@QAEAAV01@ABV01@@Z
0x100185de:??4ASummon@GameClient@@QAEAAV01@ABV01@@Z
0x1001a398:??4AdapterActor@GameClient@@QAEAAV01@ABV01@@Z
0x1000e241:??4AdapterActorALReport@GameClient@@QAEAAV01@ABV01@@Z
0x1000cc98:??4AddToGroupObserver@GameClient@@QAEAAV01@ABV01@@Z
0x100144ac:??4AircraftVehicle@GameClient@@QAEAAV01@ABV01@@Z
0x10002d15:??4AircraftVehicleController@GameClient@@QAEAAV01@ABV01@@Z
0x100128be:??4AnimationModal@@QAEAAV0@ABV0@@Z
0x10016ed7:??4Aura@GameClient@@QAEAAV01@ABV01@@Z
0x10013b01:??4AuraManager@GameClient@@QAEAAV01@ABV01@@Z
0x100184f8:??4BattleFieldManager@GameClient@@QAEAAV01@ABV01@@Z
0x10018642:??4BigMapState@@QAEAAV0@ABV0@@Z
0x10011bd5:??4BoardRobotObserver@GameClient@@QAEAAV01@ABV01@@Z
0x1000f240:??4Booty@GameClient@@QAEAAV01@ABV01@@Z
0x1001319c:??4BouncyParticles@@QAEAAV0@ABV0@@Z
0x100085fd:??4CAlarmMessageUI@@QAEAAV0@ABV0@@Z
0x10010e38:??4CAnalyzeSystem@GameClient@@QAEAAV01@ABV01@@Z
0x10006929:??4CBattleFieldDetailUI@@QAEAAV0@ABV0@@Z
0x1000c59f:??4CChatInputUI@@QAEAAV0@ABV0@@Z
0x1000e77d:??4CChatMessageUI@@QAEAAV0@ABV0@@Z
0x10018935:??4CControlCenterListUI@@QAEAAV0@ABV0@@Z
0x10012c6a:??4CDropBagUI@@QAEAAV0@ABV0@@Z
0x1000abc3:??4CEstablishmentUI@@QAEAAV0@ABV0@@Z
0x10008008:??4CGroupMemberUI@@QAEAAV0@ABV0@@Z
0x10015cfd:??4CGroupQuickCallUI@@QAEAAV0@ABV0@@Z
0x10016d47:??4CHallMapUI@@QAEAAV0@ABV0@@Z
0x1001a32f:??4CKillingInfoUI@@QAEAAV0@ABV0@@Z
0x1001234b:??4CLoginUI@@QAEAAV0@ABV0@@Z
0x100021a8:??4CMiniWorldMapUI@@QAEAAV0@ABV0@@Z
0x100039fe:??4COccupyEstabUI@@QAEAAV0@ABV0@@Z
0x1001a79e:??4CPasswordInputUI@@QAEAAV0@ABV0@@Z
0x1000ebd8:??4CPowerTransportUI@@QAEAAV0@ABV0@@Z
0x100092af:??4CRadarMapUI@@QAEAAV0@ABV0@@Z
0x100144de:??4CRobotRoofUI@@QAEAAV0@ABV0@@Z
0x100118bf:??4CStatusUI@@QAEAAV0@ABV0@@Z
0x1000bd20:??4CVehicleRoofUI@@QAEAAV0@ABV0@@Z
0x1000c3a1:??4CWaitQueueUI@@QAEAAV0@ABV0@@Z
0x100160c2:??4CameraHandler@@QAEAAV0@ABV0@@Z
0x1001147d:??4ChangeLeaderObserver@GameClient@@QAEAAV01@ABV01@@Z
0x10005d21:??4ChangeSeatObserver@GameClient@@QAEAAV01@ABV01@@Z
0x10017be3:??4CharacterExploitUpdateObserver@@QAEAAV0@ABV0@@Z
0x10002702:??4ChatManager@GameClient@@QAEAAV01@ABV01@@Z
0x1000f588:??4CombinActor@GameClient@@QAEAAV01@ABV01@@Z
0x1001a41a:??4CombinPart@GameClient@@QAEAAU01@ABU01@@Z
0x10005b28:??4CombinRobot@GameClient@@QAEAAV01@ABV01@@Z
0x1001050a:??4ControlledEstab@GameClient@@QAEAAV01@ABV01@@Z
0x10007de2:??4CorpCmdUpdatedObserver@@QAEAAV0@ABV0@@Z
0x100112c0:??4CtlEsabHeartMoveP2PObserver@GameClient@@QAEAAV01@ABV01@@Z
0x10014f9c:??4CtlEsabHeartPosObserver@GameClient@@QAEAAV01@ABV01@@Z
0x1001ab5e:??4CtlEsabHeartRotObserver@GameClient@@QAEAAV01@ABV01@@Z
0x100180fc:??4CtlEsabStageChangeObserver@GameClient@@QAEAAV01@ABV01@@Z
0x10007bf3:??4CtlEsabTransformObserver@GameClient@@QAEAAV01@ABV01@@Z
0x100153d4:??4DamageEquip@GameClient@@QAEAAV01@ABV01@@Z
0x10006bbd:??4DamageManager@GameClient@@QAEAAV01@ABV01@@Z
0x10017e86:??4DamageUnit@GameClient@@QAEAAV01@ABV01@@Z
0x1000eac5:??4DataObject@GameClient@@QAEAAV01@ABV01@@Z
0x1001142d:??4DismissGroupObserver@GameClient@@QAEAAV01@ABV01@@Z
0x100139a8:??4DynamicLasers@@QAEAAV0@ABV0@@Z
0x10015424:??4Effect_Base@@QAEAAV0@ABV0@@Z
0x1000fb82:??4Effect_DynamicLasers@@QAEAAV0@ABV0@@Z
0x100066d6:??4Effect_Laser@@QAEAAV0@ABV0@@Z
0x10018f39:??4Effect_LaserParticle@@QAEAAV0@ABV0@@Z
0x10005e25:??4Effect_Light@@QAEAAV0@ABV0@@Z
0x10002941:??4Effect_LightBeam@@QAEAAV0@ABV0@@Z
0x10014f4c:??4Effect_LightDizzy@@QAEAAV0@ABV0@@Z
0x1001565e:??4Effect_MultiTexParticles@@QAEAAV0@ABV0@@Z
0x1000add5:??4Effect_MultiTexParticlesEx@@QAEAAV0@ABV0@@Z
0x1000871a:??4Effect_ParticleSystem@@QAEAAV0@ABV0@@Z
0x10012be8:??4Effect_ParticleSystemEx@@QAEAAV0@ABV0@@Z
0x10012e63:??4Effect_Precipitation@@QAEAAV0@ABV0@@Z
0x10002b3a:??4Effect_ShadedParticles@@QAEAAV0@ABV0@@Z
0x10018da9:??4Effect_TraceLineSystem@@QAEAAV0@ABV0@@Z
0x10012562:??4EndUseEstabObserver@GameClient@@QAEAAV01@ABV01@@Z
0x10007da6:??4EnterEstabEffectArea@GameClient@@QAEAAV01@ABV01@@Z
0x10009345:??4Equip@GameClient@@QAEAAV01@ABV01@@Z
0x1000b762:??4EquipAsyncLoaderReport@GameClient@@QAEAAV01@ABV01@@Z
0x100080f3:??4EquipManager@GameClient@@QAEAAV01@ABV01@@Z
0x10002b0d:??4EstabControllerManager@GameClient@@QAEAAV01@ABV01@@Z
0x100036c0:??4EstabDoor@GameClient@@QAEAAV01@ABV01@@Z
0x10018be7:??4EstabDoorState@GameClient@@QAEAAV01@ABV01@@Z
0x1001a0ff:??4EstabManager@GameClient@@QAEAAV01@ABV01@@Z
0x1000941c:??4EstabOccupyObserver@GameClient@@QAEAAV01@ABV01@@Z
0x1000c086:??4EstabStateChangedObserver@GameClient@@QAEAAV01@ABV01@@Z
0x10017d32:??4Establishment@GameClient@@QAEAAV01@ABV01@@Z
0x1000569b:??4FAAlarm@GameClient@@QAEAAV01@ABV01@@Z
0x1000e0d4:??4FAArmor@GameClient@@QAEAAV01@ABV01@@Z
0x100039c2:??4FACapability@GameClient@@QAEAAV01@ABV01@@Z
0x10009629:??4FADamage@GameClient@@QAEAAV01@ABV01@@Z
0x10002824:??4FAEnergy@GameClient@@QAEAAV01@ABV01@@Z
0x1001a636:??4FAMovement@GameClient@@QAEAAV01@ABV01@@Z
0x10011eb4:??4FARepair@GameClient@@QAEAAV01@ABV01@@Z
0x1000759a:??4FARetrieval@GameClient@@QAEAAV01@ABV01@@Z
0x1000ceb4:??4FASatelliteCapability@GameClient@@QAEAAV01@ABV01@@Z
0x10002455:??4FASearch@GameClient@@QAEAAV01@ABV01@@Z
0x10010348:??4FASummon@GameClient@@QAEAAV01@ABV01@@Z
0x1000f2b3:??4FAircraftVehicle@GameClient@@QAEAAV01@ABV01@@Z
0x10009395:??4FAura@GameClient@@QAEAAV01@ABV01@@Z
0x1000d9b3:??4FBooty@GameClient@@QAEAAV01@ABV01@@Z
0x1001a1fe:??4FControlledEstab@GameClient@@QAEAAV01@ABV01@@Z
0x100134b7:??4FDamageEquip@GameClient@@QAEAAV01@ABV01@@Z
0x10017cba:??4FEquip@GameClient@@QAEAAV01@ABV01@@Z
0x10007829:??4FEstabDoor@GameClient@@QAEAAV01@ABV01@@Z
0x100083cd:??4FEstablishment@GameClient@@QAEAAV01@ABV01@@Z
0x10010195:??4FFunc_Power@GameClient@@QAEAAV01@ABV01@@Z
0x1000541b:??4FFunc_Power_Input@GameClient@@QAEAAV01@ABV01@@Z
0x10007a6d:??4FFunc_Produce@GameClient@@QAEAAV01@ABV01@@Z
0x100144a2:??4FFunc_Receive@GameClient@@QAEAAV01@ABV01@@Z
0x1000d9a9:??4FFunc_RobotReceive@GameClient@@QAEAAV01@ABV01@@Z
0x10018bdd:??4FFunc_Sheild@GameClient@@QAEAAV01@ABV01@@Z
0x1000cd24:??4FFunc_Store@GameClient@@QAEAAV01@ABV01@@Z
0x10004ae8:??4FFunc_VehicleReceive@GameClient@@QAEAAV01@ABV01@@Z
0x1000978c:??4FFunction@GameClient@@QAEAAV01@ABV01@@Z
0x1000ee9e:??4FItem@GameClient@@QAEAAV01@ABV01@@Z
0x10002ac2:??4FNonControlledEstab@GameClient@@QAEAAV01@ABV01@@Z
0x10002536:??4FPedrailVehicle@GameClient@@QAEAAV01@ABV01@@Z
0x10017cf1:??4FPedrailVehicleWheel@GameClient@@QAEAAV01@ABV01@@Z
0x10011ad1:??4FProduct@GameClient@@QAEAAV01@ABV01@@Z
0x1000c36f:??4FProductInfo@GameClient@@QAEAAV01@ABV01@@Z
0x10006c71:??4FRobot@GameClient@@QAEAAV01@ABV01@@Z
0x100047aa:??4FRobotArmor@GameClient@@QAEAAV01@ABV01@@Z
0x100037a1:??4FRobotBody@GameClient@@QAEAAV01@ABV01@@Z
0x1000dbfc:??4FRobotCore@GameClient@@QAEAAV01@ABV01@@Z
0x10008a21:??4FRobotFramework@GameClient@@QAEAAV01@ABV01@@Z
0x10008e9f:??4FSAlarm@GameClient@@QAEAAV01@ABV01@@Z
0x1000f812:??4FSLock@GameClient@@QAEAAV01@ABV01@@Z
0x1000b64a:??4FSOccupy@GameClient@@QAEAAV01@ABV01@@Z
0x1000ce0a:??4FSeat@GameClient@@QAEAAV01@ABV01@@Z
0x10007ca2:??4FSkill@GameClient@@QAEAAV01@ABV01@@Z
0x1000a0ba:??4FSuspendVehicle@GameClient@@QAEAAV01@ABV01@@Z
0x10013acf:??4FSuspendVehicleWheel@GameClient@@QAEAAV01@ABV01@@Z
0x100102b7:??4FSystemPart@GameClient@@QAEAAV01@ABV01@@Z
0x100193bc:??4FTransformItem@GameClient@@QAEAAV01@ABV01@@Z
0x100057e5:??4FWeapon@GameClient@@QAEAAV01@ABV01@@Z
0x1000f173:??4FWheel@GameClient@@QAEAAV01@ABV01@@Z
0x10017e81:??4FWheelVehicle@GameClient@@QAEAAV01@ABV01@@Z
0x1000a8b7:??4FWheelVehicleWheel@GameClient@@QAEAAV01@ABV01@@Z
0x10007f0e:??4Flyweight@GameClient@@QAEAAV01@ABV01@@Z
0x10005083:??4FlyweightManager@GameClient@@QAEAAV01@ABV01@@Z
0x1000505b:??4FuncManager@GameClient@@QAEAAV01@ABV01@@Z
0x10009908:??4Func_Power@GameClient@@QAEAAV01@ABV01@@Z
0x1000230b:??4Func_Power_Input@GameClient@@QAEAAV01@ABV01@@Z
0x1001304d:??4Func_Receive@GameClient@@QAEAAV01@ABV01@@Z
0x1000d1e3:??4Func_RobotReceive@GameClient@@QAEAAV01@ABV01@@Z
0x10014141:??4Func_Sheild@GameClient@@QAEAAV01@ABV01@@Z
0x1000657d:??4Func_Store@GameClient@@QAEAAV01@ABV01@@Z
0x10009a57:??4Func_VehicleReceive@GameClient@@QAEAAV01@ABV01@@Z
0x10003d73:??4Function@GameClient@@QAEAAV01@ABV01@@Z
0x1000e3ea:??4GMKickResObserver@GameClient@@QAEAAV01@ABV01@@Z
0x10005c36:??4GUIConsole@@QAEAAV0@ABV0@@Z
0x1001722e:??4Game@@QAEAAV0@ABV0@@Z
0x10003e22:??4Group@GameClient@@QAEABV01@ABV01@@Z
0x100110a4:??4GroupManager@GameClient@@QAEAAV01@ABV01@@Z
0x1001a848:??4HUDSystem@@QAEAAV0@ABV0@@Z
0x1001a622:??4HallMapBattleFieldInfoUpdatedObserver@@QAEAAV0@ABV0@@Z
0x10019808:??4HookAlarmArea@@QAEAAV0@ABV0@@Z
0x10012729:??4HookEsbAirDrop@@QAEAAV0@ABV0@@Z
0x10008eb8:??4HookEsbEnergy@@QAEAAV0@ABV0@@Z
0x10018467:??4HookEsbProduce@@QAEAAV0@ABV0@@Z
0x1001a0b9:??4HookEsbSheild@@QAEAAV0@ABV0@@Z
0x10011658:??4HookEsbStore@@QAEAAV0@ABV0@@Z
0x1001513b:??4HookEsbTake@@QAEAAV0@ABV0@@Z
0x1000ef66:??4HookEsbTransport@@QAEAAV0@ABV0@@Z
0x10001f78:??4HookEstablishment@@QAEAAV0@ABV0@@Z
0x1000772f:??4ICtlEstabController@GameClient@@QAEAAV01@ABV01@@Z
0x1000bdb6:??4IEstabController@GameClient@@QAEAAV01@ABV01@@Z
0x1000ac13:??4Interactable@GameClient@@QAEAAV01@ABV01@@Z
0x10011829:??4InviteObserver@GameClient@@QAEAAV01@ABV01@@Z
0x10013a98:??4InviteResObserver@GameClient@@QAEAAV01@ABV01@@Z
0x100024cd:??4Item@GameClient@@QAEAAV01@ABV01@@Z
0x100139c1:??4Laser@@QAEAAV0@ABV0@@Z
0x1000975a:??4LaserParticleSystem@@QAEAAV0@ABV0@@Z
0x1000cbbc:??4LightBeam@@QAEAAV0@ABV0@@Z
0x100168f1:??4LocalUserManager@GameClient@@QAEAAV01@ABV01@@Z
0x1000b569:??4LogicFactory@GameClient@@QAEAAV01@ABV01@@Z
0x1001668a:??4MapState@@QAEAAV0@ABV0@@Z
0x10005ac4:??4MapStateManager@@QAEAAV0@ABV0@@Z
0x100172a1:??4NeedPasswordObserver@GameClient@@QAEAAV01@ABV01@@Z
0x100014e7:??4NonControlledEstab@GameClient@@QAEAAV01@ABV01@@Z
0x1000701d:??4OccupyIcon@GameClient@@QAEAAV01@ABV01@@Z
0x10004958:??4PartAsyncLoaderReport@GameClient@@QAEAAV01@ABV01@@Z
0x10007e19:??4ParticleSystem@@QAEAAV0@ABV0@@Z
0x1000532b:??4ParticleSystemEx@@QAEAAV0@ABV0@@Z
0x100192f4:??4ParticleTrail@@QAEAAV0@ABV0@@Z
0x10010c7b:??4PassInputedObserver@@QAEAAV0@ABV0@@Z
0x1000bb4a:??4PassengerController@GameClient@@QAEAAV01@ABV01@@Z
0x10006451:??4PedrailVehicle@GameClient@@QAEAAV01@ABV01@@Z
0x1001a43d:??4PedrailVehicleController@GameClient@@QAEAAV01@ABV01@@Z
0x100018e8:??4PhysicsParticles@@QAEAAV0@ABV0@@Z
0x100177f1:??4ProductManager@GameClient@@QAEAAV01@ABV01@@Z
0x1001a2f8:??4Productor@GameClient@@QAEAAV01@ABV01@@Z
0x1000c879:??4RadarMapState@@QAEAAV0@ABV0@@Z
0x100048fe:??4RandomTextureParticles@@QAEAAV0@ABV0@@Z
0x10014d8f:??4RandomTextureParticlesEx@@QAEAAV0@ABV0@@Z
0x100054ac:??4RandomTexturePhysicsParticles@@QAEAAV0@ABV0@@Z
0x100041a1:??4RandomTextureTraceLine@@QAEAAV0@ABV0@@Z
0x100141a0:??4RandomTextureTraceLineEx@@QAEAAV0@ABV0@@Z
0x10008990:??4ReceiveChatMessageObserver@GameClient@@QAEAAV01@ABV01@@Z
0x1001961e:??4RemovedFromGroupObserver@GameClient@@QAEAAV01@ABV01@@Z
0x100164aa:??4Robot@GameClient@@QAEAAV01@ABV01@@Z
0x10001f0f:??4RobotArmor@GameClient@@QAEAAV01@ABV01@@Z
0x1000c072:??4RobotAsyncLoaderReport@GameClient@@QAEAAV01@ABV01@@Z
0x1000696a:??4RobotBody@GameClient@@QAEAAV01@ABV01@@Z
0x1000d5da:??4RobotCallback@GameClient@@QAEAAV01@ABV01@@Z
0x10016707:??4RobotCore@GameClient@@QAEAAV01@ABV01@@Z
0x1000711c:??4RobotManager@GameClient@@QAEAAV01@ABV01@@Z
0x1001108b:??4RobotPartModel@FRobotBody@GameClient@@QAEAAU012@ABU012@@Z
0x1000338c:??4RobotSuicideConfirmCallback@GameClient@@QAEAAV01@ABV01@@Z
0x1000efac:??4SAlarm@GameClient@@QAEAAV01@ABV01@@Z
0x1000f3c6:??4SLock@GameClient@@QAEAAV01@ABV01@@Z
0x1000979b:??4SOccupy@GameClient@@QAEAAV01@ABV01@@Z
0x10012328:??4SampleBullet@@QAEAAV0@ABV0@@Z
0x10016018:??4SamplePlayer@@QAEAAV0@ABV0@@Z
0x10014042:??4SampleWeapon@@QAEAAV0@ABV0@@Z
0x1001ab09:??4Seat@GameClient@@QAEAAV01@ABV01@@Z
0x1000b17c:??4SelectRebornLocObserver@GameClient@@QAEAAV01@ABV01@@Z
0x1000e200:??4SenceBackgroundMusicPlayer@@QAEAAV0@ABV0@@Z
0x100145fb:??4Skill@GameClient@@QAEAAV01@ABV01@@Z
0x10013ba6:??4SkillManager@GameClient@@QAEAAV01@ABV01@@Z
0x10004575:??4SoundMgr@@QAEAAV0@ABV0@@Z
0x10015a46:??4SurfaceDecal@@QAEAAV0@ABV0@@Z
0x100092b9:??4SuspendVehicle@GameClient@@QAEAAV01@ABV01@@Z
0x1000d4d1:??4SuspendVehicleController@GameClient@@QAEAAV01@ABV01@@Z
0x100124f9:??4SyncEstabInfoObserver@GameClient@@QAEAAV01@ABV01@@Z
0x10015a32:??4SyncSeatRotationObserver@GameClient@@QAEAAV01@ABV01@@Z
0x10006474:??4SystemPart@GameClient@@QAEAAV01@ABV01@@Z
0x100086ca:??4TraceLineSystem@@QAEAAV0@ABV0@@Z
0x10006e7e:??4TraceLineSystemEx@@QAEAAV0@ABV0@@Z
0x100186c4:??4TransformItem@GameClient@@QAEAAV01@ABV01@@Z
0x10009f34:??4UnBoardRobotObserver@GameClient@@QAEAAV01@ABV01@@Z
0x100048d1:??4UpdateAllStockObserver@GameClient@@QAEAAV01@ABV01@@Z
0x1000d409:??4UpdateCommandoObserver@GameClient@@QAEAAV01@ABV01@@Z
0x10005cd6:??4UpdateCorpCmdObserver@GameClient@@QAEAAV01@ABV01@@Z
0x10019a9c:??4UpdateCorpInfoObserver@GameClient@@QAEAAV01@ABV01@@Z
0x1000ce69:??4UpdateCorpMemberInfoObserver@GameClient@@QAEAAV01@ABV01@@Z
0x10017fc6:??4UpdateEstabArmorObserver@GameClient@@QAEAAV01@ABV01@@Z
0x10018638:??4UpdateGroupCmdObserver@GameClient@@QAEAAV01@ABV01@@Z
0x1000109b:??4UpdateGroupMemberInfoObserver@GameClient@@QAEAAV01@ABV01@@Z
0x1000222f:??4UpdateMemberIDObserver@GameClient@@QAEAAV01@ABV01@@Z
0x10006203:??4UpdateStockObserver@GameClient@@QAEAAV01@ABV01@@Z
0x10005042:??4UpdateVehicleMove@GameClient@@QAEAAV01@ABV01@@Z
0x1001a18b:??4UseEstabObserver@GameClient@@QAEAAV01@ABV01@@Z
0x100076e4:??4VehicleStockUpdatedObserver@@QAEAAV0@ABV0@@Z
0x10019b05:??4WaterDecal@@QAEAAV0@ABV0@@Z
0x1000fcdb:??4Weapon@GameClient@@QAEAAV01@ABV01@@Z
0x1000a808:??4WeaponPattern@GameClient@@QAEAAV01@ABV01@@Z
0x10012495:??4WheelVehicle@GameClient@@QAEAAV01@ABV01@@Z
0x10008ae4:??4WheelVehicleController@GameClient@@QAEAAV01@ABV01@@Z
0x1000f088:??4WorldObject@GameClient@@QAEAAV01@ABV01@@Z
0x1031f500:??_7?$ProductorTemplate@VFAAlarm@GameClient@@@GameClient@@6B@
0x1031f568:??_7?$ProductorTemplate@VFAArmor@GameClient@@@GameClient@@6B@
0x1031f5a0:??_7?$ProductorTemplate@VFACapability@GameClient@@@GameClient@@6B@
0x1031f634:??_7?$ProductorTemplate@VFADamage@GameClient@@@GameClient@@6B@
0x1031f688:??_7?$ProductorTemplate@VFAEnergy@GameClient@@@GameClient@@6B@
0x1031f738:??_7?$ProductorTemplate@VFAMovement@GameClient@@@GameClient@@6B@
0x1031f884:??_7?$ProductorTemplate@VFARepair@GameClient@@@GameClient@@6B@
0x1031f8a0:??_7?$ProductorTemplate@VFARetrieval@GameClient@@@GameClient@@6B@
0x1031f8dc:??_7?$ProductorTemplate@VFASatelliteCapability@GameClient@@@GameClient@@6B@
0x1031f924:??_7?$ProductorTemplate@VFASearch@GameClient@@@GameClient@@6B@
0x1031f960:??_7?$ProductorTemplate@VFASummon@GameClient@@@GameClient@@6B@
0x1031a0fc:??_7?$ProductorTemplate@VFAircraftVehicle@GameClient@@@GameClient@@6B@
0x1031fb24:??_7?$ProductorTemplate@VFAura@GameClient@@@GameClient@@6B@
0x1031a1a8:??_7?$ProductorTemplate@VFBooty@GameClient@@@GameClient@@6B@
0x1031a508:??_7?$ProductorTemplate@VFBullet@GameClient@@@GameClient@@6B@
0x1031abe0:??_7?$ProductorTemplate@VFDamageEquip@GameClient@@@GameClient@@6B@
0x1031bd30:??_7?$ProductorTemplate@VFEstabDoor@GameClient@@@GameClient@@6B@
0x1031c1f8:??_7?$ProductorTemplate@VFFunc_Power@GameClient@@@GameClient@@6B@
0x1031c218:??_7?$ProductorTemplate@VFFunc_Power_Input@GameClient@@@GameClient@@6B@
0x1031c2dc:??_7?$ProductorTemplate@VFFunc_RobotReceive@GameClient@@@GameClient@@6B@
0x1031c338:??_7?$ProductorTemplate@VFFunc_Sheild@GameClient@@@GameClient@@6B@
0x1031c3a4:??_7?$ProductorTemplate@VFFunc_VehicleReceive@GameClient@@@GameClient@@6B@
0x1031c4d8:??_7?$ProductorTemplate@VFItem@GameClient@@@GameClient@@6B@
0x1031c76c:??_7?$ProductorTemplate@VFNonControlledEstab@GameClient@@@GameClient@@6B@
0x1031c7ec:??_7?$ProductorTemplate@VFOccupyIcon@@@GameClient@@6B@
0x1031cb20:??_7?$ProductorTemplate@VFPedrailVehicle@GameClient@@@GameClient@@6B@
0x1031cb9c:??_7?$ProductorTemplate@VFPedrailVehicleWheel@GameClient@@@GameClient@@6B@
0x1031cd2c:??_7?$ProductorTemplate@VFProductInfo@GameClient@@@GameClient@@6B@
0x1031cd4c:??_7?$ProductorTemplate@VFRobot@GameClient@@@GameClient@@6B@
0x1031d0e4:??_7?$ProductorTemplate@VFRobotArmor@GameClient@@@GameClient@@6B@
0x1031d820:??_7?$ProductorTemplate@VFRobotBody@GameClient@@@GameClient@@6B@
0x1031d8e4:??_7?$ProductorTemplate@VFRobotCore@GameClient@@@GameClient@@6B@
0x1031dd7c:??_7?$ProductorTemplate@VFRobotFramework@GameClient@@@GameClient@@6B@
0x1031fb3c:??_7?$ProductorTemplate@VFSAlarm@GameClient@@@GameClient@@6B@
0x103201a4:??_7?$ProductorTemplate@VFSLock@GameClient@@@GameClient@@6B@
0x103201bc:??_7?$ProductorTemplate@VFSOccupy@GameClient@@@GameClient@@6B@
0x1031e190:??_7?$ProductorTemplate@VFSeat@GameClient@@@GameClient@@6B@
0x103200d8:??_7?$ProductorTemplate@VFSkill@GameClient@@@GameClient@@6B@
0x1031e4a4:??_7?$ProductorTemplate@VFSuspendVehicle@GameClient@@@GameClient@@6B@
0x1031e4c8:??_7?$ProductorTemplate@VFSuspendVehicleWheel@GameClient@@@GameClient@@6B@
0x1031e570:??_7?$ProductorTemplate@VFTransformItem@GameClient@@@GameClient@@6B@
0x1031f094:??_7?$ProductorTemplate@VFWeapon@GameClient@@@GameClient@@6B@
0x1031f450:??_7?$ProductorTemplate@VFWheelVehicle@GameClient@@@GameClient@@6B@
0x1031f4b4:??_7?$ProductorTemplate@VFWheelVehicleWheel@GameClient@@@GameClient@@6B@
0x103168b4:??_7AAlarm@GameClient@@6B@
0x10316914:??_7AArmor@GameClient@@6B@
0x10316958:??_7ACapability@GameClient@@6B@
0x1031699c:??_7ADamage@GameClient@@6B@
0x103169fc:??_7AEnergy@GameClient@@6B@
0x10311394:??_7AEquip@GameClient@@6B@
0x10316a40:??_7AMovement@GameClient@@6B@
0x10316aa0:??_7ARepair@GameClient@@6B@
0x10316b00:??_7ARetrieval@GameClient@@6B@
0x10316b44:??_7ASatelliteCapability@GameClient@@6B@
0x10316b88:??_7ASearch@GameClient@@6B@
0x10316bcc:??_7ASummon@GameClient@@6B@
0x103111b4:??_7AdapterActor@GameClient@@6B@
0x10311178:??_7AdapterActorALReport@GameClient@@6B@
0x103178ac:??_7AddToGroupObserver@GameClient@@6B@
0x10315be4:??_7AircraftVehicle@GameClient@@6BDamageUnit@1@@
0x10315c0c:??_7AircraftVehicle@GameClient@@6BWorldObject@1@@
0x10315dc8:??_7AircraftVehicleController@GameClient@@6B@
0x1030eaec:??_7AnimationModal@@6B@
0x10313b84:??_7Aura@GameClient@@6B@
0x10316e80:??_7BattleFieldManager@GameClient@@6B@
0x1030aeb8:??_7BigMapState@@6BEventObserver@@@
0x1030aecc:??_7BigMapState@@6BMapState@@@
0x10311d04:??_7BoardRobotObserver@GameClient@@6B@
0x10313c7c:??_7Booty@GameClient@@6B@
0x1030bf5c:??_7BouncyParticles@@6B@
0x10316878:??_7CAlarmMessageUI@@6B@
0x1030afa4:??_7CAnalyzeSystem@GameClient@@6B@
0x10318f6c:??_7CBattleFieldDetailUI@@6B@
0x1030afbc:??_7CChatInputUI@@6B@
0x103175b0:??_7CChatMessageUI@@6B@
0x10318954:??_7CControlCenterListUI@@6B@
0x10313d08:??_7CDropBagUI@@6B@
0x10315814:??_7CEstablishmentUI@@6B@
0x10320e18:??_7CGroupMemberUI@@6B@
0x1030aff8:??_7CGroupQuickCallUI@@6B@
0x10319338:??_7CHallMapUI@@6B@
0x10315284:??_7CKillingInfoUI@@6B@
0x103191d0:??_7CLoginUI@@6B@
0x1031939c:??_7CMiniWorldMapUI@@6B@
0x10316770:??_7COccupyEstabUI@@6B@
0x103166a8:??_7CPasswordInputUI@@6B@
0x10315ecc:??_7CPowerTransportUI@@6B@
0x1030af68:??_7CRadarMapUI@@6B@
0x10316230:??_7CRobotRoofUI@@6B@
0x10314fe8:??_7CStatusUI@@6B@
0x10316400:??_7CVehicleRoofUI@@6B@
0x103167ac:??_7CWaitQueueUI@@6B@
0x103178d4:??_7ChangeLeaderObserver@GameClient@@6B@
0x10311d2c:??_7ChangeSeatObserver@GameClient@@6B@
0x10319388:??_7CharacterExploitUpdateObserver@@6B@
0x1030afb0:??_7ChatManager@GameClient@@6B@
0x10311564:??_7CombinActor@GameClient@@6B@
0x103119b4:??_7CombinRobot@GameClient@@6B@
0x103120b4:??_7ControlledEstab@GameClient@@6BDamageUnit@1@@
0x103120dc:??_7ControlledEstab@GameClient@@6BWorldObject@1@@
0x1030aef4:??_7CorpCmdUpdatedObserver@@6B@
0x10311e40:??_7CtlEsabHeartMoveP2PObserver@GameClient@@6B@
0x10311e18:??_7CtlEsabHeartPosObserver@GameClient@@6B@
0x10311e2c:??_7CtlEsabHeartRotObserver@GameClient@@6B@
0x10311e04:??_7CtlEsabStageChangeObserver@GameClient@@6B@
0x10311df0:??_7CtlEsabTransformObserver@GameClient@@6B@
0x10313d8c:??_7DamageEquip@GameClient@@6BDamageUnit@1@@
0x10313db4:??_7DamageEquip@GameClient@@6BItem@1@@
0x1030a848:??_7DamageUnit@GameClient@@6B@
0x1030a4d4:??_7DataObject@GameClient@@6B@
0x103178fc:??_7DismissGroupObserver@GameClient@@6B@
0x1030b040:??_7DynamicLasers@@6B@
0x1030b12c:??_7Effect_Base@@6B@
0x1030b35c:??_7Effect_DynamicLasers@@6B@
0x1030b614:??_7Effect_Laser@@6B@
0x1030bdac:??_7Effect_LaserParticle@@6B@
0x1030e9c4:??_7Effect_Light@@6B@
0x1030c30c:??_7Effect_LightBeam@@6B@
0x1030c5d4:??_7Effect_LightDizzy@@6B@
0x1030cf24:??_7Effect_MultiTexParticles@@6B@
0x1030cfbc:??_7Effect_MultiTexParticlesEx@@6B@
0x1030d9b4:??_7Effect_ParticleSystem@@6B@
0x1030da94:??_7Effect_ParticleSystemEx@@6B@
0x1030dde4:??_7Effect_Precipitation@@6B@
0x1030e4a4:??_7Effect_ShadedParticles@@6B@
0x1030e804:??_7Effect_TraceLineSystem@@6B@
0x10311db4:??_7EndUseEstabObserver@GameClient@@6B@
0x10311d68:??_7EnterEstabEffectArea@GameClient@@6B@
0x1030a9b4:??_7Equip@GameClient@@6B@
0x10311364:??_7EquipAsyncLoaderReport@GameClient@@6B@
0x10315d80:??_7EstabControllerManager@GameClient@@6B@
0x10315638:??_7EstabDoor@GameClient@@6BDamageUnit@1@@
0x1031565c:??_7EstabDoor@GameClient@@6BWorldObject@1@@
0x10315624:??_7EstabDoorState@GameClient@@6B@
0x103121c4:??_7EstabManager@GameClient@@6B@
0x10311ddc:??_7EstabOccupyObserver@GameClient@@6B@
0x10311d8c:??_7EstabStateChangedObserver@GameClient@@6B@
0x10311f9c:??_7Establishment@GameClient@@6BDamageUnit@1@@
0x10311fc4:??_7Establishment@GameClient@@6BWorldObject@1@@
0x103168f8:??_7FAAlarm@GameClient@@6B@
0x1031f584:??_7FAArmor@GameClient@@6B@
0x1031f5c0:??_7FACapability@GameClient@@6B@
0x103169e0:??_7FADamage@GameClient@@6B@
0x1031f6a4:??_7FAEnergy@GameClient@@6B@
0x10316a84:??_7FAMovement@GameClient@@6B@
0x10316ae4:??_7FARepair@GameClient@@6B@
0x1031f8c0:??_7FARetrieval@GameClient@@6B@
0x1031f908:??_7FASatelliteCapability@GameClient@@6B@
0x1031f940:??_7FASearch@GameClient@@6B@
0x10316c10:??_7FASummon@GameClient@@6B@
0x10315d3c:??_7FAircraftVehicle@GameClient@@6B@
0x10313bc8:??_7FAura@GameClient@@6B@
0x10313cf0:??_7FBooty@GameClient@@6B@
0x103154c0:??_7FControlledEstab@GameClient@@6B@
0x10313fd0:??_7FDamageEquip@GameClient@@6B@
0x10311998:??_7FEquip@GameClient@@6B@
0x10315720:??_7FEstabDoor@GameClient@@6B@
0x10314610:??_7FEstablishment@GameClient@@6B@
0x10315f18:??_7FFunc_Power@GameClient@@6B@
0x1031c240:??_7FFunc_Power_Input@GameClient@@6B@
0x1031c258:??_7FFunc_Produce@GameClient@@6B@
0x1031618c:??_7FFunc_Receive@GameClient@@6B@
0x1031c304:??_7FFunc_RobotReceive@GameClient@@6B@
0x103162d8:??_7FFunc_Sheild@GameClient@@6B@
0x1031635c:??_7FFunc_Store@GameClient@@6B@
0x1031c3d0:??_7FFunc_VehicleReceive@GameClient@@6B@
0x1030abc8:??_7FFunction@GameClient@@6B@
0x10313fb4:??_7FItem@GameClient@@6B@
0x10314628:??_7FNonControlledEstab@GameClient@@6B@
0x10315cf4:??_7FPedrailVehicle@GameClient@@6B@
0x10315cdc:??_7FPedrailVehicleWheel@GameClient@@6B@
0x1030abe0:??_7FProduct@GameClient@@6B@
0x1030abf8:??_7FProductInfo@GameClient@@6B@
0x1031cd64:??_7FRobot@GameClient@@6B@
0x1030ac40:??_7FRobotArmor@GameClient@@6B@
0x1030ac28:??_7FRobotBody@GameClient@@6B@
0x10315088:??_7FRobotCore@GameClient@@6B@
0x1031506c:??_7FRobotFramework@GameClient@@6B@
0x10316cb0:??_7FSAlarm@GameClient@@6B@
0x10316d70:??_7FSLock@GameClient@@6B@
0x10316dcc:??_7FSOccupy@GameClient@@6B@
0x103121ac:??_7FSeat@GameClient@@6B@
0x103152e4:??_7FSkill@GameClient@@6B@
0x10315d24:??_7FSuspendVehicle@GameClient@@6B@
0x10315d0c:??_7FSuspendVehicleWheel@GameClient@@6B@
0x1030ac10:??_7FSystemPart@GameClient@@6B@
0x103153fc:??_7FTransformItem@GameClient@@6B@
0x10315430:??_7FWeapon@GameClient@@6B@
0x1031595c:??_7FWheel@GameClient@@6B@
0x1031598c:??_7FWheelVehicle@GameClient@@6B@
0x10315974:??_7FWheelVehicleWheel@GameClient@@6B@
0x1030abb0:??_7Flyweight@GameClient@@6B@
0x1030ad88:??_7FuncManager@GameClient@@6B@
0x10314f28:??_7Func_Power@GameClient@@6BDataObject@1@@
0x10314f4c:??_7Func_Power@GameClient@@6BInteractable@1@@
0x10315fbc:??_7Func_Power_Input@GameClient@@6BDataObject@1@@
0x10315fe0:??_7Func_Power_Input@GameClient@@6BInteractable@1@@
0x1030ac68:??_7Func_Receive@GameClient@@6BDataObject@1@@
0x1030ac8c:??_7Func_Receive@GameClient@@6BInteractable@1@@
0x1030acf8:??_7Func_RobotReceive@GameClient@@6BDataObject@1@@
0x1030ad1c:??_7Func_RobotReceive@GameClient@@6BInteractable@1@@
0x1031626c:??_7Func_Sheild@GameClient@@6BDataObject@1@@
0x10316290:??_7Func_Sheild@GameClient@@6BInteractable@1@@
0x103162f0:??_7Func_Store@GameClient@@6BDataObject@1@@
0x10316314:??_7Func_Store@GameClient@@6BInteractable@1@@
0x10316450:??_7Func_VehicleReceive@GameClient@@6BDataObject@1@@
0x10316474:??_7Func_VehicleReceive@GameClient@@6BInteractable@1@@
0x1030a56c:??_7Function@GameClient@@6BDataObject@1@@
0x1030a590:??_7Function@GameClient@@6BInteractable@1@@
0x1030ae54:??_7GMKickResObserver@GameClient@@6B@
0x1030b034:??_7GroupManager@GameClient@@6B@
0x10319374:??_7HallMapBattleFieldInfoUpdatedObserver@@6B@
0x10313a14:??_7HookAlarmArea@@6B@
0x103138dc:??_7HookEsbAirDrop@@6B@
0x103135d4:??_7HookEsbEnergy@@6B@
0x10313674:??_7HookEsbProduce@@6B@
0x1031383c:??_7HookEsbSheild@@6B@
0x1031370c:??_7HookEsbStore@@6B@
0x103137a4:??_7HookEsbTake@@6B@
0x1031397c:??_7HookEsbTransport@@6B@
0x1031353c:??_7HookEstablishment@@6B@
0x10315db0:??_7ICtlEstabController@GameClient@@6B@
0x10311cec:??_7IEstabController@GameClient@@6B@
0x1030a530:??_7Interactable@GameClient@@6B@
0x1030af08:??_7InviteObserver@GameClient@@6B@
0x1030af1c:??_7InviteResObserver@GameClient@@6B@
0x10313eb4:??_7Item@GameClient@@6B@
0x1030b6c0:??_7Laser@@6B@
0x1030bfa0:??_7LaserParticleSystem@@6B@
0x1030c3cc:??_7LightBeam@@6B@
0x103152cc:??_7LocalUserManager@GameClient@@6B@
0x1030ae68:??_7MapState@@6B@
0x1030a62c:??_7NeedPasswordObserver@GameClient@@6B@
0x10314440:??_7NonControlledEstab@GameClient@@6BDamageUnit@1@@
0x10314464:??_7NonControlledEstab@GameClient@@6BWorldObject@1@@
0x10314528:??_7OccupyIcon@GameClient@@6BDamageUnit@1@@
0x1031454c:??_7OccupyIcon@GameClient@@6BWorldObject@1@@
0x10311538:??_7PartAsyncLoaderReport@GameClient@@6B@
0x1030bed4:??_7ParticleSystem@@6B@
0x1030bd4c:??_7ParticleSystemEx@@6B@
0x1030ec54:??_7ParticleTrail@@6B@
0x10315850:??_7PassInputedObserver@@6B@
0x10315e28:??_7PassengerController@GameClient@@6B@
0x103159f4:??_7PedrailVehicle@GameClient@@6BDamageUnit@1@@
0x10315a1c:??_7PedrailVehicle@GameClient@@6BWorldObject@1@@
0x10315e10:??_7PedrailVehicleController@GameClient@@6B@
0x1030ec84:??_7PhysicsParticles@@6B@
0x1030ad94:??_7ProductManager@GameClient@@6B@
0x1030a5f4:??_7Productor@GameClient@@6B@
0x1030ae90:??_7RadarMapState@@6B@
0x1030bf18:??_7RandomTextureParticles@@6B@
0x1030be90:??_7RandomTextureParticlesEx@@6B@
0x1030ecf4:??_7RandomTexturePhysicsParticles@@6B@
0x1030e914:??_7RandomTextureTraceLine@@6B@
0x1030e89c:??_7RandomTextureTraceLineEx@@6B@
0x1030ae40:??_7ReceiveChatMessageObserver@GameClient@@6B@
0x103178c0:??_7RemovedFromGroupObserver@GameClient@@6B@
0x1030a8f4:??_7Robot@GameClient@@6BDamageUnit@1@@
0x1030a91c:??_7Robot@GameClient@@6BWorldObject@1@@
0x103140cc:??_7RobotArmor@GameClient@@6B@
0x10311970:??_7RobotAsyncLoaderReport@GameClient@@6B@
0x1031415c:??_7RobotBody@GameClient@@6B@
0x1030a514:??_7RobotCallback@GameClient@@6B@
0x103141ec:??_7RobotCore@GameClient@@6B@
0x1030a71c:??_7RobotSuicideConfirmCallback@GameClient@@6B@
0x10316c6c:??_7SAlarm@GameClient@@6B@
0x10316d2c:??_7SLock@GameClient@@6B@
0x10316d88:??_7SOccupy@GameClient@@6B@
0x10310a6c:??_7SampleBullet@@6B@
0x10310b0c:??_7SamplePlayer@@6B@
0x103109d4:??_7SampleWeapon@@6B@
0x10312088:??_7Seat@GameClient@@6B@
0x1030a640:??_7SelectRebornLocObserver@GameClient@@6B@
0x10310d44:??_7SenceBackgroundMusicPlayer@@6B@
0x10314350:??_7Skill@GameClient@@6B@
0x10310e38:??_7SoundMgr@@6B@
0x1030ea98:??_7SurfaceDecal@@6B@
0x10315aec:??_7SuspendVehicle@GameClient@@6BDamageUnit@1@@
0x10315b14:??_7SuspendVehicle@GameClient@@6BWorldObject@1@@
0x10315df8:??_7SuspendVehicleController@GameClient@@6B@
0x10311d78:??_7SyncEstabInfoObserver@GameClient@@6B@
0x10311dc8:??_7SyncSeatRotationObserver@GameClient@@6B@
0x1030a86c:??_7SystemPart@GameClient@@6B@
0x1030e8d8:??_7TraceLineSystem@@6B@
0x1030e7ac:??_7TraceLineSystemEx@@6B@
0x103152fc:??_7TransformItem@GameClient@@6B@
0x10311d18:??_7UnBoardRobotObserver@GameClient@@6B@
0x1030a604:??_7UpdateAllStockObserver@GameClient@@6B@
0x10317938:??_7UpdateCommandoObserver@GameClient@@6B@
0x10317960:??_7UpdateCorpCmdObserver@GameClient@@6B@
0x10317974:??_7UpdateCorpInfoObserver@GameClient@@6B@
0x1031794c:??_7UpdateCorpMemberInfoObserver@GameClient@@6B@
0x10311d40:??_7UpdateEstabArmorObserver@GameClient@@6B@
0x10317924:??_7UpdateGroupCmdObserver@GameClient@@6B@
0x10317910:??_7UpdateGroupMemberInfoObserver@GameClient@@6B@
0x103178e8:??_7UpdateMemberIDObserver@GameClient@@6B@
0x1030a618:??_7UpdateStockObserver@GameClient@@6B@
0x10311d54:??_7UpdateVehicleMove@GameClient@@6B@
0x10311da0:??_7UseEstabObserver@GameClient@@6B@
0x1031643c:??_7VehicleStockUpdatedObserver@@6B@
0x1030eab0:??_7WaterDecal@@6B@
0x1030aab4:??_7Weapon@GameClient@@6B@
0x10315864:??_7WheelVehicle@GameClient@@6BDamageUnit@1@@
0x1031588c:??_7WheelVehicle@GameClient@@6BWorldObject@1@@
0x10315de0:??_7WheelVehicleController@GameClient@@6B@
0x1030a7d4:??_7WorldObject@GameClient@@6B@
0x103b4fbc:??_B?1??Instance@ChatManager@GameClient@@SAPAV12@XZ@51
0x103b6658:??_B?1??Instance@EstabControllerManager@GameClient@@SAPAV12@XZ@51
0x103b5e84:??_B?1??Instance@EstabManager@GameClient@@SAPAV12@XZ@51
0x103b4ef4:??_B?1??Instance@FuncManager@GameClient@@SAPAV12@XZ@51
0x103b510c:??_B?1??Instance@GroupManager@GameClient@@SAPAV12@XZ@51
0x103b4f8c:??_B?1??Instance@ProductManager@GameClient@@SAPAV12@XZ@51
0x1000d89b:?Active@Func_Power@GameClient@@UAEXXZ
0x1001256c:?Active@Func_RobotReceive@GameClient@@UAEXXZ
0x1000eb42:?Active@Func_VehicleReceive@GameClient@@UAEXXZ
0x10019150:?Active@Function@GameClient@@UAEXXZ
0x100076c6:?AddAlarmArea@CRadarMapUI@@QAEXKMM@Z
0x10001122:?AddAlarmMessage@CAlarmMessageUI@@QAEXKABV?$basic_string@_WU?$char_traits@_W@std@@V?$allocator@_W@2@@std@@@Z
0x100102c1:?AddArmor@DamageUnit@GameClient@@QAEXW4ARMOR_TYPE@@HMMM@Z
0x1001acad:?AddAsyncHandle@AdapterActor@GameClient@@QAEXH@Z
0x1000dc92:?AddAura@AuraManager@GameClient@@QAEPAVAura@2@PAV32@@Z
0x10015db6:?AddAura@WorldObject@GameClient@@QAEXPAVAura@2@@Z
0x10018949:?AddBattleField@BattleFieldManager@GameClient@@QAEKABUBATTLE_FIELD@2@@Z
0x100147c7:?AddBattleFieldIntro@BattleFieldManager@GameClient@@QAEXJABUBATTLE_FIELD_INFO@2@@Z
0x10013fcf:?AddBattlePoint@CBattleFieldDetailUI@@QAEXMME@Z
0x10008aee:?AddBattlePoint@CRadarMapUI@@QAEXMME@Z
0x10002cf2:?AddBeLockedTarget@Robot@GameClient@@QAEXK@Z
0x1000412e:?AddChannel@CChatInputUI@@IAEXABV?$basic_string@_WU?$char_traits@_W@std@@V?$allocator@_W@2@@std@@W4CHANNEL_TYPE@GameClient@@@Z
0x10014001:?AddCommand@CAnalyzeSystem@GameClient@@QAEXABV?$basic_string@DU?$char_traits@D@std@@V?$allocator@D@2@@std@@H@Z
0x100091c4:?AddDamageUnit@DamageManager@GameClient@@QAEXKPAVDamageUnit@2@@Z
0x1001a320:?AddEquip@Booty@GameClient@@QAEXPAVEquip@2@@Z
0x10019786:?AddEquip@Robot@GameClient@@QAEPAVEquip@2@KH@Z
0x10010c85:?AddEquip@Robot@GameClient@@QAEPAVEquip@2@PAV32@H@Z
0x1000e26e:?AddEstablishment@EstabManager@GameClient@@QAE_NPAVEstablishment@2@@Z
0x1001a8c0:?AddExploit@Robot@GameClient@@QAEXH@Z
0x10009246:?AddFunction@FuncManager@GameClient@@QAE_NPAVFunction@2@@Z
0x1001640a:?AddFxMaterial@AdapterActor@GameClient@@QAEHABV?$basic_string@DU?$char_traits@D@std@@V?$allocator@D@2@@std@@0@Z
0x10005c54:?AddHUD@HUDSystem@@QAE_NPAVHUDBase@@@Z
0x1000dcb0:?AddHistoryLine@GUIConsole@@QAEXV?$basic_string@DU?$char_traits@D@std@@V?$allocator@D@2@@std@@K@Z
0x100194cf:?AddHistoryLine@GUIConsole@@QAEXW4ConsoleMessageType@@HV?$basic_string@DU?$char_traits@D@std@@V?$allocator@D@2@@std@@K@Z
0x10001221:?AddKillingInfo@CKillingInfoUI@@QAEXKKK@Z
0x100064f6:?AddLocalCharacterRef@WorldObject@GameClient@@QAEXXZ
0x1000ffb0:?AddMaterial@ParticleTrail@@QAEXPAVMaterial@@@Z
0x10003a35:?AddMember@Group@GameClient@@QAEXKABV?$basic_string@DU?$char_traits@D@std@@V?$allocator@D@2@@std@@J_NK@Z
0x1000b42e:?AddMessage@CChatMessageUI@@QAEXW4CHANNEL_TYPE@GameClient@@ABV?$basic_string@DU?$char_traits@D@std@@V?$allocator@D@2@@std@@1@Z
0x1001a159:?AddMessage@ChatManager@GameClient@@QAEXW4CHANNEL_TYPE@2@ABV?$basic_string@DU?$char_traits@D@std@@V?$allocator@D@2@@std@@1@Z
0x1000d2e2:?AddNode@AdapterActor@GameClient@@UAEPAUModelFrame@@ABV?$basic_string@DU?$char_traits@D@std@@V?$allocator@D@2@@std@@0PAVModel@@@Z
0x1000f82b:?AddNode@DynamicLasers@@QAEXAAVVector@@PAKPAM@Z
0x1000527c:?AddNode@ParticleTrail@@QAEXVVector@@@Z
0x10014a33:?AddNumber@CPasswordInputUI@@QAEXH@Z
0x1000b4a6:?AddOccupyIcon@CRadarMapUI@@QAEXMMW4NATION_TYPE@@@Z
0x1000ddc3:?AddPartModel@CombinActor@GameClient@@UAEPAVModel@@ABV?$basic_string@DU?$char_traits@D@std@@V?$allocator@D@2@@std@@0@Z
0x1000ddc8:?AddPlusinCapability@WorldObject@GameClient@@QAEXW4PLUSIN_CAPABILITY@@@Z
0x100122bf:?AddRebornLoc@CRadarMapUI@@QAEXMMK@Z
0x100045a7:?AddRobot@RobotManager@GameClient@@QAEPAVRobot@2@PAV32@@Z
0x1001168f:?AddScaleSign@Robot@GameClient@@QAEXABVVector@@MM@Z
0x10019164:?AddSeat@EstabManager@GameClient@@QAE_NPAVSeat@2@@Z
0x100137eb:?AddSeat@Establishment@GameClient@@QAE_NPAVSeat@2@@Z
0x1001a09b:?AddShootPoint@Equip@GameClient@@QAEXPAVModel@@@Z
0x1000f52e:?AddSkill@SkillManager@GameClient@@QAEPAVSkill@2@PAV32@@Z
0x100053d0:?AddStock@Func_Store@GameClient@@QAE_NKJ@Z
0x100097a0:?AddSystemPart@EquipManager@GameClient@@QAEPAVSystemPart@2@PAV32@@Z
0x100065b4:?AddSystemPart@Robot@GameClient@@QAE_NABV?$vector@KV?$allocator@K@std@@@std@@_N@Z
0x10001b0e:?AddTempEquip@Robot@GameClient@@QAEXKH@Z
0x10018890:?AddTempEquip@Robot@GameClient@@QAEXPAVEquip@2@H@Z
0x100108b1:?AddTexture@ParticleTrail@@QAEXPAVTexture@@@Z
0x1001576c:?AddToGroup@GroupManager@GameClient@@QAEXKKABV?$basic_string@DU?$char_traits@D@std@@V?$allocator@D@2@@std@@JK_NK@Z
0x1000bb36:?AddUser@LocalUserManager@GameClient@@QAEKABUDESC_LOCALUSER@2@@Z
0x10013a39:?AlarmMessageUIEvent@CAlarmMessageUI@@CGXPAVCREDialog@@IHPAVCREControl@@IJ@Z
0x1000c734:?AnalyseCommand@CAnalyzeSystem@GameClient@@UAE_NABV?$basic_string@DU?$char_traits@D@std@@V?$allocator@D@2@@std@@AAHHH@Z
0x10016194:?AnswerInviteRequest@GroupManager@GameClient@@QAEXPAVLocalCharacter@2@_N@Z
0x100021c6:?ApplyCameraValues@CameraHandler@@QAEXXZ
0x10010307:?ApplyCommando@GroupManager@GameClient@@QAEXPAVLocalCharacter@2@@Z
0x1000a146:?ApplyForce@PhysicsParticles@@UAEXVVector@@M_N@Z
0x10016aae:?ApplyForceFrom@PhysicsParticles@@UAEXVVector@@M_N1@Z
0x10012378:?Asphyxia@Robot@GameClient@@QAEXMM@Z
0x100109e2:?AttachAnimSet@AdapterActor@GameClient@@UAEHAAVAnimationSet@@@Z
0x10016496:?AttachAnimSetFPV@CombinRobot@GameClient@@QAEHAAVAnimationSet@@@Z
0x100142f9:?AutoRecruitCapacitance@Equip@GameClient@@UAEMMM@Z
0x1000bc03:?AutoRecruitCapacitance@Item@GameClient@@UAEMMM@Z
0x10005fa6:?AutoRepair@DamageUnit@GameClient@@QAEMMM@Z
0x10006690:?AutoShoot@Weapon@GameClient@@QAEX_N@Z
0x100053f3:?AutoUse@Equip@GameClient@@UAE_NABVVector@@0@Z
0x100179a9:?BackSpace@CPasswordInputUI@@QAEXXZ
0x10003daf:?BatchBillBoard@SurfaceDecal@@SAXAAVVector@@MKPAVTexture@@PAVMaterial@@AAVCamera@@W4BlendMode@@4@Z
0x10011b12:?BatchBillBoardRotated@SurfaceDecal@@SAXAAVVector@@0MMKPAVTexture@@PAVMaterial@@AAVCamera@@W4BlendMode@@4@Z
0x1001995c:?BattleFieldDetailUIEvent@CBattleFieldDetailUI@@CGXPAVCREDialog@@IHPAVCREControl@@IJ@Z
0x1000d9ef:?BeLocked@WorldObject@GameClient@@QAEX_N@Z
0x1000fef2:?BindFuncPower@Robot@GameClient@@QAEXKK@Z
0x1000b3a7:?BindWheelFrames@PedrailVehicle@GameClient@@QAEXXZ
0x10004ef3:?BindWheelFrames@SuspendVehicle@GameClient@@QAEXXZ
0x10006b86:?BindWheelFrames@WheelVehicle@GameClient@@QAEXXZ
0x10003d37:?Board@Seat@GameClient@@QAE_NPAVRobot@2@@Z
0x10009804:?BookStock@Func_Store@GameClient@@QAE_NABV?$vector@UStockInfo@GameClient@@V?$allocator@UStockInfo@GameClient@@@std@@@std@@@Z
0x10006d1b:?BreakCast@SkillManager@GameClient@@QAEXPAVWorldObject@2@0PAVSkill@2@@Z
0x10016761:?CalculateAverageDirections@ParticleTrail@@IAEXXZ
0x103b56d0:?CameraForwardVector@ParticleTrail@@1VVector@@A
0x103b56c4:?CameraLocation@ParticleTrail@@1VVector@@A
0x103b56dc:?CameraRightVector@ParticleTrail@@1VVector@@A
0x103b56e8:?CameraUpVector@ParticleTrail@@1VVector@@A
0x103b54c8:?CameraVector@Laser@@0VVector@@A
0x100073ab:?CanAddStock@Func_Store@GameClient@@QAE_NKJ@Z
0x100152ad:?CanBeActived@Func_Receive@GameClient@@UAE_NPAVLocalCharacter@2@@Z
0x1000a1aa:?CanBeActived@Function@GameClient@@UAE_NPAVLocalCharacter@2@@Z
0x10001edd:?CanBeEnable@Skill@GameClient@@UAE_NXZ
0x1000f916:?CanBeSpecialUse@Equip@GameClient@@UAE_NXZ
0x1000e052:?CanBeSpecialUse@Weapon@GameClient@@UAE_NXZ
0x10006447:?CanBeTakeUp@Equip@GameClient@@UAE_NXZ
0x100030bc:?CanBeTakeUp@Item@GameClient@@UAE_NXZ
0x100020e5:?CanBeTakeUp@TransformItem@GameClient@@UAE_NXZ
0x10012ec7:?CanBeTakeUp@Weapon@GameClient@@UAE_NXZ
0x1000feed:?CanBeThrow@Equip@GameClient@@UAE_NXZ
0x1000616d:?CanBeUsed@Equip@GameClient@@UAE_NXZ
0x1000eb7e:?CanBeUsed@Item@GameClient@@UAE_NXZ
0x100180bb:?CanBeUsed@Weapon@GameClient@@UAE_NXZ
0x10004359:?CanCastSkill@SkillManager@GameClient@@QBE_NPAVWorldObject@2@0PAVSkill@2@@Z
0x1000cb17:?CanCastingSkill@SkillManager@GameClient@@QBE_NPAVWorldObject@2@0PAVSkill@2@M@Z
0x10016059:?CanRecruitCapacitance@Equip@GameClient@@UBE_NXZ
0x100148f3:?CanRecruitCapacitance@Item@GameClient@@UBE_NXZ
0x10002de2:?CanRecruitCapacitance@Weapon@GameClient@@UBE_NXZ
0x10009a07:?CanUseEstablishment@Robot@GameClient@@QAE_NXZ
0x10007e05:?CanUseHyperEnergy@Func_Power@GameClient@@QAE_NM@Z
0x1001a019:?CanUseItem@Robot@GameClient@@QAE_NXZ
0x10003044:?CanUseSkill@Item@GameClient@@UAE_NXZ
0x100122f6:?CanUseSkill@Robot@GameClient@@UAE_NXZ
0x10007ef0:?CanUseSkill@WorldObject@GameClient@@UAE_NXZ
0x1000c5bd:?CanUseWeapon@Robot@GameClient@@QAE_NXZ
0x10001ab9:?Cancel@CPasswordInputUI@@QAEXXZ
0x1000680c:?CancelBookStock@Func_Store@GameClient@@QAE_NABV?$vector@UStockInfo@GameClient@@V?$allocator@UStockInfo@GameClient@@@std@@@std@@@Z
0x10004921:?CancelByPlayer@CAlarmMessageUI@@UAE_NXZ
0x10010ff0:?CancelByPlayer@CBattleFieldDetailUI@@UAE_NXZ
0x10007153:?CancelByPlayer@CChatInputUI@@UAE_NXZ
0x10003ec7:?CancelByPlayer@CChatMessageUI@@UAE_NXZ
0x100148b7:?CancelByPlayer@CControlCenterListUI@@UAE_NXZ
0x10006a64:?CancelByPlayer@CDropBagUI@@UAE_NXZ
0x10013d86:?CancelByPlayer@CEstablishmentUI@@UAE_NXZ
0x10010929:?CancelByPlayer@CGroupMemberUI@@UAE_NXZ
0x10004c2d:?CancelByPlayer@CGroupQuickCallUI@@UAE_NXZ
0x100109c9:?CancelByPlayer@CHallMapUI@@UAE_NXZ
0x10012535:?CancelByPlayer@CKillingInfoUI@@UAE_NXZ
0x1001477c:?CancelByPlayer@CLoginUI@@UAE_NXZ
0x100138a9:?CancelByPlayer@CMiniWorldMapUI@@UAE_NXZ
0x10003fd5:?CancelByPlayer@COccupyEstabUI@@UAE_NXZ
0x10019083:?CancelByPlayer@CPasswordInputUI@@UAE_NXZ
0x1000bded:?CancelByPlayer@CPowerTransportUI@@UAE_NXZ
0x10019f9c:?CancelByPlayer@CRadarMapUI@@UAE_NXZ
0x100035da:?CancelByPlayer@CRobotRoofUI@@UAE_NXZ
0x10010c17:?CancelByPlayer@CVehicleRoofUI@@UAE_NXZ
0x10002a7c:?CancelByPlayer@CWaitQueueUI@@UAE_NXZ
0x10012661:?CancelOrder@Func_Receive@GameClient@@UAEXPAVLocalCharacter@2@@Z
0x10013d81:?Cast@AAlarm@GameClient@@UAEXM@Z
0x10010a9b:?Cast@AArmor@GameClient@@UAEXM@Z
0x1001435d:?Cast@ACapability@GameClient@@UAEXM@Z
0x100030d0:?Cast@ADamage@GameClient@@UAEXM@Z
0x10018769:?Cast@AEnergy@GameClient@@UAEXM@Z
0x1001622a:?Cast@AMovement@GameClient@@UAEXM@Z
0x10019d62:?Cast@ARepair@GameClient@@UAEXM@Z
0x1000a461:?Cast@ARetrieval@GameClient@@UAEXM@Z
0x1000f803:?Cast@ASearch@GameClient@@UAEXM@Z
0x100188db:?Cast@ASummon@GameClient@@UAEXM@Z
0x10005c40:?Cast@Aura@GameClient@@UAEXM@Z
0x1000fb2d:?Cast@SkillManager@GameClient@@QAEXPAVWorldObject@2@0PAVSkill@2@@Z
0x100137cd:?ChangeEquip@Robot@GameClient@@QAEXABV?$vector@PAVEquip@GameClient@@V?$allocator@PAVEquip@GameClient@@@std@@@std@@PAVBooty@2@@Z
0x1000b5f0:?ChangeFX@OccupyIcon@GameClient@@QAEXW4NATION_TYPE@@@Z
0x10017260:?ChangeLeader@GroupManager@GameClient@@QAEXKK@Z
0x100178d7:?ChangeLevel@BigMapState@@UAEXJ@Z
0x1001929a:?ChangeLevel@CRadarMapUI@@QAEXJ@Z
0x10015f78:?ChangeLevel@MapStateManager@@QAEXJ@Z
0x10003742:?ChangeLevel@RadarMapState@@UAEXJ@Z
0x1000eb56:?ChangeMap@CRadarMapUI@@QAEXJ@Z
0x100072cf:?ChangeMapState@CRadarMapUI@@QAEXW4MAP_STATE@@@Z
0x10012166:?ChangeShowState@Equip@GameClient@@QAEX_N@Z
0x10018ff2:?ChangeSuiteName@CRobotRoofUI@@AAEXABV?$basic_string@_WU?$char_traits@_W@std@@V?$allocator@_W@2@@std@@@Z
0x100027e3:?ChangeToState@BigMapState@@UAE_NW4MAP_STATE@@@Z
0x10006915:?ChangeToState@MapState@@UAE_NW4MAP_STATE@@@Z
0x1000b1e0:?ChangeToState@MapStateManager@@QAE_NW4MAP_STATE@@PAVCRadarMapUI@@@Z
0x10006a7d:?ChangeToState@RadarMapState@@UAE_NW4MAP_STATE@@@Z
0x10016f95:?ChangeViewMode@Robot@GameClient@@QAEX_N@Z
0x10018d8b:?ChatInputUIEvent@CChatInputUI@@CGXPAVCREDialog@@IHPAVCREControl@@IJ@Z
0x1000560a:?ChatMessageUIEvent@CChatMessageUI@@CGXPAVCREDialog@@IHPAVCREControl@@IJ@Z
0x1001532f:?CheckGroupCmdKey@GroupManager@GameClient@@QAEXPBVGroup@2@@Z
0x1000eea3:?CheckMousePos@CChatMessageUI@@IAEXXZ
0x1000a06f:?CheckSeatHideModelFrame@Establishment@GameClient@@QAEXJ_N@Z
0x10014fce:?CircleLerp@CameraHandler@@SAMMMM@Z
0x1000b708:?ClassName@AnimationModal@@UAEPBDXZ
0x10006b4a:?ClassName@Effect_Base@@UAEPBDXZ
0x1000c3ce:?ClassName@Effect_DynamicLasers@@UAEPBDXZ
0x1000ecc3:?ClassName@Effect_Laser@@UAEPBDXZ
0x1001925e:?ClassName@Effect_LaserParticle@@UAEPBDXZ
0x10011e3c:?ClassName@Effect_Light@@UAEPBDXZ
0x1000a4b6:?ClassName@Effect_LightBeam@@UAEPBDXZ
0x1000a5c9:?ClassName@Effect_LightDizzy@@UAEPBDXZ
0x10013f5c:?ClassName@Effect_MultiTexParticles@@UAEPBDXZ
0x1000fd58:?ClassName@Effect_MultiTexParticlesEx@@UAEPBDXZ
0x1000a60f:?ClassName@Effect_ParticleSystem@@UAEPBDXZ
0x10003f7b:?ClassName@Effect_ParticleSystemEx@@UAEPBDXZ
0x10011f90:?ClassName@Effect_Precipitation@@UAEPBDXZ
0x10014de4:?ClassName@Effect_ShadedParticles@@UAEPBDXZ
0x1000f132:?ClassName@Effect_TraceLineSystem@@UAEPBDXZ
0x1000f3cb:?ClassName@HookAlarmArea@@UAEPBDXZ
0x10016eaf:?ClassName@HookEsbAirDrop@@UAEPBDXZ
0x10006339:?ClassName@HookEsbEnergy@@UAEPBDXZ
0x10001f14:?ClassName@HookEsbProduce@@UAEPBDXZ
0x100095ca:?ClassName@HookEsbSheild@@UAEPBDXZ
0x10004345:?ClassName@HookEsbStore@@UAEPBDXZ
0x1001695f:?ClassName@HookEsbTake@@UAEPBDXZ
0x10001703:?ClassName@HookEsbTransport@@UAEPBDXZ
0x10003733:?ClassName@HookEstablishment@@UAEPBDXZ
0x1000f9f7:?ClassName@SampleBullet@@UAEPBDXZ
0x10015b1d:?ClassName@SamplePlayer@@UAEPBDXZ
0x10006dc0:?ClassName@SampleWeapon@@UAEPBDXZ
0x100146cd:?ClassName@SenceBackgroundMusicPlayer@@UAEPBDXZ
0x1000156e:?Clear@CStatusUI@@AAEXXZ
0x100013ca:?Clear@EstabManager@GameClient@@QAEXXZ
0x100172d8:?Clear@GUIConsole@@QAEXXZ
0x100167b6:?Clear@GroupManager@GameClient@@QAEXXZ
0x10005b5f:?Clear@ParticleTrail@@QAEXXZ
0x10017eb8:?ClearAura@AuraManager@GameClient@@QAEXXZ
0x10014178:?ClearAura@WorldObject@GameClient@@QAEXXZ
0x1000766c:?ClearBattleField@BattleFieldManager@GameClient@@QAEXXZ
0x100025cc:?ClearBattleFieldIntro@BattleFieldManager@GameClient@@QAEXXZ
0x10015a50:?ClearBattlePoint@CRadarMapUI@@QAEXXZ
0x1000bb72:?ClearDamageUnit@DamageManager@GameClient@@QAEXXZ
0x10007d4c:?ClearEditingLine@GUIConsole@@QAEXXZ
0x1001ab8b:?ClearEntity@CRadarMapUI@@QAEXXZ
0x10011d3d:?ClearEquip@Robot@GameClient@@QAEXXZ
0x10008210:?ClearFxMaterial@AdapterActor@GameClient@@QAEXXZ
0x1000e313:?ClearItems@CRobotRoofUI@@AAEXXZ
0x10006a73:?ClearNode@AdapterActor@GameClient@@UAEXXZ
0x10016423:?ClearNodeSpeed@AdapterActor@GameClient@@QAE_NABV?$basic_string@DU?$char_traits@D@std@@V?$allocator@D@2@@std@@@Z
0x1000df85:?ClearOccupyIcon@CRadarMapUI@@QAEXXZ
0x1000f448:?ClearPartModel@CombinActor@GameClient@@UAEXXZ
0x1000f7fe:?ClearRebornLoc@CRadarMapUI@@QAEXXZ
0x1000762b:?ClearRobot@Robot@GameClient@@QAEXXZ
0x10016bc6:?ClearRobot@RobotManager@GameClient@@QAEXXZ
0x1000b230:?ClearSelection@CRobotRoofUI@@AAEXXZ
0x100142c2:?ClearSelf@CRadarMapUI@@QAEXXZ
0x10015848:?ClearSkill@SkillManager@GameClient@@QAEXXZ
0x10017d64:?ClearSystemPart@EquipManager@GameClient@@QAEXXZ
0x10016dba:?ClearUser@LocalUserManager@GameClient@@QAEXXZ
0x1000319d:?ClearWaitingTeamChat@GUIConsole@@QAEXXZ
0x10006b95:?Clone@AnimationModal@@MAEXPAVActor@@_N@Z
0x1000a961:?Clone@CombinRobot@GameClient@@QAE_NPAV12@@Z
0x1001a988:?Clone@Effect_Base@@UAEXPAVActor@@_N@Z
0x1000bdca:?Clone@Effect_DynamicLasers@@UAEXPAVActor@@_N@Z
0x1000f6a0:?Clone@Effect_Laser@@UAEXPAVActor@@_N@Z
0x100191b4:?Clone@Effect_LaserParticle@@UAEXPAVActor@@_N@Z
0x10016dc9:?Clone@Effect_Light@@UAEXPAVActor@@_N@Z
0x10007a3b:?Clone@Effect_LightBeam@@UAEXPAVActor@@_N@Z
0x10003d46:?Clone@Effect_LightDizzy@@UAEXPAVActor@@_N@Z
0x10018a39:?Clone@Effect_MultiTexParticles@@UAEXPAVActor@@_N@Z
0x10004e1c:?Clone@Effect_MultiTexParticlesEx@@UAEXPAVActor@@_N@Z
0x1000eb24:?Clone@Effect_ParticleSystem@@UAEXPAVActor@@_N@Z
0x1000e49e:?Clone@Effect_ParticleSystemEx@@UAEXPAVActor@@_N@Z
0x100033cd:?Clone@Effect_Precipitation@@UAEXPAVActor@@_N@Z
0x1000bb63:?Clone@Effect_ShadedParticles@@UAEXPAVActor@@_N@Z
0x10005c8b:?Clone@Effect_TraceLineSystem@@UAEXPAVActor@@_N@Z
0x1000c590:?Clone@HookAlarmArea@@UAEXPAVActor@@_N@Z
0x10011013:?Clone@HookEsbAirDrop@@UAEXPAVActor@@_N@Z
0x1000bd52:?Clone@HookEsbEnergy@@UAEXPAVActor@@_N@Z
0x100026e9:?Clone@HookEsbProduce@@UAEXPAVActor@@_N@Z
0x10005358:?Clone@HookEsbSheild@@UAEXPAVActor@@_N@Z
0x100160ae:?Clone@HookEsbStore@@UAEXPAVActor@@_N@Z
0x10012c8d:?Clone@HookEsbTake@@UAEXPAVActor@@_N@Z
0x10019e98:?Clone@HookEsbTransport@@UAEXPAVActor@@_N@Z
0x10014777:?Clone@HookEstablishment@@UAEXPAVActor@@_N@Z
0x1000e4bc:?Close@Booty@GameClient@@QAEXXZ
0x100053d5:?ComparePriority@SoundMgr@@SAHABUPrePlaySound@1@0@Z
0x10018a57:?ComputerBasicSpeed@Robot@GameClient@@SAMHHH@Z
0x10003b52:?ComputerTotalMass@Robot@GameClient@@SAHABV?$vector@PAVFSystemPart@GameClient@@V?$allocator@PAVFSystemPart@GameClient@@@std@@@std@@@Z
0x1000ef34:?ComputerTotalPower@Robot@GameClient@@SAHABV?$vector@PAVFSystemPart@GameClient@@V?$allocator@PAVFSystemPart@GameClient@@@std@@@std@@@Z
0x10010b27:?ConfirmBoard@AircraftVehicle@GameClient@@UAE_NHPAVRobot@2@@Z
0x10019aab:?ConfirmBoard@ControlledEstab@GameClient@@UAE_NHPAVRobot@2@@Z
0x1000c031:?ConfirmBoard@Establishment@GameClient@@UAE_NHPAVRobot@2@@Z
0x10019b5a:?ConfirmBoard@PedrailVehicle@GameClient@@UAE_NHPAVRobot@2@@Z
0x1000132f:?ConfirmBoard@SuspendVehicle@GameClient@@UAE_NHPAVRobot@2@@Z
0x100075bd:?ConfirmBoard@WheelVehicle@GameClient@@UAE_NHPAVRobot@2@@Z
0x10007527:?ConfirmChangeSeat@AircraftVehicle@GameClient@@UAE_NPAVRobot@2@H@Z
0x10007982:?ConfirmChangeSeat@ControlledEstab@GameClient@@UAE_NPAVRobot@2@H@Z
0x100071c1:?ConfirmChangeSeat@Establishment@GameClient@@UAE_NPAVRobot@2@H@Z
0x1000c865:?ConfirmChangeSeat@PedrailVehicle@GameClient@@UAE_NPAVRobot@2@H@Z
0x1000359e:?ConfirmChangeSeat@SuspendVehicle@GameClient@@UAE_NPAVRobot@2@H@Z
0x100156ef:?ConfirmChangeSeat@WheelVehicle@GameClient@@UAE_NPAVRobot@2@H@Z
0x1000d17f:?ConfirmUnBoard@AircraftVehicle@GameClient@@UAE_NHPAVRobot@2@@Z
0x10017418:?ConfirmUnBoard@ControlledEstab@GameClient@@UAE_NHPAVRobot@2@@Z
0x10015d52:?ConfirmUnBoard@Establishment@GameClient@@UAE_NHPAVRobot@2@@Z
0x1001a852:?ConfirmUnBoard@PedrailVehicle@GameClient@@UAE_NHPAVRobot@2@@Z
0x1000a9bb:?ConfirmUnBoard@SuspendVehicle@GameClient@@UAE_NHPAVRobot@2@@Z
0x100134e4:?ConfirmUnBoard@WheelVehicle@GameClient@@UAE_NHPAVRobot@2@@Z
0x1000ba55:?ControlCenterListUIEvent@CControlCenterListUI@@CGXPAVCREDialog@@IHPAVCREControl@@IJ@Z
0x1000f4f7:?CreateDistortionVehicle@ControlledEstab@GameClient@@QAE_NXZ
0x100199de:?CreateImpactFX@Effect_Precipitation@@QAEXPAVVector@@0@Z
0x10014f38:?CreateInstance@BattleFieldManager@GameClient@@SA_NXZ
0x1000ae7a:?CreateInstance@DamageManager@GameClient@@SA_NXZ
0x1000e601:?CreateInstance@FAAlarm@GameClient@@UAEPAVDataObject@2@K@Z
0x1000e4b7:?CreateInstance@FAArmor@GameClient@@UAEPAVDataObject@2@K@Z
0x1000d5ee:?CreateInstance@FACapability@GameClient@@UAEPAVDataObject@2@K@Z
0x10004750:?CreateInstance@FADamage@GameClient@@UAEPAVDataObject@2@K@Z
0x1000cc0c:?CreateInstance@FAEnergy@GameClient@@UAEPAVDataObject@2@K@Z
0x1001074e:?CreateInstance@FAMovement@GameClient@@UAEPAVDataObject@2@K@Z
0x10007f22:?CreateInstance@FARepair@GameClient@@UAEPAVDataObject@2@K@Z
0x10015109:?CreateInstance@FARetrieval@GameClient@@UAEPAVDataObject@2@K@Z
0x1000605a:?CreateInstance@FASatelliteCapability@GameClient@@UAEPAVDataObject@2@K@Z
0x10016da1:?CreateInstance@FASearch@GameClient@@UAEPAVDataObject@2@K@Z
0x10008549:?CreateInstance@FASummon@GameClient@@UAEPAVDataObject@2@K@Z
0x10003535:?CreateInstance@FAircraftVehicle@GameClient@@UAEPAVDataObject@2@K@Z
0x10002144:?CreateInstance@FAura@GameClient@@UAEPAVDataObject@2@K@Z
0x10003f76:?CreateInstance@FBooty@GameClient@@UAEPAVDataObject@2@K@Z
0x1000806c:?CreateInstance@FDamageEquip@GameClient@@UAEPAVDataObject@2@K@Z
0x100045a2:?CreateInstance@FEstabDoor@GameClient@@UAEPAVDataObject@2@K@Z
0x10001a87:?CreateInstance@FEstablishment@GameClient@@UAEPAVDataObject@2@K@Z
0x1000b4e7:?CreateInstance@FFunc_Power@GameClient@@UAEPAVDataObject@2@K@Z
0x10015dde:?CreateInstance@FFunc_Power_Input@GameClient@@UAEPAVDataObject@2@K@Z
0x10015f23:?CreateInstance@FFunc_RobotReceive@GameClient@@UAEPAVDataObject@2@K@Z
0x10012c38:?CreateInstance@FFunc_Sheild@GameClient@@UAEPAVDataObject@2@K@Z
0x10003f35:?CreateInstance@FFunc_Store@GameClient@@UAEPAVDataObject@2@K@Z
0x10001c21:?CreateInstance@FFunc_VehicleReceive@GameClient@@UAEPAVDataObject@2@K@Z
0x1001928b:?CreateInstance@FItem@GameClient@@UAEPAVDataObject@2@K@Z
0x1000a5b5:?CreateInstance@FNonControlledEstab@GameClient@@UAEPAVDataObject@2@K@Z
0x10001bcc:?CreateInstance@FPedrailVehicle@GameClient@@UAEPAVDataObject@2@K@Z
0x1000badc:?CreateInstance@FProduct@GameClient@@UAEPAVDataObject@2@K@Z
0x100050a6:?CreateInstance@FProductInfo@GameClient@@UAEPAVDataObject@2@K@Z
0x1001096a:?CreateInstance@FRobot@GameClient@@UAEPAVDataObject@2@K@Z
0x100186f6:?CreateInstance@FRobotArmor@GameClient@@UAEPAVDataObject@2@K@Z
0x10012ca1:?CreateInstance@FRobotBody@GameClient@@UAEPAVDataObject@2@K@Z
0x100078bf:?CreateInstance@FRobotCore@GameClient@@UAEPAVDataObject@2@K@Z
0x10011b6c:?CreateInstance@FRobotFramework@GameClient@@UAEPAVDataObject@2@K@Z
0x100027a7:?CreateInstance@FSAlarm@GameClient@@UAEPAVDataObject@2@K@Z
0x10013ae8:?CreateInstance@FSLock@GameClient@@UAEPAVDataObject@2@K@Z
0x1000c51d:?CreateInstance@FSOccupy@GameClient@@UAEPAVDataObject@2@K@Z
0x1000ee67:?CreateInstance@FSeat@GameClient@@UAEPAVDataObject@2@K@Z
0x1000de6d:?CreateInstance@FSkill@GameClient@@UAEPAVDataObject@2@K@Z
0x10017819:?CreateInstance@FSuspendVehicle@GameClient@@UAEPAVDataObject@2@K@Z
0x10002bbc:?CreateInstance@FTransformItem@GameClient@@UAEPAVDataObject@2@K@Z
0x100158de:?CreateInstance@FWeapon@GameClient@@UAEPAVDataObject@2@K@Z
0x100195ce:?CreateInstance@FWheel@GameClient@@UAEPAVDataObject@2@K@Z
0x10009502:?CreateInstance@FWheelVehicle@GameClient@@UAEPAVDataObject@2@K@Z
0x10019826:?CreateInstance@FlyweightManager@GameClient@@SA_NXZ
0x10017544:?CreateInstance@LocalUserManager@GameClient@@SA_NXZ
0x1000d1ac:?CreateInstance@LogicFactory@GameClient@@SA_NXZ
0x100020c2:?CreateMessage@GroupManager@GameClient@@IAE?AV?$Smart_Ptr@VMessage@1Outpop@@@Utility@Outpop@@XZ
0x10016040:?CreateNxActorTrigger@Robot@GameClient@@QAEXXZ
0x100172f1:?CreateNxVehicle@AircraftVehicle@GameClient@@UAEPAVNxRaycastVehicle@2@XZ
0x1001655e:?CreateNxVehicle@PedrailVehicle@GameClient@@UAEPAVNxRaycastVehicle@2@XZ
0x1000bd89:?CreateNxVehicle@SuspendVehicle@GameClient@@UAEPAVNxRaycastVehicle@2@XZ
0x100071df:?CreateNxVehicle@WheelVehicle@GameClient@@UAEPAVNxRaycastVehicle@2@XZ
0x10001262:?CreateSystemPart@EquipManager@GameClient@@QAEPAVSystemPart@2@J@Z
0x10014254:?CreateTriger@Interactable@GameClient@@UAEXABVVector@@MM@Z
0x10003df5:?DeActive@Func_Power@GameClient@@UAEXXZ
0x1000539e:?DeActive@Func_RobotReceive@GameClient@@UAEXXZ
0x100111f3:?DeActive@Func_VehicleReceive@GameClient@@UAEXXZ
0x1000cd0b:?DeActive@Function@GameClient@@UAEXXZ
0x1000cf86:?Dead@Robot@GameClient@@QAEXM@Z
0x10001fdc:?DeclareSymbol@GUIConsole@@QAEXW4ShellType@@V?$basic_string@DU?$char_traits@D@std@@V?$allocator@D@2@@std@@PAX@Z
0x100084f4:?DeleteInstance@FlyweightManager@GameClient@@QAEXKK@Z
0x100013e8:?DeserializationComplete@CombinActor@GameClient@@UAEXXZ
0x1001a875:?DeserializationComplete@Effect_Base@@UAEXXZ
0x10012dcd:?DeserializationComplete@Effect_DynamicLasers@@UAEXXZ
0x10016d65:?DeserializationComplete@Effect_Laser@@UAEXXZ
0x10017dcd:?DeserializationComplete@Effect_LaserParticle@@UAEXXZ
0x10004395:?DeserializationComplete@Effect_LightBeam@@UAEXXZ
0x10006294:?DeserializationComplete@Effect_LightDizzy@@UAEXXZ
0x1001652c:?DeserializationComplete@Effect_MultiTexParticles@@UAEXXZ
0x10008080:?DeserializationComplete@Effect_ParticleSystem@@UAEXXZ
0x10002b80:?DeserializationComplete@Effect_ParticleSystemEx@@UAEXXZ
0x1000e660:?DeserializationComplete@Effect_Precipitation@@UAEXXZ
0x1000545c:?DeserializationComplete@Effect_ShadedParticles@@UAEXXZ
0x10005984:?DeserializationComplete@Effect_TraceLineSystem@@UAEXXZ
0x1000bfa5:?DeserializationComplete@HookEsbAirDrop@@UAEXXZ
0x10002004:?DeserializationComplete@HookEsbTake@@UAEXXZ
0x10010ae1:?DeserializationComplete@HookEsbTransport@@UAEXXZ
0x1000f169:?DeserializationComplete@SenceBackgroundMusicPlayer@@UAEXXZ
0x10009cc8:?DestroyDistortionVehicle@ControlledEstab@GameClient@@QAEXXZ
0x100110d1:?DestroyInstance@AuraManager@GameClient@@SAXXZ
0x1000556a:?DestroyInstance@BattleFieldManager@GameClient@@SAXXZ
0x100145d8:?DestroyInstance@DamageManager@GameClient@@SAXXZ
0x1001857a:?DestroyInstance@EquipManager@GameClient@@SAXXZ
0x10010f3c:?DestroyInstance@FAura@GameClient@@UAEXK@Z
0x10004390:?DestroyInstance@FBooty@GameClient@@UAEXK@Z
0x10008f35:?DestroyInstance@FDamageEquip@GameClient@@UAEXK@Z
0x1000db43:?DestroyInstance@FEstablishment@GameClient@@UAEXK@Z
0x1000950c:?DestroyInstance@FFunc_Power@GameClient@@UAEXK@Z
0x10004be2:?DestroyInstance@FFunc_RobotReceive@GameClient@@UAEXK@Z
0x1000b429:?DestroyInstance@FFunc_Sheild@GameClient@@UAEXK@Z
0x1000b901:?DestroyInstance@FFunc_Store@GameClient@@UAEXK@Z
0x10007284:?DestroyInstance@FFunc_VehicleReceive@GameClient@@UAEXK@Z
0x1001ab1d:?DestroyInstance@FItem@GameClient@@UAEXK@Z
0x100192f9:?DestroyInstance@FProduct@GameClient@@UAEXK@Z
0x10007b0d:?DestroyInstance@FProductInfo@GameClient@@UAEXK@Z
0x1001a4a6:?DestroyInstance@FRobot@GameClient@@UAEXK@Z
0x1000790f:?DestroyInstance@FRobotArmor@GameClient@@UAEXK@Z
0x1000c644:?DestroyInstance@FRobotBody@GameClient@@UAEXK@Z
0x100166df:?DestroyInstance@FRobotCore@GameClient@@UAEXK@Z
0x1001a70d:?DestroyInstance@FRobotFramework@GameClient@@UAEXK@Z
0x10009a0c:?DestroyInstance@FSeat@GameClient@@UAEXK@Z
0x10014286:?DestroyInstance@FSkill@GameClient@@UAEXK@Z
0x10016c07:?DestroyInstance@FTransformItem@GameClient@@UAEXK@Z
0x1001a04b:?DestroyInstance@FWeapon@GameClient@@UAEXK@Z
0x1001a1db:?DestroyInstance@FWheel@GameClient@@UAEXK@Z
0x10012acb:?DestroyInstance@FlyweightManager@GameClient@@SAXXZ
0x10007126:?DestroyInstance@LocalUserManager@GameClient@@SAXXZ
0x100144d4:?DestroyInstance@LogicFactory@GameClient@@SAXXZ
0x1000db16:?DestroyInstance@RobotManager@GameClient@@SAXXZ
0x1001a438:?DestroyInstance@SkillManager@GameClient@@SAXXZ
0x1000ce41:?DestroyNxVehicle@AircraftVehicle@GameClient@@UAEXXZ
0x10006965:?DestroyNxVehicle@PedrailVehicle@GameClient@@UAEXXZ
0x1000ef5c:?DestroyNxVehicle@SuspendVehicle@GameClient@@UAEXXZ
0x1000b77b:?DestroyNxVehicle@WheelVehicle@GameClient@@UAEXXZ
0x1000ab32:?DestroyPhysics@PhysicsParticles@@IAEXXZ
0x1000b3de:?Disable@Aura@GameClient@@UAE_NXZ
0x100081fc:?Disable@SAlarm@GameClient@@UAE_NXZ
0x1000a632:?Disable@SLock@GameClient@@UAE_NXZ
0x10005cfe:?Disable@SOccupy@GameClient@@UAE_NXZ
0x100148a3:?Disable@Skill@GameClient@@UAE_NXZ
0x100186d3:?DisableBuffState@WorldObject@GameClient@@UAEXK@Z
0x1000921e:?DisableSkill@Item@GameClient@@QAEXXZ
0x1001495c:?DisableSkill@Item@GameClient@@UAEXK@Z
0x100121d4:?DisableSkill@Robot@GameClient@@UAEXK@Z
0x10011040:?DisableSkill@SkillManager@GameClient@@QAE_NKK@Z
0x10006b54:?DisableSkill@WorldObject@GameClient@@UAEXK@Z
0x10010681:?DisableState@Robot@GameClient@@QAEXW4RobotOtherState@12@@Z
0x10006398:?Dismiss@Group@GameClient@@QAEXXZ
0x1001a6b8:?Dismiss@GroupManager@GameClient@@QAEXK@Z
0x1000ac1d:?DisplayFPVModel@AEquip@GameClient@@QAEX_N@Z
0x10015b04:?DisplayHand@CombinRobot@GameClient@@QAEX_N@Z
0x10013651:?DisplayPart@CombinActor@GameClient@@QAEX_N@Z
0x1000c1fd:?DoOpen@Booty@GameClient@@QAEX_N@Z
0x100030e9:?DrawLoadingScreen@Game@@QAEXM@Z
0x100091e7:?DrawSelf@CRadarMapUI@@QAEXXZ
0x1000f2b8:?DropBagUIEvent@CDropBagUI@@CGXPAVCREDialog@@IHPAVCREControl@@IJ@Z
0x1000c8c9:?EmptyInsideMap@CRadarMapUI@@QAEX_N@Z
0x1001762a:?Enable@Aura@GameClient@@UAE_NPAVWorldObject@2@0@Z
0x1001639c:?Enable@SAlarm@GameClient@@UAE_NPAVWorldObject@2@@Z
0x10002789:?Enable@SLock@GameClient@@UAE_NPAVWorldObject@2@@Z
0x1000b861:?Enable@SOccupy@GameClient@@UAE_NPAVWorldObject@2@@Z
0x1000b8d9:?Enable@Skill@GameClient@@UAE_NPAVWorldObject@2@@Z
0x100071d5:?EnableBuffState@WorldObject@GameClient@@UAEXK@Z
0x10011531:?EnableSkill@Item@GameClient@@QAEXXZ
0x10014853:?EnableSkill@Item@GameClient@@UAEXK@Z
0x100159f6:?EnableSkill@Robot@GameClient@@UAEXK@Z
0x10002987:?EnableSkill@SkillManager@GameClient@@QAE_NKK@Z
0x10017125:?EnableSkill@WorldObject@GameClient@@UAEXK@Z
0x1000b244:?EnableState@Robot@GameClient@@QAEXW4RobotOtherState@12@@Z
0x103b5504:?EndLeft@Laser@@0VVector@@A
0x103b54f8:?EndRight@Laser@@0VVector@@A
0x10009d36:?EnterFunctionArea@Robot@GameClient@@QAEXK@Z
0x10002a95:?EnumFrame@AnimationModal@@IAEXPAUModelFrame@@@Z
0x10009de0:?EstablishmentUIEvent@CEstablishmentUI@@CGXPAVCREDialog@@IHPAVCREControl@@IJ@Z
0x1030a088:?FOV@Robot@GameClient@@1HB
0x10019470:?FetchBookedStock@Func_Store@GameClient@@QAE_NABV?$vector@UStockInfo@GameClient@@V?$allocator@UStockInfo@GameClient@@@std@@@std@@@Z
0x10011725:?FetchStock@Func_Store@GameClient@@QAE_NABV?$vector@UStockInfo@GameClient@@V?$allocator@UStockInfo@GameClient@@@std@@@std@@@Z
0x10009061:?FlashBuff@CStatusUI@@AAEXXZ
0x10019597:?FlushParticles@Effect_LaserParticle@@UAEXXZ
0x10017341:?FlushParticles@Effect_ShadedParticles@@UAEXXZ
0x1000dd0a:?FlushParticles@ParticleSystem@@UAEXXZ
0x10003c9c:?FlushTraceLine@TraceLineSystem@@UAEXXZ
0x10013bb0:?FrameRender@Game@@QAEXXZ
0x10004caa:?GenerateEnergy@Func_Power@GameClient@@IAEXM@Z
0x10018525:?GenerateHyperEnergy@Func_Power@GameClient@@IAEXM@Z
0x10007293:?GenerateMapState@MapStateManager@@IAEPAVMapState@@W4MAP_STATE@@@Z
0x1000f718:?GetActivation@Effect_Base@@QAE_NXZ
0x1000743c:?GetActivation@Effect_LightDizzy@@QAE_NXZ
0x100158b6:?GetActivationTime@Effect_Base@@QBEMXZ
0x100101fe:?GetActor@Establishment@GameClient@@QAEPAVAdapterActor@2@XZ
0x1000c595:?GetActorBad@Establishment@GameClient@@QAEPAVAdapterActor@2@XZ
0x1000774d:?GetAddonStadiaLevel@Equip@GameClient@@QAEHXZ
0x1001706c:?GetAircraftVehicle@AircraftVehicle@GameClient@@QAEPAVNxAircraftVehicle@@XZ
0x1000db89:?GetAngleDown@RobotArmor@GameClient@@QBEHXZ
0x10008d0f:?GetAngleTurnU@RobotBody@GameClient@@QBEHXZ
0x10007b58:?GetAngleTurnV@RobotBody@GameClient@@QBEHXZ
0x1001465f:?GetAngleUp@RobotArmor@GameClient@@QBEHXZ
0x10016b5d:?GetAnimFPV@AEquip@GameClient@@QAEHABV?$basic_string@DU?$char_traits@D@std@@V?$allocator@D@2@@std@@@Z
0x1000dd50:?GetAnimFPV@CombinRobot@GameClient@@QAE?AUAnimSetInfo@12@ABV?$basic_string@DU?$char_traits@D@std@@V?$allocator@D@2@@std@@@Z
0x1000268f:?GetAnimFPV@CombinRobot@GameClient@@QAE?AUAnimSetInfo@12@H@Z
0x100013c0:?GetAnimFilePath@FRobotFramework@GameClient@@QBEABV?$basic_string@DU?$char_traits@D@std@@V?$allocator@D@2@@std@@XZ
0x10013f7f:?GetAnimHandle@AEquip@GameClient@@QAEHABV?$basic_string@DU?$char_traits@D@std@@V?$allocator@D@2@@std@@@Z
0x100124ae:?GetAnimHandle@CombinRobot@GameClient@@QAE?AUAnimSetInfo@12@ABV?$basic_string@DU?$char_traits@D@std@@V?$allocator@D@2@@std@@@Z
0x10004f11:?GetAnimHandle@CombinRobot@GameClient@@QAE?AUAnimSetInfo@12@H@Z
0x1000dd7d:?GetAnimationFileName@FRobotFramework@GameClient@@QBEABV?$basic_string@DU?$char_traits@D@std@@V?$allocator@D@2@@std@@XZ
0x1001918c:?GetAreaName@Establishment@GameClient@@QAEABV?$basic_string@DU?$char_traits@D@std@@V?$allocator@D@2@@std@@XZ
0x10006e5b:?GetArmor@DamageUnit@GameClient@@QAEABUArmorInfo@12@I@Z
0x1000f08d:?GetArmorCount@DamageUnit@GameClient@@QAEJXZ
0x10016324:?GetArmorProg@DamageManager@GameClient@@QAE?AV?$basic_string@DU?$char_traits@D@std@@V?$allocator@D@2@@std@@W4ARMOR_TYPE@@@Z
0x10004da4:?GetAssistantPos@Robot@GameClient@@QBE?AVMatrix@@XZ
0x1001124d:?GetAura@AuraManager@GameClient@@QAEPAVAura@2@K@Z
0x10017170:?GetAuraCount@AuraManager@GameClient@@QBEIXZ
0x1000c081:?GetAuraID@Aura@GameClient@@QBEKXZ
0x100148c1:?GetAuraState@Aura@GameClient@@QBE?AW4AuraState@12@XZ
0x1000d102:?GetAvatarEquipData@Equip@GameClient@@QAEXAAVBinStream@@@Z
0x10007c07:?GetBFLocInGUI@CHallMapUI@@QAE_NJAAJ0@Z
0x1001537a:?GetBackCoefficient@RobotBody@GameClient@@QBEMXZ
0x100064a6:?GetBagID@CDropBagUI@@QAEKXZ
0x100148b2:?GetBasicSpeed@Robot@GameClient@@QBEMXZ
0x10004eda:?GetBattleField@BattleFieldManager@GameClient@@QAE_NKAAUBATTLE_FIELD@2@@Z
0x1000a105:?GetBattleFieldIntro@BattleFieldManager@GameClient@@QAEPBUBATTLE_FIELD_INFO@2@J_N@Z
0x10019c68:?GetBattleFields@BattleFieldManager@GameClient@@QAEXAAV?$vector@UBATTLE_FIELD@GameClient@@V?$allocator@UBATTLE_FIELD@GameClient@@@std@@@std@@@Z
0x1000c9aa:?GetBeLockedTargets@Robot@GameClient@@QBEABV?$vector@KV?$allocator@K@std@@@std@@XZ
0x1001810b:?GetBlendMode@DynamicLasers@@QAE?AW4BlendMode@@XZ
0x10013b5b:?GetBoneName@FRobotFramework@GameClient@@QAE?AV?$basic_string@DU?$char_traits@D@std@@V?$allocator@D@2@@std@@ABV34@@Z
0x10013e26:?GetBuffState@WorldObject@GameClient@@UBEKXZ
0x10016964:?GetCamDirOffset@Robot@GameClient@@QBEABVVector@@XZ
0x10003f58:?GetCamera@CameraHandler@@QAEPAVCamera@@_N@Z
0x1000aba0:?GetCameraCurDistance@Seat@GameClient@@QAEMXZ
0x10004318:?GetCameraDist@Seat@GameClient@@QAEMXZ
0x1000a434:?GetCameraEnable@ControlledEstab@GameClient@@QBE_NXZ
0x1001a212:?GetCameraOffset@Equip@GameClient@@QBEABVVector@@XZ
0x1000b3fc:?GetCameraPointMatrix@Establishment@GameClient@@QAE?AVMatrix@@K@Z
0x10008f6c:?GetCameraRot@Seat@GameClient@@QAEABVVector@@XZ
0x1001290e:?GetCapacitancePercent@Equip@GameClient@@QBEMXZ
0x10004fbb:?GetCenter@CRadarMapUI@@QAEXAAJ0@Z
0x10011b67:?GetCharacter@WorldObject@GameClient@@QBEPAVCharacter@2@XZ
0x10019e52:?GetCharacterID@WorldObject@GameClient@@QBEKXZ
0x10012d19:?GetChildEquipID@Equip@GameClient@@QBEKXZ
0x1000dd69:?GetChipInfo@Establishment@GameClient@@QAEXAAW4BASE_TYPE@@AAJ@Z
0x1001427c:?GetColor@DynamicLasers@@QAEKXZ
0x1000731a:?GetCombinRobot@Robot@GameClient@@QBEPAVCombinRobot@2@XZ
0x10003d2d:?GetCommando@GroupManager@GameClient@@QAEKXZ
0x10008661:?GetControlEnable@ControlledEstab@GameClient@@QBE_NXZ
0x10008c1a:?GetControlerID@Equip@GameClient@@QBEKXZ
0x10016f59:?GetController@EstabControllerManager@GameClient@@QAEPAVIEstabController@2@W4ESTAB_CONTROLLER@@@Z
0x10002b53:?GetCoords_ScreenFromWorld@CameraHandler@@QAE?AVVector@@V2@_N@Z
0x10005aa1:?GetCorpCmd@GroupManager@GameClient@@QAEXAAVVector@@AAV?$basic_string@DU?$char_traits@D@std@@V?$allocator@D@2@@std@@@Z
0x10014d17:?GetCorpMemberInfo@GroupManager@GameClient@@QAEPBUGroupMemberInfo@@K@Z
0x1000460b:?GetCorpName@GroupManager@GameClient@@QAE_NJAAV?$basic_string@DU?$char_traits@D@std@@V?$allocator@D@2@@std@@_N@Z
0x1001138d:?GetCurCapacitance@Equip@GameClient@@QBEMXZ
0x1000e64c:?GetCurCoreArmor@Robot@GameClient@@QBEMXZ
0x100167bb:?GetCurDriverState@ControlledEstab@GameClient@@QAEHXZ
0x100181b0:?GetCurEnergy@Booty@GameClient@@QAEMXZ
0x1000bbcc:?GetCurEquip@Robot@GameClient@@QBEPAVEquip@2@XZ
0x1000951b:?GetCurEstablishment@Robot@GameClient@@QBEKXZ
0x10002ef0:?GetCurFOV@Robot@GameClient@@QAEMXZ
0x1000b884:?GetCurInAreaFunction@Robot@GameClient@@QAEKXZ
0x1001349e:?GetCurNum@Equip@GameClient@@QAEHXZ
0x10013c9b:?GetCurPattern@Weapon@GameClient@@QBEPAVWeaponPattern@2@XZ
0x10011dd8:?GetCurPatternNum@Weapon@GameClient@@QBEHXZ
0x10016b44:?GetCurRobotReceive@CRobotRoofUI@@QAEKXZ
0x10015f37:?GetCurSkillNum@Robot@GameClient@@QBEHXZ
0x1000a71d:?GetCurSlotNum@Equip@GameClient@@QBEHXZ
0x10018647:?GetCurStadiaLevel@Robot@GameClient@@QBEHXZ
0x1001483f:?GetCurStartupTime@Skill@GameClient@@QBEMXZ
0x1000e8ea:?GetCurState@MapStateManager@@QAE?AW4MAP_STATE@@XZ
0x10014d49:?GetCurTargetID@Robot@GameClient@@QBEKXZ
0x10011081:?GetCurUsingEstab@Robot@GameClient@@QAEKXZ
0x10011cb1:?GetCurUsingFunction@Robot@GameClient@@QAEKXZ
0x100117a2:?GetCurVehicleReceive@CVehicleRoofUI@@QAEKXZ
0x10004b2e:?GetCurrentMapID@CBattleFieldDetailUI@@QAEJXZ
0x1000662c:?GetCurrentNation@WorldObject@GameClient@@QBE?BW4NATION_TYPE@@XZ
0x1000dffd:?GetCurrentPosition@WorldObject@GameClient@@QBEABVVector@@XZ
0x1000551a:?GetCurrentRotation@WorldObject@GameClient@@QBEABVMatrix@@XZ
0x1000307b:?GetCurrentVelocity@AircraftVehicle@GameClient@@UAE?AVVector@@XZ
0x10012058:?GetCurrentVelocity@ControlledEstab@GameClient@@UAE?AVVector@@XZ
0x10016856:?GetCurrentVelocity@Robot@GameClient@@UAE?AVVector@@XZ
0x1000d9a4:?GetCurrentVelocity@WorldObject@GameClient@@UAE?AVVector@@XZ
0x1001690a:?GetCurrrentTransState@ControlledEstab@GameClient@@QAEPAVCtlEstabTransState@2@XZ
0x10014150:?GetCursorVisible@Game@@QAE_NXZ
0x100015b4:?GetDamageUnit@DamageManager@GameClient@@QAEPAVDamageUnit@2@K@Z
0x1000a330:?GetDetectRadius@RobotCore@GameClient@@QBEHXZ
0x1000b262:?GetDiveTime@RobotBody@GameClient@@QBEHXZ
0x10006938:?GetDriver@ControlledEstab@GameClient@@QAEPAVRobot@2@XZ
0x10008e6d:?GetDriverSeat@ControlledEstab@GameClient@@QAEPAVSeat@2@XZ
0x100158d9:?GetDriverSeat@SuspendVehicle@GameClient@@QAEPAVSeat@2@XZ
0x10004d59:?GetDummyPoint@Establishment@GameClient@@QAEPAUModelFrame@@ABV?$basic_string@DU?$char_traits@D@std@@V?$allocator@D@2@@std@@@Z
0x1000eb60:?GetDummyPointMatrix@Establishment@GameClient@@QAE?AVMatrix@@ABV?$basic_string@DU?$char_traits@D@std@@V?$allocator@D@2@@std@@@Z
0x10016004:?GetEffectArea@Func_Receive@GameClient@@QAEABVVector@@XZ
0x10001eb0:?GetEffectDim@Func_Sheild@GameClient@@QBEABVVector@@XZ
0x100017ad:?GetEffectHeight@Func_Sheild@GameClient@@QBEABMXZ
0x100149cf:?GetEffectRadio@Func_Sheild@GameClient@@QBEABMXZ
0x100132e1:?GetEffectShape@Func_Sheild@GameClient@@QBEABW4EffectShape@@XZ
0x10007766:?GetEnergy@Robot@GameClient@@QBEMXZ
0x10011a2c:?GetEnergyCount@Func_Power@GameClient@@QAEMXZ
0x10007ce8:?GetEquip@Robot@GameClient@@QAEPAVEquip@2@I@Z
0x100197b3:?GetEquip@Seat@GameClient@@QAEPAVEquip@2@J@Z
0x1001a299:?GetEquipCount@Seat@GameClient@@QAEJXZ
0x10011a9a:?GetEquipSubFlags@FEquip@GameClient@@UBEIXZ
0x100190ec:?GetEquipSubFlags@FItem@GameClient@@UBEIXZ
0x10006aff:?GetEquipSubFlags@FWeapon@GameClient@@UBEIXZ
0x10006bcc:?GetEquips@Booty@GameClient@@QBEABV?$vector@UEquipInfo@Booty@GameClient@@V?$allocator@UEquipInfo@Booty@GameClient@@@std@@@std@@XZ
0x10016adb:?GetEstabCount@EstabManager@GameClient@@QAEJXZ
0x1000653c:?GetEstabEnergy@Establishment@GameClient@@QAENXZ
0x10004787:?GetEstabID@HookEstablishment@@QBEHXZ
0x1000dafd:?GetEstablishment@EstabManager@GameClient@@QAEPAVEstablishment@2@K@Z
0x10008260:?GetExEnergy@Robot@GameClient@@QBEMXZ
0x10011e5f:?GetExploit@Robot@GameClient@@QAEHXZ
0x10012c79:?GetEyesLocation@Robot@GameClient@@QAEABVVector@@XZ
0x1000a1be:?GetEyesRotation@Robot@GameClient@@QBEABVMatrix@@XZ
0x1000a54c:?GetFaceBooty@Robot@GameClient@@QAEPAVBooty@2@XZ
0x10016c48:?GetFade@DynamicLasers@@QAEXAAM0@Z
0x100051d7:?GetFlyCoefficient@RobotBody@GameClient@@QBEMXZ
0x1000d4cc:?GetFlyweight@DataObject@GameClient@@QBEPAVFlyweight@2@XZ
0x10012c29:?GetFlyweight@FlyweightManager@GameClient@@QAEPAVFlyweight@2@K@Z
0x1001789b:?GetFlyweight@FlyweightManager@GameClient@@QAEPAVFlyweight@2@V?$basic_string@DU?$char_traits@D@std@@V?$allocator@D@2@@std@@@Z
0x1001a3fc:?GetFlyweightFilename@Flyweight@GameClient@@QAE?AV?$basic_string@DU?$char_traits@D@std@@V?$allocator@D@2@@std@@XZ
0x10018985:?GetFlyweightID@DataObject@GameClient@@QBEKXZ
0x10018db3:?GetFlyweightID@Flyweight@GameClient@@QBEKXZ
0x1000ab82:?GetFlyweightID@ProductManager@GameClient@@QAEXKAAV?$vector@KV?$allocator@K@std@@@std@@@Z
0x10008783:?GetFlyweightID@WorldObject@GameClient@@QBEKXZ
0x1000c289:?GetFormState@Robot@GameClient@@QBE?AW4RobotForm@12@XZ
0x10011437:?GetFrameworkModelName@FRobotFramework@GameClient@@QBEABV?$basic_string@DU?$char_traits@D@std@@V?$allocator@D@2@@std@@XZ
0x10013bbf:?GetFreeCamera@Seat@GameClient@@QAE_NXZ
0x10007d47:?GetFreeCameraRot@Seat@GameClient@@QAEXAAVVector@@@Z
0x10008ea4:?GetFreeStockCount@Func_Store@GameClient@@QAEJK@Z
0x100079aa:?GetFuncPowerName@RobotCore@GameClient@@QBEABV?$basic_string@DU?$char_traits@D@std@@V?$allocator@D@2@@std@@XZ
0x10006947:?GetFunction@FuncManager@GameClient@@QAEPAVFunction@2@K@Z
0x10011f3b:?GetFunctionByType@Establishment@GameClient@@QAEPAVFunction@2@W4FUNCTION_TYPE@@@Z
0x10016a27:?GetFunctionByType@FuncManager@GameClient@@QAEXW4FUNCTION_TYPE@@AAV?$vector@PAVFunction@GameClient@@V?$allocator@PAVFunction@GameClient@@@std@@@std@@@Z
0x100143e9:?GetFunctionID@Function@GameClient@@QAEKXZ
0x100021bc:?GetFunctionType@Function@GameClient@@QAE?AW4FUNCTION_TYPE@@XZ
0x10015f28:?GetFwtCtlEstab@ControlledEstab@GameClient@@QBEPAVFControlledEstab@2@XZ
0x10004665:?GetGroup@GroupManager@GameClient@@QAEPBVGroup@2@K@Z
0x1000fa92:?GetHasInsideMap@CRadarMapUI@@QAE_NXZ
0x1000ce46:?GetHeadMsg@AdapterActor@GameClient@@QAEPAVHeadingMessage@2@XZ
0x10009f2f:?GetHideOptics@RobotArmor@GameClient@@QBEHXZ
0x1000ea70:?GetHideRadar@RobotArmor@GameClient@@QBEHXZ
0x10017a49:?GetHyperEnergy@Establishment@GameClient@@QAENXZ
0x100186dd:?GetHyperEnergyCount@Func_Power@GameClient@@QAEMXZ
0x1000841d:?GetImageName@Flyweight@GameClient@@QBEABV?$basic_string@DU?$char_traits@D@std@@V?$allocator@D@2@@std@@XZ
0x10004e76:?GetImpluseAccel@ControlledEstab@GameClient@@QAEMXZ
0x1001818d:?GetInAreaEstab@Robot@GameClient@@QAEKXZ
0x1000ea2a:?GetIndensity@Effect_LightDizzy@@QAEMXZ
0x10016e50:?GetIntensity@Effect_Base@@QAEMXZ
0x100188c7:?GetJumpSpeed@RobotBody@GameClient@@QBEHXZ
0x100044ee:?GetLastHandle@AdapterActor@GameClient@@QAE_NAAH@Z
0x1001a230:?GetLeadingAnimName@Skill@GameClient@@QAEABV?$basic_string@DU?$char_traits@D@std@@V?$allocator@D@2@@std@@XZ
0x10014b28:?GetLevel@CRadarMapUI@@QAEJXZ
0x10004976:?GetLocalCharacterRef@WorldObject@GameClient@@QBEIXZ
0x1001ac0d:?GetLocalRotation@Seat@GameClient@@QAE?AVVector@@XZ
0x100193fd:?GetLocation@DamageEquip@GameClient@@UBE?AVVector@@XZ
0x1000c67b:?GetLocation@Establishment@GameClient@@UBE?AVVector@@XZ
0x10005718:?GetLocation@Robot@GameClient@@UBE?AVVector@@XZ
0x10001faf:?GetLock@CEstablishmentUI@@QAEXAAJ0@Z
0x10015d34:?GetLockType@Establishment@GameClient@@QAEJXZ
0x10010a0f:?GetMapControl@CRadarMapUI@@QAEPAVCTYRadar@@XZ
0x100197d6:?GetMapState@CRadarMapUI@@QAE?AW4MAP_STATE@@XZ
0x10008715:?GetMass@RobotArmor@GameClient@@UBEHXZ
0x100039c7:?GetMass@RobotBody@GameClient@@UBEHXZ
0x1001899e:?GetMass@RobotCore@GameClient@@UBEHXZ
0x1000eb10:?GetMass@SystemPart@GameClient@@QBEHXZ
0x100137be:?GetMaxAngleTurnU@RobotBody@GameClient@@QBEHXZ
0x100032d3:?GetMaxAngleTurnV@RobotBody@GameClient@@QBEHXZ
0x10019c09:?GetMaxCoreArmor@RobotCore@GameClient@@QBEHXZ
0x1000e3f4:?GetMaxEnergy@Booty@GameClient@@QAEMXZ
0x1000ded1:?GetMaxEnergy@Func_Power@GameClient@@QAEMXZ
0x10005f8d:?GetMaxEnergy@Robot@GameClient@@QBEMXZ
0x10004d09:?GetMaxExEnergy@Robot@GameClient@@QBEMXZ
0x10006d43:?GetMaxHyperEnergy@Func_Power@GameClient@@QAEMXZ
0x100183bd:?GetMaxMass@RobotBody@GameClient@@QBEHXZ
0x10014fe7:?GetMaxNodes@DynamicLasers@@QAEIXZ
0x10017eef:?GetMaxPower@RobotCore@GameClient@@QBEHXZ
0x10015edd:?GetMaxStadiaLevel@Robot@GameClient@@QBEHXZ
0x100137ff:?GetMaxStartupTime@Skill@GameClient@@QBEMXZ
0x100189a3:?GetMaxViewDistance@RobotBody@GameClient@@QBEHXZ
0x10007630:?GetMaxWatchDistance@RobotBody@GameClient@@QBEHXZ
0x10010c26:?GetMember@Group@GameClient@@QBEABV?$vector@UGroupMember@GameClient@@V?$allocator@UGroupMember@GameClient@@@std@@@std@@XZ
0x1000d05d:?GetMessageA@ChatManager@GameClient@@QAEXAAV?$vector@UChatMessage@GameClient@@V?$allocator@UChatMessage@GameClient@@@std@@@std@@J@Z
0x10017062:?GetMovementState@Robot@GameClient@@QBE?AW4RobotMovement@12@XZ
0x10001c44:?GetNodeLife@DynamicLasers@@QAEKXZ
0x10003567:?GetNodeMatrix@AdapterActor@GameClient@@UAE_NABV?$basic_string@DU?$char_traits@D@std@@V?$allocator@D@2@@std@@AAVMatrix@@_N@Z
0x1000a420:?GetNodeMatrix@Equip@GameClient@@UAE_NABV?$basic_string@DU?$char_traits@D@std@@V?$allocator@D@2@@std@@AAVMatrix@@_N@Z
0x10011a81:?GetNodeMatrix@Establishment@GameClient@@UAE_NABV?$basic_string@DU?$char_traits@D@std@@V?$allocator@D@2@@std@@AAVMatrix@@_N@Z
0x1000e85e:?GetNodeMatrix@Robot@GameClient@@UAE_NABV?$basic_string@DU?$char_traits@D@std@@V?$allocator@D@2@@std@@AAVMatrix@@_N@Z
0x1000a7a4:?GetNodeMatrix@WorldObject@GameClient@@UAE_NABV?$basic_string@DU?$char_traits@D@std@@V?$allocator@D@2@@std@@AAVMatrix@@_N@Z
0x10004dea:?GetNormalModel@ControlledEstab@GameClient@@QAEPAVModel@@XZ
0x10017535:?GetNxPedrailVehicle@PedrailVehicle@GameClient@@QAEPAVNxPedrailVehicle@@XZ
0x10003779:?GetNxSuspendVehicle@SuspendVehicle@GameClient@@QAEPAVNxSuspendVehicle@@XZ
0x100140a6:?GetNxWheelVehicle@WheelVehicle@GameClient@@QAEPAVNxWheelVehicle@@XZ
0x1000216c:?GetObserver@Interactable@GameClient@@QAEPAVInteractableObserver@2@XZ
0x100017cb:?GetOffsetSteadyCoefficient@Robot@GameClient@@QBEMXZ
0x1000a312:?GetOffsetSteadyCoefficient@RobotCore@GameClient@@QBEMXZ
0x1000ae39:?GetOwner@Function@GameClient@@QAEPAVWorldObject@2@XZ
0x1000f358:?GetOwner@Seat@GameClient@@QAEPAVEstablishment@2@XZ
0x100156c7:?GetOwnerEstablishment@Equip@GameClient@@QBEPAVEstablishment@2@XZ
0x10002757:?GetOwnerID@DamageEquip@GameClient@@QBEKXZ
0x1000aa6a:?GetOwnerShip@Skill@GameClient@@QBEPAVWorldObject@2@XZ
0x10001c35:?GetOwnerShip@SystemPart@GameClient@@QBEPAVRobot@2@XZ
0x1001253f:?GetParent@Establishment@GameClient@@QAEPAV12@XZ
0x10007c7a:?GetParentAA@AdapterActor@GameClient@@QAEPAV12@XZ
0x10013746:?GetPartModel@CombinActor@GameClient@@QAEPAVModel@@ABV?$basic_string@DU?$char_traits@D@std@@V?$allocator@D@2@@std@@0@Z
0x100045cf:?GetPartModelName@FRobotArmor@GameClient@@QAE?AV?$basic_string@DU?$char_traits@D@std@@V?$allocator@D@2@@std@@ABV34@@Z
0x100097dc:?GetPartModelName@FRobotBody@GameClient@@QAE?AV?$basic_string@DU?$char_traits@D@std@@V?$allocator@D@2@@std@@ABV34@@Z
0x1000a0b5:?GetPass@CPasswordInputUI@@QAEJXZ
0x10015f5f:?GetPlusinCapability@WorldObject@GameClient@@QBEKXZ
0x10006e24:?GetPostureState@Robot@GameClient@@QBE?AW4RobotPosture@12@XZ
0x1000f98e:?GetPower@RobotArmor@GameClient@@UBEHXZ
0x10013da4:?GetPower@RobotBody@GameClient@@UBEHXZ
0x1000235b:?GetPower@RobotCore@GameClient@@UBEHXZ
0x10003e6d:?GetPower@SystemPart@GameClient@@QBEHXZ
0x10018def:?GetPowerModuleType@Func_Power@GameClient@@QAE?AW4POWERMODULE_TYPE@12@XZ
0x100101a9:?GetPrimarySlotCount@Robot@GameClient@@QBEHXZ
0x100061c7:?GetPrimarySlotCount@RobotArmor@GameClient@@QBEHXZ
0x1001a451:?GetPrimarySlotCount@RobotBody@GameClient@@QBEHXZ
0x10008427:?GetProductID@RobotArmor@GameClient@@UBEKXZ
0x10010be5:?GetProductID@RobotBody@GameClient@@UBEKXZ
0x10006f0a:?GetProductID@RobotCore@GameClient@@UBEKXZ
0x100018ed:?GetProductID@SystemPart@GameClient@@UBEKXZ
0x1001241d:?GetProductInfo@ProductManager@GameClient@@QAEPAVFProductInfo@2@K@Z
0x100026e4:?GetProductList@Func_Receive@GameClient@@QAEXAAV?$vector@KV?$allocator@K@std@@@std@@@Z
0x100049cb:?GetProductName@RobotArmor@GameClient@@UBE?AV?$basic_string@DU?$char_traits@D@std@@V?$allocator@D@2@@std@@XZ
0x1000e782:?GetProductName@RobotBody@GameClient@@UBE?AV?$basic_string@DU?$char_traits@D@std@@V?$allocator@D@2@@std@@XZ
0x10017f5d:?GetProductName@RobotCore@GameClient@@UBE?AV?$basic_string@DU?$char_traits@D@std@@V?$allocator@D@2@@std@@XZ
0x10005056:?GetProductName@SystemPart@GameClient@@UBE?AV?$basic_string@DU?$char_traits@D@std@@V?$allocator@D@2@@std@@XZ
0x10006ff5:?GetProductors@LogicFactory@GameClient@@QAEXAAV?$vector@V?$basic_string@DU?$char_traits@D@std@@V?$allocator@D@2@@std@@V?$allocator@V?$basic_string@DU?$char_traits@D@std@@V?$allocator@D@2@@std@@@2@@std@@@Z
0x10006c8a:?GetRadirRange@RobotArmor@GameClient@@QBEHXZ
0x1000b78a:?GetRecoilSteadyCoefficient@Robot@GameClient@@QBEMXZ
0x1001202b:?GetRecoilSteadyCoefficient@RobotBody@GameClient@@QBEMXZ
0x10001082:?GetRecoverArmor@RobotBody@GameClient@@QBEHXZ
0x1000d62f:?GetRecoverArmorUseExenergy@RobotBody@GameClient@@QBEHXZ
0x10001f05:?GetRepalceEquipID@Equip@GameClient@@QBEKXZ
0x1001133d:?GetReplaceSlot@Equip@GameClient@@QBEHXZ
0x1000ed13:?GetRobot@RobotManager@GameClient@@QAEPAVRobot@2@J@Z
0x10010721:?GetRobotArmor@Robot@GameClient@@QBEPAVRobotArmor@2@XZ
0x10006ffa:?GetRobotArmorType@RobotArmor@GameClient@@QBE?AW4RobotArmorType@@XZ
0x1000d986:?GetRobotBody@Robot@GameClient@@QBEPAVRobotBody@2@XZ
0x1000a99d:?GetRobotCore@Robot@GameClient@@QBEPAVRobotCore@2@XZ
0x1001091f:?GetRobotCount@RobotManager@GameClient@@QBEIXZ
0x1001592e:?GetRobotID@Seat@GameClient@@QAEKXZ
0x100164d2:?GetRobotType@Robot@GameClient@@QBE?AW4ROBOT_TYPE@@XZ
0x1000a8f3:?GetRobotType@RobotBody@GameClient@@QBE?AW4ROBOT_TYPE@@XZ
0x1000778e:?GetRotation@DamageEquip@GameClient@@UBE?AVMatrix@@XZ
0x1000e0b1:?GetRotation@Establishment@GameClient@@UBE?AVMatrix@@XZ
0x10002d51:?GetRotation@Robot@GameClient@@UBE?AVMatrix@@XZ
0x100179d6:?GetRotationAccel@Seat@GameClient@@QAE?AVVector@@XZ
0x1000a551:?GetRotationSpeed@Seat@GameClient@@QAE?AVVector@@XZ
0x1000fdd0:?GetRunCoefficient@RobotBody@GameClient@@QBEMXZ
0x100117de:?GetScale@Effect_Base@@QAEMXZ
0x100146b9:?GetSeat@EstabManager@GameClient@@QAEPAVSeat@2@K@Z
0x1000290a:?GetSeat@Establishment@GameClient@@QAEPAVSeat@2@H@Z
0x1000d36e:?GetSeatCount@Establishment@GameClient@@QAEJXZ
0x100149bb:?GetSeatID@Seat@GameClient@@QAEKXZ
0x10012a58:?GetSeatIndex@Seat@GameClient@@QAEJXZ
0x10002d56:?GetSeatNum@Robot@GameClient@@QBEHXZ
0x10016c52:?GetSecondarySlotCount@Robot@GameClient@@QBEHXZ
0x1000c02c:?GetSecondarySlotCount@RobotArmor@GameClient@@QBEHXZ
0x1001589d:?GetSecondarySlotCount@RobotBody@GameClient@@QBEHXZ
0x1000ef48:?GetShowName@Establishment@GameClient@@QAE?AV?$basic_string@DU?$char_traits@D@std@@V?$allocator@D@2@@std@@XZ
0x1000b203:?GetSkill@SkillManager@GameClient@@QAEPAVSkill@2@K@Z
0x10017850:?GetSkillCount@SkillManager@GameClient@@QBEIXZ
0x10008fb2:?GetSkillID@Robot@GameClient@@QBEKH@Z
0x10004fed:?GetSkillID@Skill@GameClient@@QBEJXZ
0x10016c7a:?GetSkillState@Skill@GameClient@@QBE?AW4SkillState@12@XZ
0x1000aae7:?GetSquatCoefficient@RobotBody@GameClient@@QBEMXZ
0x10005204:?GetStadiaLevel@RobotCore@GameClient@@QBEHXZ
0x1001902e:?GetStartEnd@Effect_Base@@QAEXAAVVector@@0@Z
0x10015bfe:?GetStartupAnimName@Skill@GameClient@@QAEABV?$basic_string@DU?$char_traits@D@std@@V?$allocator@D@2@@std@@XZ
0x100132c8:?GetStateActor@Robot@GameClient@@QAEPAVActor@@XZ
0x10014619:?GetStock@Func_Receive@GameClient@@QAEJK@Z
0x10001e1f:?GetStockCount@Func_Store@GameClient@@QAEJK@Z
0x1000648d:?GetStockList@Func_Store@GameClient@@QAE?AV?$vector@UStockInfo@GameClient@@V?$allocator@UStockInfo@GameClient@@@std@@@std@@XZ
0x1001226a:?GetStrafeCoefficient@RobotBody@GameClient@@QBEMXZ
0x10012904:?GetSurvivalState@Robot@GameClient@@QBE?AW4RobotSurvival@12@XZ
0x1000bc80:?GetSystemPart@EquipManager@GameClient@@QAEPAVSystemPart@2@J@Z
0x10018d54:?GetSystemPartCount@EquipManager@GameClient@@QBEIXZ
0x1000f1ff:?GetSystemPartType@SystemPart@GameClient@@QBEHXZ
0x1000b29e:?GetTargetType@WorldObject@GameClient@@QBE?AW4TargetType@@XZ
0x1001a262:?GetTimeCount@Robot@GameClient@@QBEABUTimeCount@12@XZ
0x10007040:?GetTransState@ControlledEstab@GameClient@@QAEPAVCtlEstabTransState@2@W4TransStateType@32@@Z
0x10008ecc:?GetTypeName@ProductManager@GameClient@@QAE?AV?$basic_string@_WU?$char_traits@_W@std@@V?$allocator@_W@2@@std@@KK@Z
0x1000c838:?GetUpSpeed@Robot@GameClient@@QBEMXZ
0x10003300:?GetUsableDistance@Equip@GameClient@@UBEMXZ
0x100079eb:?GetUsableDistance@Item@GameClient@@UBEMXZ
0x100110c2:?GetUsableDistance@Weapon@GameClient@@UBEMXZ
0x10010a32:?GetUser@LocalUserManager@GameClient@@QAEPAVLocalUser@2@K@Z
0x1000b4e2:?GetUserByDirectToken@LocalUserManager@GameClient@@QAEPAVLocalUser@2@I@Z
0x1001055a:?GetUserByIndex@LocalUserManager@GameClient@@QAEPAVLocalUser@2@I@Z
0x1000ea25:?GetUserCount@LocalUserManager@GameClient@@QAEIXZ
0x1000399a:?GetVehicle@ControlledEstab@GameClient@@QAEPAVNxRaycastVehicle@2@XZ
0x1000b578:?GetVelocity@DamageEquip@GameClient@@QBEABVVector@@XZ
0x1000907f:?GetVelocity@Robot@GameClient@@QBEABVVector@@XZ
0x10018278:?GetVersionID@RobotArmor@GameClient@@UBEKXZ
0x1000fd30:?GetVersionID@RobotBody@GameClient@@UBEKXZ
0x100030e4:?GetVersionID@RobotCore@GameClient@@UBEKXZ
0x1000573b:?GetVersionID@SystemPart@GameClient@@UBEKXZ
0x10015578:?GetVersionName@RobotArmor@GameClient@@UBE?AV?$basic_string@DU?$char_traits@D@std@@V?$allocator@D@2@@std@@XZ
0x1000a63c:?GetVersionName@RobotBody@GameClient@@UBE?AV?$basic_string@DU?$char_traits@D@std@@V?$allocator@D@2@@std@@XZ
0x10012d0f:?GetVersionName@RobotCore@GameClient@@UBE?AV?$basic_string@DU?$char_traits@D@std@@V?$allocator@D@2@@std@@XZ
0x1000c478:?GetVersionName@SystemPart@GameClient@@UBE?AV?$basic_string@DU?$char_traits@D@std@@V?$allocator@D@2@@std@@XZ
0x10008274:?GetVisible@Effect_Base@@QAE_NXZ
0x100124e5:?GetWaitingTeamChat@GUIConsole@@QAE?AV?$basic_string@DU?$char_traits@D@std@@V?$allocator@D@2@@std@@XZ
0x10005a33:?GetWidth@DynamicLasers@@QAEMXZ
0x1000b609:?GetWorldBBox@CRadarMapUI@@QAEABVBBox@@XZ
0x100012f8:?GetWorldBBox@LightBeam@@UAE?AVBBox@@XZ
0x10009f6b:?GetWorldBBox@ParticleSystem@@UAE?AVBBox@@XZ
0x10018219:?GetWorldBBox@TraceLineSystem@@UAE?AVBBox@@XZ
0x1000d382:?GetWorldObjectID@WorldObject@GameClient@@QBEKXZ
0x10005d1c:?GroupMemberUIEvent@CGroupMemberUI@@CGXPAVCREDialog@@IHPAVCREControl@@IJ@Z
0x10013abb:?GroupQuckCallUIEvent@CGroupQuickCallUI@@CGXPAVCREDialog@@IHPAVCREControl@@IJ@Z
0x10012bca:?HallMapUIEvent@CHallMapUI@@CGXPAVCREDialog@@IHPAVCREControl@@IJ@Z
0x1000352b:?HandleMessages@Game@@QAEJPAUHWND__@@IIJ@Z
0x10013d13:?HasAnyGUIopen@Game@@QAE_NXZ
0x10008067:?HasBuffState@WorldObject@GameClient@@UAE_NW4BUFF_STATE@@@Z
0x1001a730:?HasChip@Establishment@GameClient@@QAE_NXZ
0x10008e54:?HasPlusinCapability@WorldObject@GameClient@@QBE_NW4PLUSIN_CAPABILITY@@@Z
0x1000de7c:?HasState@Robot@GameClient@@QAE_NW4RobotOtherState@12@@Z
0x1000c1f8:?Hide@CBattleFieldDetailUI@@QAEXXZ
0x100174ef:?Hide@CDropBagUI@@QAEXXZ
0x10009bb0:?Hide@CMiniWorldMapUI@@QAEXXZ
0x1000ee62:?Hide@Establishment@GameClient@@QAEXXZ
0x10009b38:?Hide@GUIConsole@@QAEXXZ
0x10014aa1:?HideMember@CGroupMemberUI@@QAEXXZ
0x1000e7d7:?ImbileEnergy@Booty@GameClient@@QAEX_N@Z
0x10008ee5:?ImbileEnergyRes@CDropBagUI@@QAEX_N@Z
0x10014132:?InCamFrustum@AdapterActor@GameClient@@QAE_NXZ
0x10009b56:?InitComponent@CAlarmMessageUI@@QAEXXZ
0x10003184:?InitComponent@CBattleFieldDetailUI@@QAEXXZ
0x10007928:?InitComponent@CChatInputUI@@QAEXXZ
0x10003bf7:?InitComponent@CChatMessageUI@@QAEXXZ
0x10006997:?InitComponent@CControlCenterListUI@@QAEXXZ
0x10007c7f:?InitComponent@CDropBagUI@@QAEXXZ
0x1000656e:?InitComponent@CEstablishmentUI@@QAEXXZ
0x1000a326:?InitComponent@CGroupMemberUI@@QAEXXZ
0x1000d98b:?InitComponent@CGroupQuickCallUI@@QAEXXZ
0x10019529:?InitComponent@CHallMapUI@@QAEXXZ
0x1000be79:?InitComponent@CKillingInfoUI@@QAEXXZ
0x1000d120:?InitComponent@CLoginUI@@QAEXXZ
0x10003008:?InitComponent@CMiniWorldMapUI@@QAEXXZ
0x1000cc8e:?InitComponent@COccupyEstabUI@@QAEXXZ
0x100023f6:?InitComponent@CPasswordInputUI@@QAEXXZ
0x10010e15:?InitComponent@CPowerTransportUI@@QAEXXZ
0x1000bb90:?InitComponent@CRadarMapUI@@QAEXXZ
0x10011f6d:?InitComponent@CRobotRoofUI@@AAEXXZ
0x100140ec:?InitComponent@CStatusUI@@AAEXXZ
0x100136b5:?InitComponent@CVehicleRoofUI@@QAEXXZ
0x10013e6c:?InitComponent@CWaitQueueUI@@QAEXXZ
0x1000ff33:?InitController@EstabControllerManager@GameClient@@IAEXXZ
0x1000fc09:?InitParticlePhysics@PhysicsParticles@@UAEXAAVParticle@@@Z
0x100158d4:?InitPhysicsGroup@Game@@QAEXXZ
0x10010e97:?InitUI@Game@@QAEXXZ
0x10011a59:?Initialize@AuraManager@GameClient@@QAE_NXZ
0x10015d8e:?Initialize@BattleFieldManager@GameClient@@UAE_NXZ
0x100097fa:?Initialize@CAlarmMessageUI@@QAEXXZ
0x10014a38:?Initialize@CBattleFieldDetailUI@@QAEXXZ
0x10008de1:?Initialize@CChatInputUI@@QAEXXZ
0x10018a84:?Initialize@CChatMessageUI@@QAEXXZ
0x1000135c:?Initialize@CControlCenterListUI@@QAEXXZ
0x10016b0d:?Initialize@CDropBagUI@@QAEXXZ
0x100091d8:?Initialize@CEstablishmentUI@@QAEXXZ
0x1000ca63:?Initialize@CGroupMemberUI@@QAEXXZ
0x1000cfb3:?Initialize@CGroupQuickCallUI@@QAEXXZ
0x10009165:?Initialize@CHallMapUI@@QAEXXZ
0x10013b8d:?Initialize@CKillingInfoUI@@QAEXXZ
0x10012f85:?Initialize@CLoginUI@@QAEXXZ
0x1001893f:?Initialize@CMiniWorldMapUI@@QAEXXZ
0x100083af:?Initialize@COccupyEstabUI@@QAEXXZ
0x100148fd:?Initialize@CPasswordInputUI@@QAEXXZ
0x10002446:?Initialize@CPowerTransportUI@@QAEXXZ
0x10010776:?Initialize@CRadarMapUI@@QAEXXZ
0x10001f5f:?Initialize@CRobotRoofUI@@AAEXXZ
0x1000d436:?Initialize@CStatusUI@@AAEXXZ
0x100071e9:?Initialize@CVehicleRoofUI@@QAEXXZ
0x1000d50d:?Initialize@CWaitQueueUI@@QAEXXZ
0x10017300:?Initialize@DamageManager@GameClient@@QAE_NXZ
0x1000c3fb:?Initialize@DynamicLasers@@IAEXXZ
0x10001d4d:?Initialize@EquipManager@GameClient@@QAE_NXZ
0x10004557:?Initialize@FlyweightManager@GameClient@@QAE_NXZ
0x10015131:?Initialize@Func_Power@GameClient@@UAEXXZ
0x1000e8a9:?Initialize@Func_Receive@GameClient@@UAEXXZ
0x100197c2:?Initialize@Func_Sheild@GameClient@@UAEXXZ
0x100108d9:?Initialize@Function@GameClient@@UAEXXZ
0x10017fb2:?Initialize@GUIConsole@@QAEXXZ
0x1000622b:?Initialize@Game@@QAEXPAUHWND__@@0PAUHINSTANCE__@@V?$basic_string@DU?$char_traits@D@std@@V?$allocator@D@2@@std@@@Z
0x1001abcc:?Initialize@HUDSystem@@QAEXXZ
0x1000dac6:?Initialize@LocalUserManager@GameClient@@UAE_NXZ
0x10015d7f:?Initialize@RobotManager@GameClient@@QAE_NXZ
0x10008756:?Initialize@SkillManager@GameClient@@QAE_NXZ
0x1000e133:?InitializeMembers@ParticleTrail@@IAEXXZ
0x10007b1c:?InputEnergy@Func_Power@GameClient@@QAEMMM@Z
0x10012837:?Instance@AuraManager@GameClient@@SAPAV12@XZ
0x10009ae8:?Instance@BattleFieldManager@GameClient@@SAPAV12@XZ
0x1000a097:?Instance@CameraHandler@@SAPAV1@XZ
0x10003bf2:?Instance@ChatManager@GameClient@@SAPAV12@XZ
0x100135f2:?Instance@DamageManager@GameClient@@SAPAV12@XZ
0x1001344e:?Instance@EquipManager@GameClient@@SAPAV12@XZ
0x10005803:?Instance@EstabControllerManager@GameClient@@SAPAV12@XZ
0x1000adc6:?Instance@EstabManager@GameClient@@SAPAV12@XZ
0x1000aff6:?Instance@FlyweightManager@GameClient@@SAPAV12@XZ
0x1000a506:?Instance@FuncManager@GameClient@@SAPAV12@XZ
0x1000516e:?Instance@Game@@SAPAV1@XZ
0x10017c29:?Instance@GroupManager@GameClient@@SAPAV12@XZ
0x10008e72:?Instance@HUDSystem@@SAPAV1@XZ
0x10001087:?Instance@LocalUserManager@GameClient@@SAPAV12@XZ
0x1000e944:?Instance@LogicFactory@GameClient@@SAPAV12@XZ
0x10010389:?Instance@ProductManager@GameClient@@SAPAV12@XZ
0x1000a3a8:?Instance@RobotManager@GameClient@@SAPAV12@XZ
0x1000f885:?Instance@SkillManager@GameClient@@SAPAV12@XZ
0x10010bae:?Instance@SoundMgr@@SAPAV1@XZ
0x100064b5:?IntoDefenceZone@Robot@GameClient@@QAEXKW4NATION_TYPE@@@Z
0x1000a939:?IntoEstablishment@Robot@GameClient@@QAEXKH@Z
0x10004fb6:?IsAlive@ParticleTrail@@QAEX_N@Z
0x10009f43:?IsAutoEquip@RobotBody@GameClient@@QBE_NXZ
0x10004548:?IsAvailable@Establishment@GameClient@@UAE_NXZ
0x10013cf0:?IsAvailable@Function@GameClient@@QAE_NXZ
0x10009d63:?IsBeLocked@WorldObject@GameClient@@QBE_NXZ
0x10008120:?IsChatLineOn@GUIConsole@@QAE_NXZ
0x10003864:?IsContract@Robot@GameClient@@QBE_NI@Z
0x1000a3d0:?IsDamaged@Establishment@GameClient@@UAE_NXZ
0x10008a17:?IsEquipMatchingRobotSystem@CDropBagUI@@IAE_NK@Z
0x100131c9:?IsEquipMatchingRobotSystem@CRobotRoofUI@@AAE_NK@Z
0x1000cca7:?IsFPV@Robot@GameClient@@QBE_NXZ
0x1000af83:?IsForm@Robot@GameClient@@QBE_NW4RobotForm@12@@Z
0x1000ddbe:?IsImbileEnergy@Booty@GameClient@@QAE_NXZ
0x1001563b:?IsInGame@Game@@IAE_NXZ
0x1000564b:?IsInGroup@Group@GameClient@@QBE_NK@Z
0x10013660:?IsInitiative@Aura@GameClient@@QBE_NXZ
0x10005dcb:?IsInside@CRadarMapUI@@QAE_NXZ
0x10006a19:?IsLocal@WorldObject@GameClient@@QBE_NXZ
0x100103c5:?IsMatchArmor@Robot@GameClient@@SA_NPAVFSystemPart@2@0@Z
0x100103c0:?IsMatchEquip@Robot@GameClient@@SA_NPAVFSystemPart@2@0@Z
0x1000e7b4:?IsMatching@Robot@GameClient@@SA_NABV?$vector@PAVFSystemPart@GameClient@@V?$allocator@PAVFSystemPart@GameClient@@@std@@@std@@PAVFSystemPart@2@@Z
0x100100eb:?IsMovement@Robot@GameClient@@QBE_NW4RobotMovement@12@@Z
0x10008e90:?IsOn@GUIConsole@@QAE_NXZ
0x1000a53d:?IsOpen@Booty@GameClient@@QBE_NXZ
0x1000a4e3:?IsOrderAvailable@Func_Store@GameClient@@QAE_NABV?$vector@UStockInfo@GameClient@@V?$allocator@UStockInfo@GameClient@@@std@@@std@@@Z
0x10015ad7:?IsPosture@Robot@GameClient@@QBE_NW4RobotPosture@12@@Z
0x100070f9:?IsRobotInside@CRadarMapUI@@QAE_NXZ
0x10010578:?IsStopSpawn@Effect_ParticleSystem@@UAE_NXZ
0x10005100:?IsStopSpawn@ParticleSystem@@UAE_NXZ
0x10007e96:?IsStoreFull@Func_Store@GameClient@@QAE_NXZ
0x10010947:?IsSurvival@Robot@GameClient@@QBE_NW4RobotSurvival@12@@Z
0x10013340:?IsTeamChat@GUIConsole@@QAE_NXZ
0x1001a9c4:?IsUsing@Equip@GameClient@@UAE_NXZ
0x1000b2fd:?IsUsing@Item@GameClient@@UAE_NXZ
0x1001a870:?IsUsing@Weapon@GameClient@@UAE_NXZ
0x10008d64:?IsWeaponInSeat@Seat@GameClient@@QAE_NK@Z
0x10019ccc:?Jump@Robot@GameClient@@QAEXXZ
0x10011ae0:?KeyArrowDown@GUIConsole@@AAEXXZ
0x10019b69:?KeyArrowUp@GUIConsole@@AAEXXZ
0x1000b50f:?KeyBackspace@GUIConsole@@AAEXXZ
0x1001a2cb:?KeyReturn@GUIConsole@@AAEXXZ
0x100052ae:?KeyTab@GUIConsole@@AAEXXZ
0x1001865b:?KillingInfoUIEvent@CKillingInfoUI@@CGXPAVCREDialog@@IHPAVCREControl@@IJ@Z
0x1000a91b:?Land@Robot@GameClient@@QAEXABVVector@@@Z
0x1000514b:?Landed@SamplePlayer@@UAEXAAVVector@@@Z
0x103b54d4:?LaserVector@Laser@@0VVector@@A
0x1000883c:?Leading@Skill@GameClient@@UAE?AW4SkillState@12@PAVWorldObject@2@_N@Z
0x1000aec5:?LeadingSkill@Item@GameClient@@UAEXK@Z
0x100126b1:?LeadingSkill@Robot@GameClient@@UAEXK@Z
0x100084d6:?LeadingSkill@WorldObject@GameClient@@UAEXK@Z
0x100083eb:?Live@Robot@GameClient@@QAEXXZ
0x1000bfdc:?LoadAnimHandle@AEquip@GameClient@@UAEXABV?$vector@V?$basic_string@DU?$char_traits@D@std@@V?$allocator@D@2@@std@@V?$allocator@V?$basic_string@DU?$char_traits@D@std@@V?$allocator@D@2@@std@@@2@@std@@ABV?$basic_string@DU?$char_traits@D@std@@V?$allocator@D@2@@4@@Z
0x1000efed:?LoadAnimHandle@AdapterActor@GameClient@@UAEXABV?$basic_string@DU?$char_traits@D@std@@V?$allocator@D@2@@std@@0@Z
0x1000137a:?LoadAnimHandle@CombinRobot@GameClient@@UAEXABV?$basic_string@DU?$char_traits@D@std@@V?$allocator@D@2@@std@@0@Z
0x100073f6:?LoadAnimHandleFPV@AEquip@GameClient@@UAEXABV?$vector@V?$basic_string@DU?$char_traits@D@std@@V?$allocator@D@2@@std@@V?$allocator@V?$basic_string@DU?$char_traits@D@std@@V?$allocator@D@2@@std@@@2@@std@@ABV?$basic_string@DU?$char_traits@D@std@@V?$allocator@D@2@@4@@Z
0x1000cc84:?LoadFPVHandAnim@CombinRobot@GameClient@@QAEXABV?$basic_string@DU?$char_traits@D@std@@V?$allocator@D@2@@std@@@Z
0x10014655:?LoadFPVHandModel@CombinRobot@GameClient@@QAE_NABV?$basic_string@DU?$char_traits@D@std@@V?$allocator@D@2@@std@@@Z
0x100130a2:?LoadFlyweightFromFile@FlyweightManager@GameClient@@QAE_NABV?$basic_string@DU?$char_traits@D@std@@V?$allocator@D@2@@std@@@Z
0x10016e5a:?LoadFlyweightFromMemory@FlyweightManager@GameClient@@QAE_NPBEIAAV?$basic_string@DU?$char_traits@D@std@@V?$allocator@D@2@@std@@@Z
0x10007f59:?LoadHUD@Equip@GameClient@@QAEXXZ
0x1000afa1:?LoadModel@AEquip@GameClient@@UAE_NABV?$basic_string@DU?$char_traits@D@std@@V?$allocator@D@2@@std@@00@Z
0x1000e28c:?LoadModel@AdapterActor@GameClient@@UAE_NABV?$basic_string@DU?$char_traits@D@std@@V?$allocator@D@2@@std@@00@Z
0x10004df9:?LoadModel@CombinRobot@GameClient@@UAE_NABV?$basic_string@DU?$char_traits@D@std@@V?$allocator@D@2@@std@@00@Z
0x10002ce3:?LoadResource@AircraftVehicle@GameClient@@UAE_NXZ
0x10002a86:?LoadResource@Booty@GameClient@@UAE_NXZ
0x100015d2:?LoadResource@ControlledEstab@GameClient@@UAE_NXZ
0x1000712b:?LoadResource@DamageEquip@GameClient@@UAE_NXZ
0x100023fb:?LoadResource@Equip@GameClient@@UAE_NXZ
0x1000a6be:?LoadResource@EstabDoor@GameClient@@UAE_NXZ
0x100030da:?LoadResource@Establishment@GameClient@@UAE_NXZ
0x10011540:?LoadResource@Item@GameClient@@UAE_NXZ
0x10014e02:?LoadResource@NonControlledEstab@GameClient@@UAE_NXZ
0x10004c64:?LoadResource@Robot@GameClient@@UAE_NXZ
0x100063e3:?LoadResource@RobotArmor@GameClient@@UAE_NXZ
0x10006d02:?LoadResource@RobotBody@GameClient@@UAE_NXZ
0x1000c20c:?LoadResource@RobotCore@GameClient@@UAE_NXZ
0x10005fbf:?LoadResource@SampleBullet@@QAEXXZ
0x10010587:?LoadResource@SamplePlayer@@QAEXXZ
0x1000842c:?LoadResource@SampleWeapon@@QAEXXZ
0x10014b6e:?LoadResource@Seat@GameClient@@QAEXXZ
0x100083dc:?LoadResource@SystemPart@GameClient@@UAE_NXZ
0x100034d1:?LoadResource@TransformItem@GameClient@@UAE_NXZ
0x1001a7bc:?LoadResource@Weapon@GameClient@@UAE_NXZ
0x1000c36a:?LoadResource@WorldObject@GameClient@@UAE_NXZ
0x100124fe:?LoadResourceFPV@Equip@GameClient@@UAE_NXZ
0x1000a817:?LoadResources@Aura@GameClient@@UAE_NXZ
0x10017071:?LoadResources@FRobotFramework@GameClient@@UAE_NXZ
0x1000448a:?LoadResources@Skill@GameClient@@UAE_NXZ
0x1000b438:?LoadResourcesFPV@AEquip@GameClient@@UAE_NABV?$basic_string@DU?$char_traits@D@std@@V?$allocator@D@2@@std@@0@Z
0x1000bc3a:?LoadTMPModel@CombinRobot@GameClient@@QAE_NABV?$basic_string@DU?$char_traits@D@std@@V?$allocator@D@2@@std@@00@Z
0x10009c23:?LocalMove@ControlledEstab@GameClient@@QAEXXZ
0x10002856:?Login@CLoginUI@@QAEXXZ
0x1001409c:?LoginUIEvent@CLoginUI@@CGXPAVCREDialog@@IHPAVCREControl@@IJ@Z
0x1000b04b:?MakeCurTarget@Equip@GameClient@@QAE?AVVector@@ABV3@0@Z
0x10011bb2:?MatchingBodyArmor@CRobotRoofUI@@AAE_NKK@Z
0x1001a163:?MiniWorldMapUIEvent@CMiniWorldMapUI@@CGXPAVCREDialog@@IHPAVCREControl@@IJ@Z
0x100115cc:?Move@AircraftVehicle@GameClient@@QAEXKKK@Z
0x10008e86:?Move@PedrailVehicle@GameClient@@QAEXKK_N@Z
0x100024fa:?Move@Robot@GameClient@@QAEXI@Z
0x10017184:?Move@SuspendVehicle@GameClient@@QAEXKK_N@Z
0x10002ea5:?Move@WheelVehicle@GameClient@@QAEXKK_N@Z
0x10009fcf:?MoveEdgeLine@CBattleFieldDetailUI@@IAEXXZ
0x1000121c:?MoveGroup@CGroupMemberUI@@IAEXAAUMemberControl@1@M@Z
0x1000bebf:?MoveTo@Robot@GameClient@@QAEXABVVector@@ABVMatrix@@@Z
0x1000d7dd:?MsgChar@GUIConsole@@QAEXI@Z
0x10013796:?MsgKeyDown@GUIConsole@@QAEXI@Z
0x10008d87:?NewAura@FlyweightManager@GameClient@@QAEPAVAura@2@KKAAVBinStream@@@Z
0x1001067c:?NewBullet@FlyweightManager@GameClient@@QAEPAVBullet@2@KABVVector@@0@Z
0x10015537:?NewFunction@FlyweightManager@GameClient@@QAEPAVFunction@2@KK@Z
0x10013a84:?NewInstance@FlyweightManager@GameClient@@QAEPAVDataObject@2@KK@Z
0x1000d6de:?NewMap@Game@@QAEPAVWorld@@V?$basic_string@DU?$char_traits@D@std@@V?$allocator@D@2@@std@@H@Z
0x1000fa6a:?NewSkill@FlyweightManager@GameClient@@QAEPAVSkill@2@KKAAVBinStream@@@Z
0x100034b8:?NewWorldObject@FlyweightManager@GameClient@@QAEPAVWorldObject@2@KKKAAVBinStream@@@Z
0x100122ab:?OK@CPasswordInputUI@@QAEXXZ
0x10009cf0:?OccupyEstabUIEvent@COccupyEstabUI@@CGXPAVCREDialog@@IHPAVCREControl@@IJ@Z
0x10010cee:?OnAnimation@AdapterActorALReport@GameClient@@UAEXHPAVAnimationSet@@@Z
0x1000c153:?OnAnimation@EquipAsyncLoaderReport@GameClient@@UAEXHPAVAnimationSet@@@Z
0x10016c66:?OnAnimation@PartAsyncLoaderReport@GameClient@@UAEXHPAVAnimationSet@@@Z
0x1001a7f8:?OnAnimation@RobotAsyncLoaderReport@GameClient@@UAEXHPAVAnimationSet@@@Z
0x10017e40:?OnAvartarControllerBoxDeleted@Func_RobotReceive@GameClient@@UAEXK@Z
0x100012fd:?OnAvartarControllerBoxDeleted@Function@GameClient@@UAEXK@Z
0x10017bde:?OnBattleFieldInfoUpdated@CRadarMapUI@@QAEXJ@Z
0x10015c8a:?OnBegin@AddToGroupObserver@GameClient@@UAEXAAVEvent@@@Z
0x100048f9:?OnBegin@BigMapState@@UAEXAAVEvent@@@Z
0x10019079:?OnBegin@BoardRobotObserver@GameClient@@UAEXAAVEvent@@@Z
0x100157a3:?OnBegin@ChangeLeaderObserver@GameClient@@UAEXAAVEvent@@@Z
0x10011856:?OnBegin@ChangeSeatObserver@GameClient@@UAEXAAVEvent@@@Z
0x10010447:?OnBegin@CharacterExploitUpdateObserver@@UAEXAAVEvent@@@Z
0x100157e9:?OnBegin@CorpCmdUpdatedObserver@@UAEXAAVEvent@@@Z
0x10019bb9:?OnBegin@CtlEsabHeartMoveP2PObserver@GameClient@@UAEXAAVEvent@@@Z
0x10006a05:?OnBegin@CtlEsabHeartPosObserver@GameClient@@UAEXAAVEvent@@@Z
0x10014a60:?OnBegin@CtlEsabHeartRotObserver@GameClient@@UAEXAAVEvent@@@Z
0x10017e59:?OnBegin@CtlEsabStageChangeObserver@GameClient@@UAEXAAVEvent@@@Z
0x10003a80:?OnBegin@CtlEsabTransformObserver@GameClient@@UAEXAAVEvent@@@Z
0x10012a12:?OnBegin@DismissGroupObserver@GameClient@@UAEXAAVEvent@@@Z
0x10005164:?OnBegin@EndUseEstabObserver@GameClient@@UAEXAAVEvent@@@Z
0x1000a4ac:?OnBegin@EstabDoorState@GameClient@@UAEXAAVEvent@@@Z
0x100191af:?OnBegin@EstabOccupyObserver@GameClient@@UAEXAAVEvent@@@Z
0x1000196a:?OnBegin@EstabStateChangedObserver@GameClient@@UAEXAAVEvent@@@Z
0x100103de:?OnBegin@HallMapBattleFieldInfoUpdatedObserver@@UAEXAAVEvent@@@Z
0x10008c74:?OnBegin@InviteObserver@GameClient@@UAEXAAVEvent@@@Z
0x1001aaa0:?OnBegin@NeedPasswordObserver@GameClient@@UAEXAAVEvent@@@Z
0x1000952f:?OnBegin@PassInputedObserver@@UAEXAAVEvent@@@Z
0x10016c39:?OnBegin@ReceiveChatMessageObserver@GameClient@@UAEXAAVEvent@@@Z
0x10013ae3:?OnBegin@RemovedFromGroupObserver@GameClient@@UAEXAAVEvent@@@Z
0x10013a34:?OnBegin@SelectRebornLocObserver@GameClient@@UAEXAAVEvent@@@Z
0x10004048:?OnBegin@SyncEstabInfoObserver@GameClient@@UAEXAAVEvent@@@Z
0x1001418c:?OnBegin@SyncSeatRotationObserver@GameClient@@UAEXAAVEvent@@@Z
0x10003661:?OnBegin@UnBoardRobotObserver@GameClient@@UAEXAAVEvent@@@Z
0x10014542:?OnBegin@UpdateAllStockObserver@GameClient@@UAEXAAVEvent@@@Z
0x100086f2:?OnBegin@UpdateCommandoObserver@GameClient@@UAEXAAVEvent@@@Z
0x1001364c:?OnBegin@UpdateCorpCmdObserver@GameClient@@UAEXAAVEvent@@@Z
0x1000fda8:?OnBegin@UpdateCorpMemberInfoObserver@GameClient@@UAEXAAVEvent@@@Z
0x1000c752:?OnBegin@UpdateEstabArmorObserver@GameClient@@UAEXAAVEvent@@@Z
0x100092eb:?OnBegin@UpdateGroupCmdObserver@GameClient@@UAEXAAVEvent@@@Z
0x1000c572:?OnBegin@UpdateGroupMemberInfoObserver@GameClient@@UAEXAAVEvent@@@Z
0x1000169f:?OnBegin@UpdateMemberIDObserver@GameClient@@UAEXAAVEvent@@@Z
0x10010ec4:?OnBegin@UpdateStockObserver@GameClient@@UAEXAAVEvent@@@Z
0x1000d80f:?OnBegin@UpdateVehicleMove@GameClient@@UAEXAAVEvent@@@Z
0x10007531:?OnBegin@UseEstabObserver@GameClient@@UAEXAAVEvent@@@Z
0x1000d55d:?OnBegin@VehicleStockUpdatedObserver@@UAEXAAVEvent@@@Z
0x1000313e:?OnBuffAdded@CStatusUI@@QAEXKK@Z
0x1000af38:?OnBuffRemoved@CStatusUI@@QAEXKK@Z
0x10013ff2:?OnCollision@ControlledEstab@GameClient@@QAEXABUCollisionInfo@@@Z
0x10011c2a:?OnCorpCmdUpdated@CRadarMapUI@@QAEXXZ
0x1000906b:?OnCreate@AircraftVehicle@GameClient@@UAE_NPAVFlyweight@2@@Z
0x100042aa:?OnCreate@Booty@GameClient@@UAE_NPAVFlyweight@2@@Z
0x10004ea8:?OnCreate@ControlledEstab@GameClient@@UAE_NPAVFlyweight@2@@Z
0x1000e0d9:?OnCreate@DamageEquip@GameClient@@UAE_NPAVFlyweight@2@@Z
0x1000ee1c:?OnCreate@DataObject@GameClient@@UAE_NPAVFlyweight@2@@Z
0x10006ef6:?OnCreate@Equip@GameClient@@UAE_NPAVFlyweight@2@@Z
0x10009bf1:?OnCreate@EstabDoor@GameClient@@UAE_NPAVFlyweight@2@@Z
0x10004af7:?OnCreate@Establishment@GameClient@@UAE_NPAVFlyweight@2@@Z
0x1001aad7:?OnCreate@Func_Power@GameClient@@UAE_NPAVFlyweight@2@@Z
0x100032ec:?OnCreate@Func_Receive@GameClient@@UAE_NPAVFlyweight@2@@Z
0x10008e18:?OnCreate@Func_RobotReceive@GameClient@@UAE_NPAVFlyweight@2@@Z
0x100103bb:?OnCreate@Func_Sheild@GameClient@@UAE_NPAVFlyweight@2@@Z
0x10018d4f:?OnCreate@Func_Store@GameClient@@UAE_NPAVFlyweight@2@@Z
0x1000fb69:?OnCreate@Func_VehicleReceive@GameClient@@UAE_NPAVFlyweight@2@@Z
0x100163fb:?OnCreate@Item@GameClient@@UAE_NPAVFlyweight@2@@Z
0x10011fd6:?OnCreate@NonControlledEstab@GameClient@@UAE_NPAVFlyweight@2@@Z
0x10016bd0:?OnCreate@PedrailVehicle@GameClient@@UAE_NPAVFlyweight@2@@Z
0x10014ccc:?OnCreate@Robot@GameClient@@UAE_NPAVFlyweight@2@@Z
0x10006069:?OnCreate@RobotArmor@GameClient@@UAE_NPAVFlyweight@2@@Z
0x100145a6:?OnCreate@RobotBody@GameClient@@UAE_NPAVFlyweight@2@@Z
0x10001c53:?OnCreate@RobotCore@GameClient@@UAE_NPAVFlyweight@2@@Z
0x10008094:?OnCreate@Seat@GameClient@@UAE_NPAVFlyweight@2@@Z
0x10007d29:?OnCreate@Skill@GameClient@@UAE_NPAVFlyweight@2@@Z
0x1000e642:?OnCreate@SuspendVehicle@GameClient@@UAE_NPAVFlyweight@2@@Z
0x10008b5c:?OnCreate@SystemPart@GameClient@@UAE_NPAVFlyweight@2@@Z
0x10002bad:?OnCreate@TransformItem@GameClient@@UAE_NPAVFlyweight@2@@Z
0x1000a81c:?OnCreate@Weapon@GameClient@@UAE_NPAVFlyweight@2@@Z
0x10013476:?OnCreate@WheelVehicle@GameClient@@UAE_NPAVFlyweight@2@@Z
0x10016121:?OnCreate@WorldObject@GameClient@@UAE_NPAVFlyweight@2@@Z
0x10001f9b:?OnDestroy@Booty@GameClient@@UAEXXZ
0x10012cab:?OnDestroy@ControlledEstab@GameClient@@UAEXXZ
0x10013f75:?OnDestroy@DamageEquip@GameClient@@UAEXXZ
0x1000bbc7:?OnDestroy@DataObject@GameClient@@UAEXXZ
0x10019880:?OnDestroy@Equip@GameClient@@UAEXXZ
0x100015dc:?OnDestroy@Establishment@GameClient@@UAEXXZ
0x10006217:?OnDestroy@Func_Sheild@GameClient@@UAEXXZ
0x1001960f:?OnDestroy@Item@GameClient@@UAEXXZ
0x10019e48:?OnDestroy@Robot@GameClient@@UAEXXZ
0x10019e11:?OnDestroy@RobotArmor@GameClient@@UAEXXZ
0x10004ae3:?OnDestroy@RobotBody@GameClient@@UAEXXZ
0x10002d97:?OnDestroy@RobotCore@GameClient@@UAEXXZ
0x1000f33a:?OnDestroy@Seat@GameClient@@UAEXXZ
0x100132f0:?OnDestroy@SystemPart@GameClient@@UAEXXZ
0x100090c5:?OnDestroy@TransformItem@GameClient@@UAEXXZ
0x10002c39:?OnDestroy@Weapon@GameClient@@UAEXXZ
0x10003139:?OnDestroy@WorldObject@GameClient@@UAEXXZ
0x10006866:?OnEnd@GMKickResObserver@GameClient@@UAEXAAVEvent@@@Z
0x1001965f:?OnEnd@InviteResObserver@GameClient@@UAEXAAVEvent@@@Z
0x1000bad2:?OnEnd@UpdateCorpInfoObserver@GameClient@@UAEXAAVEvent@@@Z
0x1000b541:?OnEndUseSkill@CStatusUI@@QAEXK@Z
0x1001a1e5:?OnEnter@BigMapState@@UAEXXZ
0x10015ff5:?OnEnter@EnterEstabEffectArea@GameClient@@UAEXJ@Z
0x1001a690:?OnEnter@RadarMapState@@UAEXXZ
0x100114b4:?OnEnterLand@RobotCallback@GameClient@@UAEXABVVector@@@Z
0x10017413:?OnEstabStateChange@CStatusUI@@QAEXXZ
0x10011ee1:?OnExit@BigMapState@@UAEXXZ
0x10016df6:?OnExit@RadarMapState@@UAEXXZ
0x10018b92:?OnExploitUpdated@CHallMapUI@@QAEXXZ
0x10008edb:?OnGroupCmdUpdated@CRadarMapUI@@QAEXXZ
0x10004a11:?OnHitController@RobotCallback@GameClient@@UAEXJ@Z
0x10019a79:?OnJump@SamplePlayer@@QAEXXZ
0x10011914:?OnLeave@EnterEstabEffectArea@GameClient@@UAEXJ@Z
0x1000ceaf:?OnLeaveLand@RobotCallback@GameClient@@UAEXABVVector@@@Z
0x10015e6f:?OnLoadModelComplete@AircraftVehicle@GameClient@@UAEXHPAVModel@@@Z
0x10007bc1:?OnLoadModelComplete@ControlledEstab@GameClient@@UAEXHPAVModel@@@Z
0x1000427d:?OnLoadModelComplete@EstabDoor@GameClient@@UAEXHPAVModel@@@Z
0x10009c0a:?OnLoadModelComplete@Establishment@GameClient@@UAEXHPAVModel@@@Z
0x1000a6a0:?OnLoadModelComplete@NonControlledEstab@GameClient@@UAEXHPAVModel@@@Z
0x1000e27d:?OnLoadModelComplete@OccupyIcon@GameClient@@UAEXHPAVModel@@@Z
0x1000cf81:?OnLoadModelComplete@PedrailVehicle@GameClient@@UAEXHPAVModel@@@Z
0x10018bc9:?OnLoadModelComplete@SuspendVehicle@GameClient@@UAEXHPAVModel@@@Z
0x10003a3a:?OnLoadModelComplete@WheelVehicle@GameClient@@UAEXHPAVModel@@@Z
0x100177c4:?OnMapInfoUpdated@CBattleFieldDetailUI@@QAEXJ@Z
0x1000f44d:?OnMapStatusUpdated@CBattleFieldDetailUI@@QAEXJ@Z
0x100092f5:?OnMemberCall@CGroupMemberUI@@QAEXABV?$basic_string@DU?$char_traits@D@std@@V?$allocator@D@2@@std@@@Z
0x10013e85:?OnMemberUpdated@CGroupMemberUI@@QAEXK@Z
0x100098f4:?OnModel@AdapterActorALReport@GameClient@@UAEXHPAVModel@@@Z
0x1000679e:?OnModel@EquipAsyncLoaderReport@GameClient@@UAEXHPAVModel@@@Z
0x1000d26a:?OnModel@PartAsyncLoaderReport@GameClient@@UAEXHPAVModel@@@Z
0x100061e0:?OnModel@RobotAsyncLoaderReport@GameClient@@UAEXHPAVModel@@@Z
0x10008d55:?OnNationChanged@Function@GameClient@@UAEXW4NATION_TYPE@@@Z
0x1000f09c:?OnProduceResult@Func_Receive@GameClient@@UAEXKK@Z
0x10004746:?OnQuickSuiteUpdated@CRobotRoofUI@@QAEXJ@Z
0x10014ddf:?OnReadVarComplete@FAircraftVehicle@GameClient@@UAEXXZ
0x10019542:?OnReadVarComplete@FBooty@GameClient@@UAEXXZ
0x1000a795:?OnReadVarComplete@FControlledEstab@GameClient@@UAEXXZ
0x1000559c:?OnReadVarComplete@FDamageEquip@GameClient@@UAEXXZ
0x100049f3:?OnReadVarComplete@FEquip@GameClient@@UAEXXZ
0x10014786:?OnReadVarComplete@FEstabDoor@GameClient@@UAEXXZ
0x100021b2:?OnReadVarComplete@FEstablishment@GameClient@@UAEXXZ
0x10002bd0:?OnReadVarComplete@FPedrailVehicle@GameClient@@UAEXXZ
0x10012463:?OnReadVarComplete@FProduct@GameClient@@UAEXXZ
0x10002ca2:?OnReadVarComplete@FProductInfo@GameClient@@UAEXXZ
0x10005ba5:?OnReadVarComplete@FRobotArmor@GameClient@@UAEXXZ
0x1000e9ad:?OnReadVarComplete@FRobotBody@GameClient@@UAEXXZ
0x100163d3:?OnReadVarComplete@FRobotFramework@GameClient@@UAEXXZ
0x10002473:?OnReadVarComplete@FSkill@GameClient@@UAEXXZ
0x1000b70d:?OnReadVarComplete@FSuspendVehicle@GameClient@@UAEXXZ
0x100098b3:?OnReadVarComplete@FWeapon@GameClient@@UAEXXZ
0x10003d05:?OnReadVarComplete@FWheel@GameClient@@UAEXXZ
0x10008fad:?OnReadVarComplete@FWheelVehicle@GameClient@@UAEXXZ
0x100021e9:?OnRender@CAlarmMessageUI@@UAEJM@Z
0x10014d08:?OnRender@CBattleFieldDetailUI@@UAEJM@Z
0x10007478:?OnRender@CChatInputUI@@UAEJM@Z
0x10015bc2:?OnRender@CChatMessageUI@@UAEJM@Z
0x10002545:?OnRender@CControlCenterListUI@@UAEJM@Z
0x10014056:?OnRender@CDropBagUI@@UAEJM@Z
0x10012a49:?OnRender@CEstablishmentUI@@UAEJM@Z
0x10017d0f:?OnRender@CGroupMemberUI@@UAEJM@Z
0x10019047:?OnRender@CGroupQuickCallUI@@UAEJM@Z
0x100107da:?OnRender@CHallMapUI@@UAEJM@Z
0x1000df62:?OnRender@CKillingInfoUI@@UAEJM@Z
0x10013a9d:?OnRender@CLoginUI@@UAEJM@Z
0x10008dff:?OnRender@CMiniWorldMapUI@@UAEJM@Z
0x1000ebbf:?OnRender@COccupyEstabUI@@UAEJM@Z
0x100055c4:?OnRender@CPasswordInputUI@@UAEJM@Z
0x1000bfa0:?OnRender@CPowerTransportUI@@UAEJM@Z
0x1000e3c2:?OnRender@CRadarMapUI@@UAEJM@Z
0x1000ac45:?OnRender@CRobotRoofUI@@UAEJM@Z
0x1000376a:?OnRender@CStatusUI@@UAEJM@Z
0x10010e47:?OnRender@CVehicleRoofUI@@UAEJM@Z
0x10010fc8:?OnRender@CWaitQueueUI@@UAEJM@Z
0x10014259:?OnRequest@Interactable@GameClient@@UAEXXZ
0x100080e4:?OnResolutionChange@CHallMapUI@@UAEXXZ
0x1000178f:?OnResolutionChange@CMiniWorldMapUI@@UAEXXZ
0x100053c1:?OnRobotAsphxiaOrDead@BigMapState@@IAEXAAVEvent@@@Z
0x1001876e:?OnRobotDestroy@CStatusUI@@QAEXXZ
0x1001465a:?OnRobotRelive@BigMapState@@IAEXAAVEvent@@@Z
0x10003de1:?OnRobotWeaponChanged@CStatusUI@@QAEXXZ
0x10007996:?OnSelectEntryPoint@CBattleFieldDetailUI@@IAEXJ@Z
0x1000f709:?OnSelectSuite@CRobotRoofUI@@QAEXJ_N@Z
0x1000f673:?OnSystemPartChanged@CStatusUI@@QAEXXZ
0x1000386e:?OnTakeDamage@DamageUnit@GameClient@@UAEXABVVector@@@Z
0x100158a7:?OnTakeRepair@DamageUnit@GameClient@@UAEXMMM@Z
0x100030fd:?OnUpdateAllStock@Func_Receive@GameClient@@UAEXABV?$vector@UStockInfo@Func_Receive@GameClient@@V?$allocator@UStockInfo@Func_Receive@GameClient@@@std@@@std@@@Z
0x10018e03:?OnUpdateBattlePointLoc@BigMapState@@IAEXAAVEvent@@@Z
0x10012e1d:?OnUpdateMoveStatus@AircraftVehicle@GameClient@@QAEXKKKABVVector@@ABVMatrix@@000@Z
0x100106d6:?OnUpdateMoveStatus@PedrailVehicle@GameClient@@QAEXKK_NABVVector@@ABVMatrix@@111@Z
0x10006d66:?OnUpdateMoveStatus@SuspendVehicle@GameClient@@QAEXKK_NABVVector@@ABVMatrix@@111@Z
0x10007455:?OnUpdateMoveStatus@WheelVehicle@GameClient@@QAEXKK_NABVVector@@ABVMatrix@@111@Z
0x100022f2:?OnUpdateOccupyIcon@BigMapState@@IAEXAAVEvent@@@Z
0x10005d17:?OnUpdateRebornLoc@BigMapState@@IAEXAAVEvent@@@Z
0x10002563:?OnUpdateStock@Func_Receive@GameClient@@UAEXABV?$vector@UStockInfo@Func_Receive@GameClient@@V?$allocator@UStockInfo@Func_Receive@GameClient@@@std@@@std@@@Z
0x10019d21:?OnUpdateStockPile@CVehicleRoofUI@@QAEXXZ
0x1000c60d:?OnUse@Equip@GameClient@@UAE_NABVVector@@0@Z
0x10006a32:?OnUse@SampleWeapon@@QAEXXZ
0x10005cd1:?OnUse@Weapon@GameClient@@UAE_NABVVector@@0@Z
0x10013e08:?OnUseSkill@CStatusUI@@QAEXK@Z
0x10008161:?OnYes@RobotSuicideConfirmCallback@GameClient@@EAEXXZ
0x10007ed2:?Open@Booty@GameClient@@QAEXPAVRobot@2@@Z
0x100156bd:?OutOffEstablishment@Robot@GameClient@@QAEXXZ
0x103b56c0:?Particle1Color@ParticleTrail@@1KA
0x103b56f4:?Particle1Position@ParticleTrail@@1VVector@@A
0x103b5724:?Particle1Right@ParticleTrail@@1VVector@@A
0x103b570c:?Particle1Up@ParticleTrail@@1VVector@@A
0x103b56bc:?Particle2Color@ParticleTrail@@1KA
0x103b5700:?Particle2Position@ParticleTrail@@1VVector@@A
0x103b5730:?Particle2Right@ParticleTrail@@1VVector@@A
0x103b5718:?Particle2Up@ParticleTrail@@1VVector@@A
0x10005e4d:?PasswordInputUIEvent@CPasswordInputUI@@CGXPAVCREDialog@@IHPAVCREControl@@IJ@Z
0x10008297:?PasswordInputed@CEstablishmentUI@@QAEXJ@Z
0x100081c5:?PlayAnimation@AEquip@GameClient@@QAE_NHMMM_N@Z
0x1000815c:?PlayAnimation@CombinRobot@GameClient@@QAE_NHMMMM_N@Z
0x10006d89:?PlayAnimation@Equip@GameClient@@QAE_NABV?$basic_string@DU?$char_traits@D@std@@V?$allocator@D@2@@std@@MMMM_N@Z
0x10017f35:?PlayAnimation@Robot@GameClient@@QAE_NABV?$basic_string@DU?$char_traits@D@std@@V?$allocator@D@2@@std@@MMMM_N@Z
0x10013c50:?PlayAnimationDown@CombinRobot@GameClient@@QAE_NHMMMM_N@Z
0x10003f2b:?PlayAnimationFPV@AEquip@GameClient@@QAE_NHMMM_N@Z
0x1000d8be:?PlayAnimationFPV@CombinRobot@GameClient@@QAE_NHMMMM_N@Z
0x1000d67a:?PlayAnimationUp@CombinRobot@GameClient@@QAE_NHMMMM_N@Z
0x1000d981:?PlayExplodeEffect@SampleBullet@@UAEXXZ
0x10003f5d:?PlayIdleAnimation@SampleWeapon@@QAEXXZ
0x100175d5:?PlayShake@Equip@GameClient@@UAEXXZ
0x1000846d:?PlayShootAnimaiton@SampleWeapon@@QAEXXZ
0x10019885:?PlaySkillAnim@Equip@GameClient@@QAEX_N@Z
0x1001569f:?PlaySkillAnim@Robot@GameClient@@QAEX_N@Z
0x10018fc0:?PlaySoundA@SoundMgr@@QAE_NPAUSOUND_OPTION@@AAVVector@@1W4SoundFlags@@M@Z
0x10012a8f:?PlayWalkAnimation@SampleWeapon@@QAEXXZ
0x100085b2:?PostRender@AdapterActor@GameClient@@UAEXPAVCamera@@@Z
0x1000e516:?PostRender@CombinActor@GameClient@@UAEXPAVCamera@@@Z
0x100067da:?PostRender@CombinRobot@GameClient@@UAEXPAVCamera@@@Z
0x10008b57:?PostRender@DynamicLasers@@UAEXAAVCamera@@@Z
0x10019f29:?PostRender@Effect_LightDizzy@@UAEXPAVCamera@@@Z
0x10007b44:?PostRender@Effect_TraceLineSystem@@UAEXPAVCamera@@@Z
0x10009a39:?PostRender@HUDSystem@@QAEXPAVCamera@@@Z
0x1000655a:?PostRender@HookAlarmArea@@UAEXPAVCamera@@@Z
0x10016e69:?PostRender@HookEsbAirDrop@@UAEXPAVCamera@@@Z
0x10015140:?PostRender@HookEsbEnergy@@UAEXPAVCamera@@@Z
0x1000d620:?PostRender@HookEsbProduce@@UAEXPAVCamera@@@Z
0x1001300c:?PostRender@HookEsbSheild@@UAEXPAVCamera@@@Z
0x1001ab63:?PostRender@HookEsbStore@@UAEXPAVCamera@@@Z
0x1000df0d:?PostRender@HookEsbTake@@UAEXPAVCamera@@@Z
0x1001102c:?PostRender@HookEsbTransport@@UAEXPAVCamera@@@Z
0x1001157c:?PostRender@HookEstablishment@@UAEXPAVCamera@@@Z
0x100077ca:?PostRender@Laser@@UAEXAAVCamera@@@Z
0x1001243b:?PostRender@LaserParticleSystem@@UAEXAAVCamera@@@Z
0x1000a89e:?PostRender@LightBeam@@UAEXAAVCamera@@@Z
0x100101e5:?PostRender@ParticleSystem@@UAEXAAVCamera@@@Z
0x1000e958:?PostRender@ParticleSystemEx@@UAEXAAVCamera@@@Z
0x10001e06:?PostRender@ParticleTrail@@UAEXAAVCamera@@@Z
0x10002e50:?PostRender@RandomTextureParticles@@UAEXAAVCamera@@@Z
0x10014eb1:?PostRender@RandomTextureParticlesEx@@UAEXAAVCamera@@@Z
0x1000b60e:?PostRender@RandomTexturePhysicsParticles@@UAEXAAVCamera@@@Z
0x1001800c:?PostRender@RandomTextureTraceLine@@UAEXAAVCamera@@@Z
0x1001a1ef:?PostRender@RandomTextureTraceLineEx@@UAEXAAVCamera@@@Z
0x10010d66:?PostRender@SamplePlayer@@UAEXPAVCamera@@@Z
0x1000fe9d:?PostRender@SurfaceDecal@@UAEXAAVCamera@@@Z
0x1000eb6a:?PostRender@TraceLineSystem@@UAEXAAVCamera@@@Z
0x1000536c:?PostRender@TraceLineSystemEx@@UAEXAAVCamera@@@Z
0x10016abd:?PostRender@WaterDecal@@UAEXAAVCamera@@@Z
0x10011eaa:?PowerTransportUIEvent@CPowerTransportUI@@CGXPAVCREDialog@@IHPAVCREControl@@IJ@Z
0x100168f6:?PreRender@AEquip@GameClient@@UAEXPAVCamera@@@Z
0x100023e7:?PreRender@AnimationModal@@MAEXPAVCamera@@@Z
0x1001718e:?PreRender@CombinActor@GameClient@@UAEXPAVCamera@@@Z
0x1000690b:?PreRender@CombinRobot@GameClient@@UAEXPAVCamera@@@Z
0x1000fa56:?PreRender@Effect_MultiTexParticles@@UAEXPAVCamera@@@Z
0x10001802:?PreRender@Effect_ShadedParticles@@UAEXPAVCamera@@@Z
0x100102e9:?PreRender@Effect_TraceLineSystem@@UAEXPAVCamera@@@Z
0x10012e27:?PreRender@SamplePlayer@@UAEXPAVCamera@@@Z
0x100197ea:?PreRender@SampleWeapon@@UAEXPAVCamera@@@Z
0x10010177:?Precache@Game@@QAEXXZ
0x10003166:?PrepareCast@SkillManager@GameClient@@QBEXPAVWorldObject@2@PAVSkill@2@@Z
0x10002a22:?PrintStats@Game@@QAEXPAVCanvas@@@Z
0x10009b10:?Printf@GUIConsole@@QAAXPBDZZ
0x100089b8:?PrintfColor@GUIConsole@@QAAXKPBDZZ
0x10007d38:?PrintfColor@GUIConsole@@QAAXW4ConsoleMessageType@@HKPBDZZ
0x10001519:?QueryStock@Func_Receive@GameClient@@UAEXPAVLocalCharacter@2@ABV?$vector@KV?$allocator@K@std@@@std@@@Z
0x10017b75:?QueryStock@Func_Receive@GameClient@@UAEXPAVLocalCharacter@2@KK@Z
0x100109b0:?RadarMapUIEvent@CRadarMapUI@@CGXPAVCREDialog@@IHPAVCREControl@@IJ@Z
0x10006235:?Random@LightBeam@@QAEXMM@Z
0x100101bd:?ReAdjustTeamMessages@GUIConsole@@QAEXH@Z
0x100177ab:?ReceiveEnergy@CDropBagUI@@IAEXXZ
0x1000f6f0:?ReceiveInvite@GroupManager@GameClient@@QAEXKABV?$basic_string@DU?$char_traits@D@std@@V?$allocator@D@2@@std@@V?$Smart_Ptr@VMessage@1Outpop@@@Utility@Outpop@@@Z
0x10006d5c:?Recycle@Func_RobotReceive@GameClient@@QAEXPAVLocalCharacter@2@@Z
0x10009881:?Refresh@CHallMapUI@@QAEXXZ
0x10004200:?Refresh@Effect_LightDizzy@@QAEXXZ
0x1000e7f5:?Refresh@Effect_TraceLineSystem@@QAEXXZ
0x10008693:?RefreshArmor@CStatusUI@@AAEXPAVDamageUnit@GameClient@@@Z
0x10015ec4:?RefreshBag@CDropBagUI@@IAEXXZ
0x100182fa:?RefreshBattleLoc@CHallMapUI@@QAEXXZ
0x10006ed3:?RefreshBeam@Effect_LightBeam@@UAEXXZ
0x10002c02:?RefreshData@CStatusUI@@AAEXPAVWorldObject@GameClient@@@Z
0x10008e22:?RefreshEnergy@CStatusUI@@AAEXMM@Z
0x1000b08c:?RefreshEntity@CRadarMapUI@@QAEXXZ
0x1000783d:?RefreshEntryPoint@CBattleFieldDetailUI@@QAEXJ@Z
0x1000db1b:?RefreshEquip@CRobotRoofUI@@AAEXK@Z
0x1001607c:?RefreshEquipCount@CDropBagUI@@IAEXXZ
0x100151d6:?RefreshEquipCount@CRobotRoofUI@@AAEXXZ
0x1000f722:?RefreshFlyweigth@FlyweightManager@GameClient@@QAE_NABV?$basic_string@DU?$char_traits@D@std@@V?$allocator@D@2@@std@@@Z
0x1000f19b:?RefreshGroupmate@CRadarMapUI@@QAEXXZ
0x100172dd:?RefreshList@CDropBagUI@@IAEX_N@Z
0x100109ab:?RefreshList@CRobotRoofUI@@AAEXK@Z
0x10009764:?RefreshList@CVehicleRoofUI@@IAEXXZ
0x1000b06e:?RefreshOptions@AnimationModal@@MAEXXZ
0x100015aa:?RefreshOptions@Effect_Base@@UAEXXZ
0x1001631a:?RefreshOptions@Effect_DynamicLasers@@UAEXXZ
0x1001877d:?RefreshOptions@Effect_Laser@@UAEXXZ
0x1000e98f:?RefreshOptions@Effect_LaserParticle@@UAEXXZ
0x10008459:?RefreshOptions@Effect_Light@@UAEXXZ
0x10001343:?RefreshOptions@Effect_ParticleSystem@@UAEXXZ
0x1000256d:?RefreshOptions@Effect_ParticleSystemEx@@UAEXXZ
0x100030f8:?RefreshOptions@Effect_Precipitation@@UAEXXZ
0x1001ab59:?RefreshRobotEquip@CDropBagUI@@IAEXXZ
0x10013458:?RefreshRobotEquip@CRobotRoofUI@@QAEXXZ
0x1000e17e:?RefreshStatus@CLoginUI@@IAEXXZ
0x1000970a:?RefreshSuiteStatus@CDropBagUI@@IAEXXZ
0x100104e2:?RefreshSuiteStatus@CRobotRoofUI@@AAEXXZ
0x1000663b:?RefreshSystem@Effect_MultiTexParticles@@MAEXXZ
0x10012bed:?RefreshSystem@Effect_MultiTexParticlesEx@@MAEXXZ
0x1000cf36:?RefreshSystem@Effect_ShadedParticles@@MAEXXZ
0x100141cd:?RefreshVehicleSeat@CStatusUI@@AAEXXZ
0x10013dd1:?RefreshVehicleWeapon@CStatusUI@@AAEXXZ
0x1000faec:?RefreshWeaponStatus@CStatusUI@@AAEXXZ
0x10003328:?RegisterProductFlyweight@ProductManager@GameClient@@QAEXPAVFProduct@2@@Z
0x1000ca4f:?RegisterProductInfoFlyweight@ProductManager@GameClient@@QAEXPAVFProductInfo@2@@Z
0x10011bbc:?Relive@Robot@GameClient@@QAEXXZ
0x1000886e:?RelocateBuffIcon@CStatusUI@@AAEXXZ
0x1000fa1a:?RemoveAlarmArea@CRadarMapUI@@QAEXK@Z
0x10019a0b:?RemoveAlarmMessage@CAlarmMessageUI@@QAEXK@Z
0x100080df:?RemoveArmor@DamageUnit@GameClient@@QAEXH@Z
0x1001940c:?RemoveAsyncHandle@AdapterActor@GameClient@@QAEXH@Z
0x1000f849:?RemoveAura@AuraManager@GameClient@@QAEPAVAura@2@K@Z
0x10016441:?RemoveAura@WorldObject@GameClient@@QAEXK@Z
0x10001dac:?RemoveAura@WorldObject@GameClient@@QAEXPAVAura@2@@Z
0x1000bd1b:?RemoveBattleField@BattleFieldManager@GameClient@@QAE_NK@Z
0x1000ede0:?RemoveBeLockedTarget@Robot@GameClient@@QAEXK@Z
0x10019d6c:?RemoveDamageUnit@DamageManager@GameClient@@QAEXK@Z
0x100025b3:?RemoveEquip@Booty@GameClient@@QAEXPAVEquip@2@@Z
0x1000eb9c:?RemoveEquip@Robot@GameClient@@QAEXK@Z
0x1000fe98:?RemoveEquip@Robot@GameClient@@QAEXPAVEquip@2@@Z
0x1000c90a:?RemoveEstablishment@EstabManager@GameClient@@QAEPAVEstablishment@2@K@Z
0x1000676c:?RemoveFunction@FuncManager@GameClient@@QAEPAVFunction@2@K@Z
0x1000a8e4:?RemoveHUD@HUDSystem@@QAE_NPAVHUDBase@@@Z
0x100139ee:?RemoveLocalCharacterRef@WorldObject@GameClient@@QAEXXZ
0x1000fa15:?RemoveMember@Group@GameClient@@QAEXK@Z
0x10002063:?RemoveMember@GroupManager@GameClient@@QAEXKK@Z
0x10005af6:?RemoveNode@AdapterActor@GameClient@@UAEXABV?$basic_string@DU?$char_traits@D@std@@V?$allocator@D@2@@std@@@Z
0x100053a8:?RemovePartModel@CombinActor@GameClient@@UAE_NABV?$basic_string@DU?$char_traits@D@std@@V?$allocator@D@2@@std@@0@Z
0x10013c19:?RemovePlusinCapability@WorldObject@GameClient@@QAEXW4PLUSIN_CAPABILITY@@@Z
0x1000a286:?RemoveRobot@RobotManager@GameClient@@QAEPAVRobot@2@J@Z
0x1000c658:?RemoveRobot@RobotManager@GameClient@@QAEPAVRobot@2@PAV32@@Z
0x10017e0e:?RemoveSeat@EstabManager@GameClient@@QAEPAVSeat@2@K@Z
0x10014d0d:?RemoveSeat@Establishment@GameClient@@QAE_NH@Z
0x100116d0:?RemoveSkill@SkillManager@GameClient@@QAEPAVSkill@2@K@Z
0x1001884a:?RemoveSound@SoundMgr@@QAE_NPAUSOUND_OPTION@@_N@Z
0x1000eb79:?RemoveStock@Func_Store@GameClient@@QAE_NKJ@Z
0x100168e7:?RemoveSystemPart@EquipManager@GameClient@@QAEPAVSystemPart@2@J@Z
0x1000f68c:?RemoveSystemPart@EquipManager@GameClient@@QAEPAVSystemPart@2@PAV32@@Z
0x1001325f:?RemoveUser@LocalUserManager@GameClient@@QAE_NK@Z
0x10011c16:?Render@GUIConsole@@QAEXPAVCanvas@@@Z
0x10015154:?RenderAfter@AEquip@GameClient@@UAEXPAVShader@@PAVMaterial@@@Z
0x100139a3:?RenderAfter@AdapterActor@GameClient@@UAEXPAVShader@@PAVMaterial@@@Z
0x1001016d:?RenderAfter@AnimationModal@@MAEXPAVShader@@PAVMaterial@@@Z
0x10013ee4:?RenderAfter@CombinRobot@GameClient@@UAEXPAVShader@@PAVMaterial@@@Z
0x10001d2a:?RenderBefore@AEquip@GameClient@@UAEXPAVShader@@PAVMaterial@@@Z
0x1000434f:?RenderBefore@AdapterActor@GameClient@@UAEXPAVShader@@PAVMaterial@@@Z
0x1000ad2b:?RenderBefore@AnimationModal@@MAEXPAVShader@@PAVMaterial@@@Z
0x1000f96b:?RenderBefore@CombinRobot@GameClient@@UAEXPAVShader@@PAVMaterial@@@Z
0x10015172:?RenderBillboardQuadAt@ParticleTrail@@IAEXPAVParticleTrailNode@@AAVVector@@PAUVertexIndicesBatch@@AAH@Z
0x100023f1:?RenderBillboardQuads@ParticleTrail@@IAEXAAVCamera@@@Z
0x10017611:?RenderParticleLink@ParticleTrail@@IAEXPAVParticleTrailNode@@0PAUVertexIndicesBatch@@AAHAAM@Z
0x1001180b:?RenderTrail@ParticleTrail@@IAEXAAVCamera@@@Z
0x1001a5cd:?ReposControl@CBattleFieldDetailUI@@QAEXXZ
0x10002478:?RequestBoard@Establishment@GameClient@@UAE_NPAVLocalCharacter@2@@Z
0x100198e9:?RequestBoard@Seat@GameClient@@QAE_NPAVLocalCharacter@2@@Z
0x10017963:?RequestChangeLeader@GroupManager@GameClient@@QAEXPAVLocalCharacter@2@K@Z
0x10005736:?RequestChangeSeat@Establishment@GameClient@@UAE_NPAVRobot@2@H@Z
0x10016cac:?RequestCorpGroupInfo@GroupManager@GameClient@@QAEXPAVLocalCharacter@2@@Z
0x10014f6a:?RequestDismiss@GroupManager@GameClient@@QAEXPAVLocalCharacter@2@@Z
0x100081e3:?RequestEndUse@Function@GameClient@@UAEXPAVLocalCharacter@2@@Z
0x10018ce6:?RequestInviteMember@GroupManager@GameClient@@QAEXPAVLocalCharacter@2@K@Z
0x10004101:?RequestLeaveGroup@GroupManager@GameClient@@QAEXPAVLocalCharacter@2@@Z
0x10001438:?RequestMapInfo@BattleFieldManager@GameClient@@QAEXJ@Z
0x1000aa42:?RequestMapStatus@BattleFieldManager@GameClient@@QAEXJ@Z
0x10003e27:?RequestRemoveMember@GroupManager@GameClient@@QAEXPAVLocalCharacter@2@K@Z
0x10017d0a:?RequestUnBoard@Establishment@GameClient@@UAE_NPAVLocalCharacter@2@@Z
0x10005196:?RequestUnBoard@Seat@GameClient@@QAE_NPAVLocalCharacter@2@@Z
0x1000efca:?RequestUpdateGroupData@GroupManager@GameClient@@QAEXPAVLocalCharacter@2@@Z
0x1000373d:?RequestUse@Function@GameClient@@UAEXPAVLocalCharacter@2@@Z
0x1000a29a:?Reset@AircraftVehicleController@GameClient@@UAEXXZ
0x1000cd2e:?Reset@DynamicLasers@@QAEXXZ
0x10018809:?Reset@ICtlEstabController@GameClient@@UAEXXZ
0x10016621:?Reset@IEstabController@GameClient@@UAEXXZ
0x10011fe5:?Reset@PassengerController@GameClient@@UAEXXZ
0x10018bc4:?Reset@PedrailVehicleController@GameClient@@UAEXXZ
0x1001773d:?Reset@SuspendVehicleController@GameClient@@UAEXXZ
0x10017265:?Reset@WheelVehicleController@GameClient@@UAEXXZ
0x1000fc5e:?ResetPass@Establishment@GameClient@@QAEXXZ
0x10011eb9:?ResetTime@COccupyEstabUI@@QAEXXZ
0x1000ac9f:?ResignCommando@GroupManager@GameClient@@QAEXPAVLocalCharacter@2@@Z
0x10004d81:?Revived@Robot@GameClient@@QAEXXZ
0x103b5600:?Right@ParticleSystem@@1VVector@@A
0x103b57dc:?Right@TraceLineSystem@@1VVector@@A
0x10002423:?RobotRoofUIEvent@CRobotRoofUI@@CGXPAVCREDialog@@IHPAVCREControl@@IJ@Z
0x100119c8:?SaveToQuickSuite@CRobotRoofUI@@AAEXH@Z
0x10005402:?SelectItem@CDropBagUI@@IAEXK@Z
0x10009192:?SelectItem@CRobotRoofUI@@AAEXK@Z
0x10009494:?SelectItem@CVehicleRoofUI@@IAEXK@Z
0x1000d111:?SelectItemArmor@CRobotRoofUI@@AAEXKPBVFProductInfo@GameClient@@@Z
0x100185ca:?SelectItemBody@CRobotRoofUI@@AAEXKPBVFProductInfo@GameClient@@@Z
0x1001777e:?SelectItemEnergy@CRobotRoofUI@@AAEXKPBVFProductInfo@GameClient@@@Z
0x1000f6c8:?SendCorpCmd@GroupManager@GameClient@@QAEXPAVLocalCharacter@2@ABVVector@@ABV?$basic_string@DU?$char_traits@D@std@@V?$allocator@D@2@@std@@@Z
0x10016081:?SendGroupCmd@GroupManager@GameClient@@QAEXPAVLocalCharacter@2@JJABVVector@@@Z
0x1000e3ae:?SendMessageA@ChatManager@GameClient@@QAEXPAVLocalCharacter@2@W4CHANNEL_TYPE@2@ABV?$basic_string@DU?$char_traits@D@std@@V?$allocator@D@2@@std@@@Z
0x1001116c:?SendMessageA@GroupManager@GameClient@@IAEXPAVLocalCharacter@2@V?$Smart_Ptr@VMessage@1Outpop@@@Utility@Outpop@@@Z
0x1000998f:?SendPass@CPasswordInputUI@@QAEXXZ
0x1000c8ba:?SendText@CChatInputUI@@IAEXXZ
0x1000f0e2:?SetActivation@AnimationModal@@MAEX_N@Z
0x10012080:?SetActivation@Effect_Base@@UAEX_N@Z
0x100068b6:?SetActivation@Effect_DynamicLasers@@UAEX_N@Z
0x10010028:?SetActivation@Effect_LaserParticle@@UAEX_N@Z
0x1000b258:?SetActivation@Effect_Light@@UAEX_N@Z
0x10014182:?SetActivation@Effect_LightBeam@@UAEX_N@Z
0x100123e1:?SetActivation@Effect_LightDizzy@@QAEX_N@Z
0x10011f1d:?SetActivation@Effect_ParticleSystem@@UAEX_N@Z
0x10007257:?SetAimOffsetHUD@AEquip@GameClient@@QAEXABVVector@@@Z
0x10014efc:?SetArmor@CDropBagUI@@IAEXKPBVFProductInfo@GameClient@@@Z
0x10007806:?SetArmor@CRobotRoofUI@@AAEXKPBVFProductInfo@GameClient@@@Z
0x10005920:?SetAsyncLoaderReporter@AdapterActor@GameClient@@QAEXPAVAsyncLoaderReport@@@Z
0x10004a34:?SetAvailable@Func_Power@GameClient@@UAEX_N@Z
0x10006951:?SetAvailable@Func_Receive@GameClient@@UAEX_N@Z
0x1000577c:?SetAvailable@Function@GameClient@@UAEX_N@Z
0x1001a0d2:?SetBackGround@CRadarMapUI@@QAEXABV?$basic_string@_WU?$char_traits@_W@std@@V?$allocator@_W@2@@std@@AAUtagRECT@@@Z
0x10005b64:?SetBackGroundLoc@CRadarMapUI@@QAEXJJ@Z
0x10019637:?SetBackGroundSize@CRadarMapUI@@QAEXJJ@Z
0x10019ec5:?SetBagID@CDropBagUI@@QAEXK@Z
0x10010cc6:?SetBasicSpeed@Robot@GameClient@@QAEXM@Z
0x100113e2:?SetBillboardMaterial@ParticleTrail@@QAEXPAVMaterial@@W4BlendMode@@MMK@Z
0x1000fcf4:?SetBillboardTexture@ParticleTrail@@QAEXPAVTexture@@W4BlendMode@@MMK@Z
0x1001277e:?SetBlendMode@DynamicLasers@@QAEXW4BlendMode@@@Z
0x10001212:?SetBlendMode@Laser@@QAEXW4BlendMode@@@Z
0x1000bbea:?SetBody@CDropBagUI@@IAEXKPBVFProductInfo@GameClient@@@Z
0x10016009:?SetBody@CRobotRoofUI@@AAEXKPBVFProductInfo@GameClient@@@Z
0x100136fb:?SetBuffState@Robot@GameClient@@UAEXK@Z
0x1000c3a6:?SetBuffState@WorldObject@GameClient@@UAEXK@Z
0x10013750:?SetCamDirOffset@Robot@GameClient@@QAEXABVVector@@@Z
0x1000e692:?SetCameraCurDistance@Seat@GameClient@@QAEXM@Z
0x10007388:?SetCameraDist@Seat@GameClient@@QAEXM@Z
0x100149ca:?SetCameraEnable@ControlledEstab@GameClient@@QAEX_N@Z
0x1000ed36:?SetCameraLoc@Seat@GameClient@@QAEXABVVector@@@Z
0x1000e502:?SetCameraLocRot@Seat@GameClient@@QAEXABVMatrix@@@Z
0x100010dc:?SetCameraRot@Seat@GameClient@@QAEXABVVector@@@Z
0x10005245:?SetChannel@CChatInputUI@@IAEXW4CHANNEL_TYPE@GameClient@@@Z
0x10011702:?SetCharacterID@WorldObject@GameClient@@QAEXK@Z
0x10012d1e:?SetChildEquipID@Equip@GameClient@@QAEXK@Z
0x1000b5eb:?SetChip@Establishment@GameClient@@QAEXW4BASE_TYPE@@J@Z
0x100113ab:?SetColor@DynamicLasers@@QAEXK@Z
0x100031b1:?SetColor@Laser@@QAEXK@Z
0x100070ef:?SetControlCenterList@CControlCenterListUI@@QAEXABV?$vector@V?$basic_string@DU?$char_traits@D@std@@V?$allocator@D@2@@std@@V?$allocator@V?$basic_string@DU?$char_traits@D@std@@V?$allocator@D@2@@std@@@2@@std@@ABV?$vector@W4NATION_TYPE@@V?$allocator@W4NATION_TYPE@@@std@@@3@@Z
0x1000cabd:?SetControlEnable@ControlledEstab@GameClient@@QAEX_N@Z
0x10006505:?SetControlerID@Equip@GameClient@@QAEXK@Z
0x10005ffb:?SetControllerType@Seat@GameClient@@QAEXW4ESTAB_CONTROLLER@@@Z
0x10008e04:?SetCorrectPos@ControlledEstab@GameClient@@QAEXABVVector@@@Z
0x10003909:?SetCorrectRotation@ControlledEstab@GameClient@@QAEXABVMatrix@@@Z
0x1000df21:?SetCurCapacitance@Equip@GameClient@@QAEXM@Z
0x10010e56:?SetCurCoreArmor@Robot@GameClient@@QAEXM@Z
0x1000411a:?SetCurDriverStage@ControlledEstab@GameClient@@QAEXH@Z
0x1000e363:?SetCurDriverStageLocal@ControlledEstab@GameClient@@QAEXH@Z
0x1000aa3d:?SetCurEnergy@Booty@GameClient@@QAEXM@Z
0x10001573:?SetCurEquip@Robot@GameClient@@QAEXHH@Z
0x1000c347:?SetCurEstablishment@Robot@GameClient@@QAEXK@Z
0x10019c40:?SetCurItem@CDropBagUI@@IAEXXZ
0x10017eea:?SetCurItem@CRobotRoofUI@@AAEXXZ
0x1001359d:?SetCurNum@Equip@GameClient@@QAEXH@Z
0x10013d4a:?SetCurRobotReceive@CRobotRoofUI@@QAEXK@Z
0x1000ea2f:?SetCurSlotNum@Equip@GameClient@@QAEXH@Z
0x10005240:?SetCurStadiaLevel@Robot@GameClient@@QAEXH@Z
0x1000cd8d:?SetCurUsingEstab@Robot@GameClient@@QAEXK@Z
0x10019317:?SetCurVehicleReceive@CVehicleRoofUI@@QAEXK@Z
0x10016c02:?SetCurrentMap@CBattleFieldDetailUI@@QAEXJ@Z
0x10010582:?SetCurrentNation@Establishment@GameClient@@UAEXW4NATION_TYPE@@@Z
0x1000f9e8:?SetCurrentNation@OccupyIcon@GameClient@@UAEXW4NATION_TYPE@@@Z
0x100058e9:?SetCurrentNation@WorldObject@GameClient@@UAEXW4NATION_TYPE@@@Z
0x10019ac4:?SetCurrentPosition@ControlledEstab@GameClient@@UAEXABVVector@@@Z
0x1000c0a4:?SetCurrentPosition@DamageEquip@GameClient@@UAEXABVVector@@@Z
0x1000289c:?SetCurrentPosition@Equip@GameClient@@UAEXABVVector@@@Z
0x1000de3b:?SetCurrentPosition@Establishment@GameClient@@UAEXABVVector@@@Z
0x1000d71f:?SetCurrentPosition@Robot@GameClient@@UAEXABVVector@@@Z
0x10006ad7:?SetCurrentPosition@SuspendVehicle@GameClient@@UAEXABVVector@@@Z
0x10013d27:?SetCurrentPosition@WorldObject@GameClient@@UAEXABVVector@@@Z
0x10003305:?SetCurrentRotation@ControlledEstab@GameClient@@UAEXABVMatrix@@@Z
0x10004147:?SetCurrentRotation@DamageEquip@GameClient@@UAEXABVMatrix@@@Z
0x10012b75:?SetCurrentRotation@Equip@GameClient@@UAEXABVMatrix@@@Z
0x10015ccb:?SetCurrentRotation@Establishment@GameClient@@UAEXABVMatrix@@@Z
0x10015933:?SetCurrentRotation@Robot@GameClient@@UAEXABVMatrix@@@Z
0x1001941b:?SetCurrentRotation@SuspendVehicle@GameClient@@UAEXABVMatrix@@@Z
0x10004fcf:?SetCurrentRotation@WorldObject@GameClient@@UAEXABVMatrix@@@Z
0x10019e57:?SetCurrentTransState@ControlledEstab@GameClient@@QAE_NW4TransStateType@CtlEstabTransState@2@@Z
0x1000e566:?SetCursorDrawn@Game@@QAEX_N@Z
0x10006384:?SetCursorVisible@Game@@QAEX_N@Z
0x1000a41b:?SetDefaults@ParticleSystem@@UAEXXZ
0x10004b60:?SetDefaults@TraceLineSystem@@UAEXXZ
0x10013b06:?SetDefaultsMoving@ParticleSystem@@UAEXXZ
0x10015f0f:?SetDefaultsMoving@TraceLineSystem@@UAEXXZ
0x10018845:?SetDoorState@EstabDoor@GameClient@@QAEXW4STATE_DOOR_TYPE@2@@Z
0x1000456b:?SetDrawLoading@Game@@QAEX_N@Z
0x1000355d:?SetEffectBias@Func_Sheild@GameClient@@QAEXMMABVVector@@@Z
0x1000d571:?SetEffectShape@Func_Sheild@GameClient@@QAEXW4EffectShape@@@Z
0x10007b8f:?SetEndPoints@Laser@@QAEXAAVVector@@0@Z
0x10008409:?SetEnergy@CDropBagUI@@IAEXKPBVFProductInfo@GameClient@@@Z
0x10008f26:?SetEnergy@CRobotRoofUI@@AAEXKPBVFProductInfo@GameClient@@@Z
0x10004f0c:?SetEnergy@Func_Power@GameClient@@QAEXM@Z
0x10016fb3:?SetEnergy@Robot@GameClient@@QAEXM@Z
0x10017ffd:?SetEnterEstabArea@Robot@GameClient@@QAEXK@Z
0x1000af15:?SetEstab@AircraftVehicleController@GameClient@@UAE_NPAVEstablishment@2@@Z
0x10009e8f:?SetEstab@ICtlEstabController@GameClient@@UAE_NPAVEstablishment@2@@Z
0x100021c1:?SetEstab@IEstabController@GameClient@@UAE_NPAVEstablishment@2@@Z
0x1000182a:?SetEstab@PassengerController@GameClient@@UAE_NPAVEstablishment@2@@Z
0x10003d32:?SetEstab@PedrailVehicleController@GameClient@@UAE_NPAVEstablishment@2@@Z
0x10008a3a:?SetEstab@SuspendVehicleController@GameClient@@UAE_NPAVEstablishment@2@@Z
0x10010af0:?SetEstab@WheelVehicleController@GameClient@@UAE_NPAVEstablishment@2@@Z
0x10002829:?SetEstabEnergy@Establishment@GameClient@@QAEXM@Z
0x10018cdc:?SetEstabHyperEnergy@Establishment@GameClient@@QAEXM@Z
0x1000f119:?SetEstablishment@CEstablishmentUI@@QAEXK@Z
0x10015d1b:?SetExEnergy@Robot@GameClient@@QAEXM@Z
0x100020a9:?SetFade@DynamicLasers@@QAEXMM@Z
0x10008201:?SetFlyweight@AircraftVehicle@GameClient@@UAEXPAVFlyweight@2@@Z
0x1000b13b:?SetFlyweight@ControlledEstab@GameClient@@UAEXPAVFlyweight@2@@Z
0x1000ab41:?SetFlyweight@DataObject@GameClient@@UAEXPAVFlyweight@2@@Z
0x1000ba7d:?SetFlyweight@PedrailVehicle@GameClient@@UAEXPAVFlyweight@2@@Z
0x1000e57a:?SetFlyweight@SuspendVehicle@GameClient@@UAEXPAVFlyweight@2@@Z
0x100029aa:?SetFlyweight@WheelVehicle@GameClient@@UAEXPAVFlyweight@2@@Z
0x10017102:?SetFlyweightFilename@Flyweight@GameClient@@QAEXABV?$basic_string@DU?$char_traits@D@std@@V?$allocator@D@2@@std@@@Z
0x1000a18c:?SetFlyweightID@DataObject@GameClient@@QAEXK@Z
0x10004552:?SetFlyweightID@Flyweight@GameClient@@QAEXK@Z
0x1000bac8:?SetForceOutside@CRadarMapUI@@QAEX_N@Z
0x10012f9e:?SetFormState@Robot@GameClient@@QAEXW4RobotForm@12@@Z
0x10016b2b:?SetFreeCamera@Seat@GameClient@@QAEX_N@Z
0x100094c6:?SetFreeCameraRot@Seat@GameClient@@QAEXABVVector@@@Z
0x1000c08b:?SetFxMaterialValue@AdapterActor@GameClient@@QAE_NHM@Z
0x10002662:?SetHandOffsetLoc@CombinRobot@GameClient@@QAEXABVVector@@@Z
0x1000996c:?SetHasChip@Establishment@GameClient@@QAEX_N@Z
0x1000d0b2:?SetHasPhysModel@ControlledEstab@GameClient@@UAEX_N@Z
0x100040a2:?SetHasPhysModel@Establishment@GameClient@@UAEX_N@Z
0x1000ae1b:?SetHasPhysModel@NonControlledEstab@GameClient@@UAEX_N@Z
0x10009bc4:?SetHeadingMsgVisible@AdapterActor@GameClient@@QAEX_N@Z
0x1001766b:?SetHeat@Func_Power@GameClient@@QAEXM@Z
0x1000209a:?SetHyperEnergy@Func_Power@GameClient@@QAEXM@Z
0x10019cd6:?SetImpluseAccel@ControlledEstab@GameClient@@QAEXM@Z
0x10004638:?SetInSelectPosMode@CRadarMapUI@@QAEX_N@Z
0x100020ef:?SetIndensity@Effect_LightDizzy@@QAEXM@Z
0x1000d42c:?SetInsideMap@CRadarMapUI@@QAEXV?$basic_string@DU?$char_traits@D@std@@V?$allocator@D@2@@std@@UtagRECT@@VBBox@@@Z
0x1000ae9d:?SetIntensity@Effect_Base@@UAEXM@Z
0x10017922:?SetIntensity@Effect_DynamicLasers@@UAEXM@Z
0x1000b3ca:?SetIntensity@Effect_LaserParticle@@UAEXM@Z
0x10007d6f:?SetIntensity@Effect_ParticleSystem@@UAEXM@Z
0x1000da6c:?SetIsDamanged@ControlledEstab@GameClient@@UAEX_N@Z
0x1000ca40:?SetIsDamanged@Establishment@GameClient@@UAEX_N@Z
0x10012b7f:?SetIsErase@COccupyEstabUI@@QAEX_N@Z
0x10002077:?SetIsInside@CRadarMapUI@@QAEX_N@Z
0x1000f41b:?SetLeader@Group@GameClient@@QAEXK@Z
0x100123fa:?SetLeftTop@CHallMapUI@@QAEXJJ@Z
0x10001145:?SetLevel@CRadarMapUI@@QAEXJ@Z
0x10008049:?SetLocal@WorldObject@GameClient@@QAEX_N@Z
0x10011efa:?SetLocalRotation@Seat@GameClient@@QAEXAAVVector@@@Z
0x10017fcb:?SetLocation@Seat@GameClient@@QAEXABVVector@@@Z
0x1000c126:?SetLockType@Establishment@GameClient@@QAEXJ@Z
0x1001023a:?SetMapLoc@CRadarMapUI@@QAEXJJ@Z
0x10018020:?SetMapPic@CRadarMapUI@@QAEXABV?$basic_string@DU?$char_traits@D@std@@V?$allocator@D@2@@std@@AAUtagRECT@@@Z
0x1000e33b:?SetMapRect@BigMapState@@IAEXXZ
0x100096c9:?SetMapSize@CRadarMapUI@@QAEXJJ@Z
0x1001a109:?SetMapStatus@BattleFieldManager@GameClient@@QAEXJABV?$hash_map@W4NATION_TYPE@@JV?$hash_compare@W4NATION_TYPE@@U?$less@W4NATION_TYPE@@@std@@@stdext@@V?$allocator@U?$pair@$$CBW4NATION_TYPE@@J@std@@@std@@@stdext@@J@Z
0x10018237:?SetMapUI@MapState@@UAEXPAVCRadarMapUI@@@Z
0x10003995:?SetMaxEnergy@Func_Power@GameClient@@QAEXM@Z
0x10010677:?SetMaxHyperEnergy@Func_Power@GameClient@@QAEXM@Z
0x100024e1:?SetMaxNodes@DynamicLasers@@QAEXI@Z
0x100093e5:?SetMaxParticles@ParticleSystem@@UAEXH@Z
0x10012fe9:?SetMaxParticles@PhysicsParticles@@UAEXH@Z
0x10014713:?SetMaxPriorityNum@SoundMgr@@QAEXHM@Z
0x1000467e:?SetMaxStadiaLevel@Robot@GameClient@@QAEXH@Z
0x100059e3:?SetMaxTraceLine@TraceLineSystem@@UAEXH@Z
0x10009f07:?SetMinPriorityNum@SoundMgr@@QAEXHM@Z
0x10003c7e:?SetMovementState@Robot@GameClient@@QAEXW4RobotMovement@12@@Z
0x10006005:?SetNodeInfluence@AdapterActor@GameClient@@QAEXABV?$basic_string@DU?$char_traits@D@std@@V?$allocator@D@2@@std@@AAVMatrix@@@Z
0x100152a8:?SetNodeLife@DynamicLasers@@QAEXM@Z
0x1000abff:?SetNodeSpeed@AdapterActor@GameClient@@QAE_NABV?$basic_string@DU?$char_traits@D@std@@V?$allocator@D@2@@std@@ABVVector@@@Z
0x10015776:?SetNovodexParticles@ParticleSystem@@UAEXPAVNovodexParticles@@@Z
0x10009151:?SetOutside@CRadarMapUI@@QAEXXZ
0x1000d0d0:?SetOwner@Function@GameClient@@QAEXPAVWorldObject@2@@Z
0x10010b2c:?SetOwner@Seat@GameClient@@QAEXPAVEstablishment@2@@Z
0x1000b00a:?SetOwnerDamaged@Seat@GameClient@@QAEX_N@Z
0x10016b67:?SetOwnerEstablishment@Equip@GameClient@@QAEXPAVEstablishment@2@@Z
0x1000a259:?SetOwnerID@DamageEquip@GameClient@@QAEXK@Z
0x10009ad4:?SetOwnerShip@SystemPart@GameClient@@QAEXPAVRobot@2@@Z
0x1000f826:?SetParentAA@AdapterActor@GameClient@@QAEXPAV12@@Z
0x10010668:?SetParticleDefaults@BouncyParticles@@UAEXAAVParticle@@@Z
0x10019d1c:?SetParticleDefaults@ParticleSystem@@UAEXAAVParticle@@@Z
0x10019736:?SetParticleDefaults@ParticleSystemEx@@UAEXAAVParticle@@@Z
0x1000e90d:?SetParticleDefaults@PhysicsParticles@@UAEXAAVParticle@@@Z
0x1001295e:?SetParticleDefaults@RandomTextureParticles@@UAEXAAVParticle@@@Z
0x10008a94:?SetParticleDefaults@RandomTextureParticlesEx@@UAEXAAVParticle@@@Z
0x1000ee76:?SetParticleDefaults@RandomTexturePhysicsParticles@@UAEXAAVParticle@@@Z
0x10019628:?SetPhysicsProperties@PhysicsParticles@@UAEXH_NMMHHHM@Z
0x1000869d:?SetPlusinCapability@WorldObject@GameClient@@QAEXK@Z
0x1001a7c1:?SetPostureState@Robot@GameClient@@QAEXW4RobotPosture@12@@Z
0x10002f9f:?SetProperties@ParticleTrail@@QAEXM_NW4BlendMode@@MMVVector@@2MMMMMKM@Z
0x1000abf0:?SetQueuePos@CWaitQueueUI@@QAEXHAAV?$vector@KV?$allocator@K@std@@@std@@JK@Z
0x1000feac:?SetRadirRange@RobotArmor@GameClient@@QAEXH@Z
0x1001aa46:?SetRange@CMiniWorldMapUI@@QAEXJJJJ@Z
0x1000eaed:?SetRange@COccupyEstabUI@@QAEXM@Z
0x1001aa5f:?SetRebornFunction@Robot@GameClient@@QAEXK@Z
0x10012b3e:?SetReplaceEquip@Equip@GameClient@@QAEXKH@Z
0x1001608b:?SetRobotInside@CRadarMapUI@@QAEX_N@Z
0x1000eb38:?SetRotation@Seat@GameClient@@QAEXABVMatrix@@@Z
0x10013eda:?SetRotationAccel@Seat@GameClient@@QAEXAAVVector@@@Z
0x1000cda6:?SetRotationSpeed@Seat@GameClient@@QAEXAAVVector@@@Z
0x100134d5:?SetScale@Effect_Base@@UAEXM@Z
0x10012e68:?SetScale@Effect_DynamicLasers@@UAEXM@Z
0x1001309d:?SetScale@Effect_Light@@UAEXM@Z
0x100095b1:?SetSeatIndex@Seat@GameClient@@QAEXJ@Z
0x1000eb3d:?SetSeatNum@Robot@GameClient@@QAEXH@Z
0x100029d7:?SetSendPassMode@CPasswordInputUI@@QAEX_N@Z
0x1000b622:?SetShootState@Weapon@GameClient@@QAEXW4ShootState@12@@Z
0x1001921d:?SetSpeed@COccupyEstabUI@@QAEXM@Z
0x100055fb:?SetStartEnd@Effect_Base@@UAEXAAVVector@@0@Z
0x100097eb:?SetStartEnd@Effect_Laser@@UAEXAAVVector@@0@Z
0x10003d91:?SetStartProgress@COccupyEstabUI@@QAEXM@Z
0x1000e7c3:?SetSubWeapon@CDropBagUI@@IAEXHKK_N@Z
0x100160e0:?SetSubWeapon@CRobotRoofUI@@AAEXHK@Z
0x1001219d:?SetSurvivalState@Robot@GameClient@@QAEXW4RobotSurvival@12@@Z
0x1001a4ec:?SetTraceLineDefaults@RandomTextureTraceLine@@UAEXAAVTraceLine@@@Z
0x1000fbbe:?SetTraceLineDefaults@RandomTextureTraceLineEx@@UAEXAAVTraceLine@@@Z
0x10014dd0:?SetTraceLineDefaults@TraceLineSystem@@UAEXAAVTraceLine@@@Z
0x100038b4:?SetTraceLineDefaults@TraceLineSystemEx@@UAEXAAVTraceLine@@@Z
0x1000fe16:?SetTransform@AnimationModal@@MAEXABVMatrix@@@Z
0x10015e01:?SetTransform@Effect_Base@@UAEXABVMatrix@@@Z
0x100062b2:?SetTransform@Effect_Laser@@UAEXABVMatrix@@@Z
0x10019e25:?SetTransform@Effect_LightBeam@@UAEXABVMatrix@@@Z
0x1000a277:?SetTransport@CPowerTransportUI@@QAEXPAVFunc_Power@GameClient@@0@Z
0x10002199:?SetTriggerLoc@Interactable@GameClient@@UAEXABVVector@@@Z
0x1000aa92:?SetUpSpeed@Robot@GameClient@@QAEXM@Z
0x1001463c:?SetVelocity@DamageEquip@GameClient@@QAEXABVVector@@@Z
0x10002be4:?SetVelocity@Robot@GameClient@@QAEXABVVector@@@Z
0x1001ac4e:?SetVisible@Effect_Base@@UAEX_N@Z
0x1000c018:?SetVisible@Effect_Light@@UAEX_N@Z
0x10015834:?SetWeapon@CDropBagUI@@IAEXHKK_N@Z
0x1001aae1:?SetWeapon@CRobotRoofUI@@AAEXHK@Z
0x100153fc:?SetWidth@DynamicLasers@@QAEXM@Z
0x10009589:?SetWorld@AnimationModal@@MAEXPAVWorld@@@Z
0x10006ab4:?SetWorld@Effect_Base@@UAEXPAVWorld@@@Z
0x10016a36:?SetWorld@Effect_MultiTexParticles@@UAEXPAVWorld@@@Z
0x100179b8:?SetWorld@Effect_ShadedParticles@@UAEXPAVWorld@@@Z
0x1000c892:?SetWorld@Effect_TraceLineSystem@@UAEXPAVWorld@@@Z
0x100167fc:?SetWorld@SenceBackgroundMusicPlayer@@UAEXPAVWorld@@@Z
0x10019dfd:?SetupParticle@ParticleTrail@@IAEXPAVParticleTrailNode@@AAVVector@@@Z
0x1000eed0:?ShakeCamera@CameraHandler@@QAEXAAVVector@@0M@Z
0x10018ca0:?Shoot@Weapon@GameClient@@QAEXHABVVector@@0H@Z
0x10016a72:?Show@CBattleFieldDetailUI@@QAEXJJ@Z
0x1000d855:?Show@CDropBagUI@@QAEXXZ
0x10005105:?Show@CMiniWorldMapUI@@QAEXXZ
0x1000d95e:?Show@GUIConsole@@QAEX_N@Z
0x1000dc0b:?ShowBag@CDropBagUI@@IAEXXZ
0x1000632f:?ShowChannelList@CChatInputUI@@IAEX_N@Z
0x100072b1:?ShowDamage@Robot@GameClient@@QAEXABVVector@@K@Z
0x10019493:?ShowEuiqpInfo@CRobotRoofUI@@AAEXK@Z
0x10017373:?ShowMapInfo@CRadarMapUI@@QAEX_N@Z
0x10007824:?ShowMember@CGroupMemberUI@@QAEXXZ
0x1001390d:?ShowTeam@GUIConsole@@QAEXH@Z
0x100166d5:?ShowTeamNoSend@GUIConsole@@QAEXXZ
0x1000736f:?Shutdown@BattleFieldManager@GameClient@@UAE_NXZ
0x100197f9:?Shutdown@FlyweightManager@GameClient@@QAEXXZ
0x1000d5c6:?Shutdown@Game@@QAEXXZ
0x10001de8:?Shutdown@HUDSystem@@QAEXXZ
0x100198bc:?Shutdown@LocalUserManager@GameClient@@UAE_NXZ
0x1000b33e:?SignedRand@ParticleSystem@@QAEMXZ
0x1000ae4d:?SignedRand@TraceLineSystem@@QAEMXZ
0x100015ff:?SpecialUse@Equip@GameClient@@UAE_NXZ
0x10014051:?SpecialUse@Item@GameClient@@UAE_NXZ
0x10019623:?SpecialUse@Robot@GameClient@@QAEXXZ
0x1000feb6:?SpecialUse@Weapon@GameClient@@UAE_NXZ
0x103b54ec:?StartLeft@Laser@@0VVector@@A
0x103b54e0:?StartRight@Laser@@0VVector@@A
0x10017ce2:?StartShake@Equip@GameClient@@UAEXXZ
0x10016d83:?StartSpawningNow@ParticleSystem@@UAEXXZ
0x10015afa:?StartSpawningNow@TraceLineSystem@@UAEXXZ
0x1000f434:?StartSpawningParticles@Effect_LaserParticle@@UAEXXZ
0x1000853a:?StartSpawningParticles@Effect_MultiTexParticles@@UAEXXZ
0x100098a4:?StartSpawningParticles@Effect_ParticleSystem@@UAEXXZ
0x10016a22:?StartSpawningParticles@Effect_Precipitation@@UAEXXZ
0x1000c513:?StartSpawningParticles@Effect_ShadedParticles@@UAEXXZ
0x10004e6c:?StatusUIEvent@CStatusUI@@CGXPAVCREDialog@@IHPAVCREControl@@IJ@Z
0x1001a889:?Steer@Robot@GameClient@@UAEXW4ROBOT_STEER_FLAG@2@@Z
0x10016c5c:?SteerTo@Robot@GameClient@@UAEXVVector4@@M@Z
0x100150eb:?Stop@Equip@GameClient@@UAEXXZ
0x10008319:?Stop@Item@GameClient@@UAEXXZ
0x10013291:?Stop@Weapon@GameClient@@UAEXXZ
0x10012d0a:?StopCast@AAlarm@GameClient@@UAEXXZ
0x1001471d:?StopCast@AMovement@GameClient@@UAEXXZ
0x10012963:?StopCast@ASatelliteCapability@GameClient@@UAEXXZ
0x1001a4c9:?StopCast@ASummon@GameClient@@UAEXXZ
0x10018043:?StopCast@Aura@GameClient@@UAEXXZ
0x10001f37:?StopCast@SkillManager@GameClient@@QAEXPAVWorldObject@2@0PAVSkill@2@@Z
0x10008a85:?StopSpawningNow@ParticleSystem@@UAEXXZ
0x100127ce:?StopSpawningNow@TraceLineSystem@@UAEXXZ
0x1001123e:?StopSpawningParticles@Effect_LaserParticle@@UAEXXZ
0x1000c941:?StopSpawningParticles@Effect_MultiTexParticles@@UAEXXZ
0x10005dc6:?StopSpawningParticles@Effect_ParticleSystem@@UAEXXZ
0x1000c6b7:?StopSpawningParticles@Effect_Precipitation@@UAEXXZ
0x10017305:?StopSpawningParticles@Effect_ShadedParticles@@UAEXXZ
0x10001947:?StopSpecialUse@Equip@GameClient@@UAE_NXZ
0x10014d12:?StopSpecialUse@Item@GameClient@@UAE_NXZ
0x1000742d:?StopSpecialUse@Robot@GameClient@@QAEXXZ
0x10012927:?StopSpecialUse@Weapon@GameClient@@UAE_NXZ
0x1000bb7c:?StopUse@Equip@GameClient@@UAE_NXZ
0x100041ab:?StopUse@Item@GameClient@@UAE_NXZ
0x1000b208:?StopUse@Robot@GameClient@@QAEXXZ
0x10013822:?StopUse@Weapon@GameClient@@UAE_NXZ
0x100135a2:?Submit@CVehicleRoofUI@@IAEXXZ
0x10013b47:?SubmitChange@CDropBagUI@@IAEXXZ
0x10013f02:?SubmitDisableSkill@Item@GameClient@@QAEXXZ
0x10013ad9:?SubmitDisableSkill@Robot@GameClient@@QAEXXZ
0x10006de3:?SubmitEnableSkill@Item@GameClient@@QAEXM@Z
0x100145dd:?SubmitEnableSkill@Robot@GameClient@@QAEXHM@Z
0x10019579:?SubmitEndUse@Establishment@GameClient@@UAE_NPAVLocalCharacter@2@@Z
0x10012e72:?SubmitEstabInfo@Establishment@GameClient@@QAEXJJ@Z
0x1000810c:?SubmitImbileEnergy@Booty@GameClient@@QAEX_N@Z
0x100053fd:?SubmitLeadingSkill@Item@GameClient@@QAEXH_N@Z
0x1000b15e:?SubmitLeadingSkill@Robot@GameClient@@QAEXH_N@Z
0x1000c487:?SubmitOccupyRequest@Establishment@GameClient@@UAE_NPAVLocalCharacter@2@@Z
0x100163c4:?SubmitOrder@Func_Receive@GameClient@@UAEXPAVLocalCharacter@2@ABV?$vector@KV?$allocator@K@std@@@std@@_N@Z
0x1000ee44:?SubmitProduce@CRobotRoofUI@@AAEX_N@Z
0x10011559:?SubmitTransform@ControlledEstab@GameClient@@QAEXW4TransStateType@CtlEstabTransState@2@@Z
0x1000ad17:?SubmitUse@Establishment@GameClient@@UAE_NPAVLocalCharacter@2@@Z
0x100114be:?Suicide@Robot@GameClient@@QAEXXZ
0x1000c24d:?SwapEquip@Booty@GameClient@@QAEXABV?$vector@KV?$allocator@K@std@@@std@@@Z
0x10011577:?SwitchEstabState@Establishment@GameClient@@QAE_NW4Estab_State_Type@2@@Z
0x10006c21:?SwitchWeaponPattern@Weapon@GameClient@@QAEXH@Z
0x1000afd8:?SyncSeatRotation@Establishment@GameClient@@UAEXJABVVector@@@Z
0x1000e953:?SyncSeatRotation@Seat@GameClient@@QAEXABVVector@@@Z
0x10005533:?TakeOff@Equip@GameClient@@UAEXXZ
0x1000f380:?TakeUp@Equip@GameClient@@UAEXXZ
0x10006870:?TakeUp@TransformItem@GameClient@@UAEXXZ
0x1001a415:?Tick@AEquip@GameClient@@UAEXXZ
0x10005231:?Tick@AdapterActor@GameClient@@UAEXXZ
0x1000a443:?Tick@AnimationModal@@MAEXXZ
0x100019dd:?Tick@BigMapState@@UAEXXZ
0x10007ed7:?Tick@BouncyParticles@@UAEXXZ
0x100039d6:?Tick@CAlarmMessageUI@@UAEXM@Z
0x1001a2b7:?Tick@CBattleFieldDetailUI@@UAEXM@Z
0x1000912e:?Tick@CChatInputUI@@UAEXM@Z
0x1000f4cf:?Tick@CChatMessageUI@@UAEXM@Z
0x10012efe:?Tick@CControlCenterListUI@@UAEXM@Z
0x1000ea9d:?Tick@CDropBagUI@@UAEXM@Z
0x10013881:?Tick@CEstablishmentUI@@UAEXM@Z
0x1000fc27:?Tick@CGroupMemberUI@@UAEXM@Z
0x100016b8:?Tick@CGroupQuickCallUI@@UAEXM@Z
0x1000c54a:?Tick@CHallMapUI@@UAEXM@Z
0x100092d2:?Tick@CKillingInfoUI@@UAEXM@Z
0x100133a9:?Tick@CLoginUI@@UAEXM@Z
0x10006136:?Tick@CMiniWorldMapUI@@UAEXM@Z
0x1000692e:?Tick@COccupyEstabUI@@UAEXM@Z
0x10016171:?Tick@CPasswordInputUI@@UAEXM@Z
0x10017823:?Tick@CPowerTransportUI@@UAEXM@Z
0x100089cc:?Tick@CRadarMapUI@@UAEXM@Z
0x1001a50f:?Tick@CRobotRoofUI@@UAEXM@Z
0x1000cc07:?Tick@CStatusUI@@UAEXM@Z
0x10010e9c:?Tick@CVehicleRoofUI@@UAEXM@Z
0x100070e0:?Tick@CWaitQueueUI@@UAEXM@Z
0x100109a1:?Tick@CameraHandler@@QAEX_N@Z
0x10016793:?Tick@CombinActor@GameClient@@UAEXXZ
0x100059f7:?Tick@DynamicLasers@@UAEXXZ
0x100199a2:?Tick@Effect_Base@@UAEXXZ
0x1000584e:?Tick@Effect_DynamicLasers@@UAEXXZ
0x10002590:?Tick@Effect_Laser@@UAEXXZ
0x10011da6:?Tick@Effect_LaserParticle@@UAEXXZ
0x1000668b:?Tick@Effect_Light@@UAEXXZ
0x1000dfcb:?Tick@Effect_LightBeam@@UAEXXZ
0x10017ec7:?Tick@Effect_LightDizzy@@UAEXXZ
0x1000e31d:?Tick@Effect_MultiTexParticles@@UAEXXZ
0x100161e9:?Tick@Effect_MultiTexParticlesEx@@UAEXXZ
0x10017c4c:?Tick@Effect_ParticleSystem@@UAEXXZ
0x1001880e:?Tick@Effect_ParticleSystemEx@@UAEXXZ
0x10018629:?Tick@Effect_Precipitation@@UAEXXZ
0x10019ffb:?Tick@Effect_ShadedParticles@@UAEXXZ
0x10016e46:?Tick@Effect_TraceLineSystem@@UAEXXZ
0x10004322:?Tick@Game@@QAEXXZ
0x1000fed4:?Tick@HUDSystem@@QAEXXZ
0x1000f835:?Tick@HookAlarmArea@@UAEXXZ
0x100196cd:?Tick@HookEsbAirDrop@@UAEXXZ
0x10001a19:?Tick@HookEsbEnergy@@UAEXXZ
0x100177b0:?Tick@HookEsbProduce@@UAEXXZ
0x10007793:?Tick@HookEsbSheild@@UAEXXZ
0x10004c78:?Tick@HookEsbStore@@UAEXXZ
0x10002e8c:?Tick@HookEsbTake@@UAEXXZ
0x1001a866:?Tick@HookEsbTransport@@UAEXXZ
0x1000986d:?Tick@HookEstablishment@@UAEXXZ
0x1000939f:?Tick@Laser@@UAEXXZ
0x100088f0:?Tick@LaserParticleSystem@@UAEXXZ
0x10009863:?Tick@MapStateManager@@QAEXXZ
0x10010d1b:?Tick@ParticleSystem@@UAEXXZ
0x1000b9ce:?Tick@ParticleSystemEx@@UAEXXZ
0x1000738d:?Tick@ParticleTrail@@UAEXXZ
0x10015ec9:?Tick@PhysicsParticles@@UAEXXZ
0x1000e03e:?Tick@RadarMapState@@UAEXXZ
0x1000849f:?Tick@RandomTextureParticlesEx@@UAEXXZ
0x10012be3:?Tick@RandomTextureTraceLineEx@@UAEXXZ
0x10010dd4:?Tick@SampleBullet@@UAEXXZ
0x1000aaec:?Tick@SamplePlayer@@UAEXXZ
0x10006415:?Tick@SenceBackgroundMusicPlayer@@UAEXXZ
0x100140ba:?Tick@SurfaceDecal@@UAEXXZ
0x1000d72e:?Tick@TraceLineSystem@@UAEXXZ
0x10012c3d:?Tick@TraceLineSystemEx@@UAEXXZ
0x1000a0fb:?Tick@WaterDecal@@UAEXXZ
0x1000bd57:?Touched@SampleBullet@@UAEXPAVActor@@PAUCollisionInfo@@@Z
0x10003175:?UnBoard@Seat@GameClient@@QAE_NPAVRobot@2@_N@Z
0x10003e1d:?UnSelectCell@CDropBagUI@@IAEX_NH@Z
0x10001e60:?UnSelectCell@CRobotRoofUI@@AAEXW4SELECT_TYPE@1@H@Z
0x10005af1:?UnloadHUD@Equip@GameClient@@QAEXXZ
0x10001771:?UnloadResource@AircraftVehicle@GameClient@@UAEXXZ
0x1000d788:?UnloadResource@Booty@GameClient@@UAEXXZ
0x1001914b:?UnloadResource@ControlledEstab@GameClient@@UAEXXZ
0x1000dcec:?UnloadResource@DamageEquip@GameClient@@UAEXXZ
0x1001507d:?UnloadResource@Equip@GameClient@@UAEXXZ
0x1001262a:?UnloadResource@EstabDoor@GameClient@@UAEXXZ
0x10004629:?UnloadResource@Establishment@GameClient@@UAEXXZ
0x100036d9:?UnloadResource@Item@GameClient@@UAEXXZ
0x10009543:?UnloadResource@NonControlledEstab@GameClient@@UAEXXZ
0x10017396:?UnloadResource@OccupyIcon@GameClient@@UAEXXZ
0x1001794f:?UnloadResource@Robot@GameClient@@UAEXXZ
0x10012ce7:?UnloadResource@RobotArmor@GameClient@@UAEXXZ
0x1000c009:?UnloadResource@RobotBody@GameClient@@UAEXXZ
0x10010884:?UnloadResource@RobotCore@GameClient@@UAEXXZ
0x1000ec0a:?UnloadResource@SystemPart@GameClient@@UAEXXZ
0x10018c5f:?UnloadResource@TransformItem@GameClient@@UAEXXZ
0x10015541:?UnloadResource@Weapon@GameClient@@UAEXXZ
0x100093a9:?UnloadResource@WorldObject@GameClient@@UAEXXZ
0x10013453:?UnloadResourceFPV@Equip@GameClient@@UAEXXZ
0x1001a51e:?UnloadResourcesFPV@AEquip@GameClient@@UAEXXZ
0x1000f31c:?Unproject@CameraHandler@@QAE?AVVector@@V2@@Z
0x1000c149:?Update@AMovement@GameClient@@UAEXM@Z
0x10017724:?Update@ARepair@GameClient@@UAEXM@Z
0x1000828d:?Update@ASummon@GameClient@@UAEXM@Z
0x10010c71:?Update@AircraftVehicle@GameClient@@UAEXM@Z
0x1000c329:?Update@Aura@GameClient@@UAEXM@Z
0x1000533a:?Update@AuraManager@GameClient@@QAEXM@Z
0x10008c51:?Update@BattleFieldManager@GameClient@@UAEXM@Z
0x10014146:?Update@Booty@GameClient@@UAEXM@Z
0x10010807:?Update@ControlledEstab@GameClient@@UAEXM@Z
0x10002da6:?Update@DamageEquip@GameClient@@UAEXM@Z
0x1000f85d:?Update@Equip@GameClient@@UAEXM@Z
0x1000fa29:?Update@EstabDoor@GameClient@@UAEXM@Z
0x10007ff9:?Update@Establishment@GameClient@@UAEXM@Z
0x1000664a:?Update@Func_Power@GameClient@@UAEXM@Z
0x10010c5d:?Update@Func_Receive@GameClient@@UAEXM@Z
0x1000ed5e:?Update@Func_RobotReceive@GameClient@@UAEXM@Z
0x10002bcb:?Update@Func_VehicleReceive@GameClient@@UAEXM@Z
0x10017a99:?Update@Function@GameClient@@UAEXM@Z
0x100167ca:?Update@Item@GameClient@@UAEXM@Z
0x100061c2:?Update@LocalUserManager@GameClient@@UAEXM@Z
0x10016e41:?Update@NonControlledEstab@GameClient@@UAEXM@Z
0x10015609:?Update@OccupyIcon@GameClient@@UAEXM@Z
0x100056eb:?Update@PedrailVehicle@GameClient@@UAEXM@Z
0x1000f74f:?Update@Robot@GameClient@@UAEXM@Z
0x1000b32f:?Update@SAlarm@GameClient@@UAEXM@Z
0x1000f2d1:?Update@SLock@GameClient@@UAEXM@Z
0x100066c2:?Update@SOccupy@GameClient@@UAEXM@Z
0x10010ebf:?Update@Seat@GameClient@@QAEXM@Z
0x1000497b:?Update@Skill@GameClient@@UAEXM@Z
0x1000204a:?Update@SoundMgr@@QAEXXZ
0x100137a5:?Update@SuspendVehicle@GameClient@@UAEXM@Z
0x10019bdc:?Update@TransformItem@GameClient@@UAEXM@Z
0x1000baaf:?Update@Weapon@GameClient@@UAEXM@Z
0x1000e188:?Update@WheelVehicle@GameClient@@UAEXM@Z
0x10012deb:?Update@WorldObject@GameClient@@UAEXM@Z
0x100069f1:?UpdateArmor@Establishment@GameClient@@QAEXABV?$vector@MV?$allocator@M@std@@@std@@@Z
0x1000d6cf:?UpdateBeamsInfos@LightBeam@@QAEXXZ
0x1000a39e:?UpdateCamera@ControlledEstab@GameClient@@UAEXH@Z
0x1000ef6b:?UpdateCamera@Establishment@GameClient@@UAEXH@Z
0x10013dcc:?UpdateCamera@Robot@GameClient@@UAEXXZ
0x1001573f:?UpdateCamera@SamplePlayer@@UAEXXZ
0x100190f1:?UpdateCamera@Seat@GameClient@@UAEXABVVector@@_N@Z
0x10001406:?UpdateCommando@GroupManager@GameClient@@QAEXK@Z
0x1000df08:?UpdateCorpCmd@GroupManager@GameClient@@QAEXABVVector@@ABV?$basic_string@DU?$char_traits@D@std@@V?$allocator@D@2@@std@@@Z
0x10008fbc:?UpdateCorpInfo@GroupManager@GameClient@@QAEXJABV?$basic_string@DU?$char_traits@D@std@@V?$allocator@D@2@@std@@@Z
0x1001665d:?UpdateCorpMemberInfo@GroupManager@GameClient@@QAEXABV?$vector@V?$vector@UGroupMemberInfo@@V?$allocator@UGroupMemberInfo@@@std@@@std@@V?$allocator@V?$vector@UGroupMemberInfo@@V?$allocator@UGroupMemberInfo@@@std@@@std@@@2@@std@@@Z
0x10008e59:?UpdateEntryPoint@BattleFieldManager@GameClient@@QAEXJABV?$vector@UBATTLE_ENTRY@GameClient@@V?$allocator@UBATTLE_ENTRY@GameClient@@@std@@@std@@@Z
0x1000a042:?UpdateFPV@Equip@GameClient@@UAEXXZ
0x1000f8df:?UpdateFPV@Weapon@GameClient@@UAEXXZ
0x10014f24:?UpdateGroupCmd@Group@GameClient@@QAEXJJABVVector@@@Z
0x10008f3f:?UpdateGroupCmd@GroupManager@GameClient@@QAEXKJJABVVector@@@Z
0x100155be:?UpdateGroupMemberInfo@GroupManager@GameClient@@QAEXKAAVBinStream@@@Z
0x10005560:?UpdateHUD@Equip@GameClient@@UAEXXZ
0x10019777:?UpdateHUD@Robot@GameClient@@QAEXXZ
0x1000d7ec:?UpdateHUD@Weapon@GameClient@@UAEXXZ
0x1001355c:?UpdateInput@AircraftVehicleController@GameClient@@UAEXPAVSeat@2@@Z
0x10004377:?UpdateInput@Equip@GameClient@@UAEXXZ
0x10003e09:?UpdateInput@Establishment@GameClient@@UAEXH@Z
0x10009381:?UpdateInput@Game@@AAEXXZ
0x10018d0e:?UpdateInput@ICtlEstabController@GameClient@@UAEXPAVSeat@2@@Z
0x100125c1:?UpdateInput@IEstabController@GameClient@@UAEXPAVSeat@2@@Z
0x10012eea:?UpdateInput@Item@GameClient@@UAEXXZ
0x10006596:?UpdateInput@PassengerController@GameClient@@UAEXPAVSeat@2@@Z
0x10013e17:?UpdateInput@PedrailVehicleController@GameClient@@UAEXPAVSeat@2@@Z
0x10001ec4:?UpdateInput@Robot@GameClient@@UAEXXZ
0x1000196f:?UpdateInput@SamplePlayer@@UAEXXZ
0x10016518:?UpdateInput@Seat@GameClient@@UAEXXZ
0x10017ada:?UpdateInput@Skill@GameClient@@UAEXXZ
0x1000b136:?UpdateInput@SuspendVehicleController@GameClient@@UAEXPAVSeat@2@@Z
0x10012625:?UpdateInput@Weapon@GameClient@@UAEXXZ
0x1000b357:?UpdateInput@WheelVehicleController@GameClient@@UAEXPAVSeat@2@@Z
0x10003017:?UpdateMalice@Robot@GameClient@@QAEXM@Z
0x100179ef:?UpdateMemberID@Group@GameClient@@QAEXABV?$vector@KV?$allocator@K@std@@@std@@ABV?$vector@JV?$allocator@J@std@@@4@@Z
0x10013011:?UpdateMemberID@GroupManager@GameClient@@QAEXKABV?$vector@KV?$allocator@K@std@@@std@@ABV?$vector@JV?$allocator@J@std@@@4@@Z
0x1000b500:?UpdateMemberInfo@Group@GameClient@@QAEXAAVBinStream@@@Z
0x10016144:?UpdateModel@Establishment@GameClient@@QAEXXZ
0x1001abf9:?UpdateParticle@ParticleTrail@@IAE_NPAVParticleTrailNode@@M@Z
0x1000ad76:?UpdatePhysicsController@Robot@GameClient@@QAEXXZ
0x1000f9ca:?UpdateProjectionPolys@SurfaceDecal@@AAEXXZ
0x10018bf6:?UpdateShake@CameraHandler@@IAEXXZ
0x100132f5:?UpdateStockPile@CRobotRoofUI@@QAEXXZ
0x1000f83a:?UpdateTextureIndex@ParticleTrail@@IAE_NM@Z
0x10019817:?UpdateTransform@AdapterActor@GameClient@@UAEXABVMatrix@@@Z
0x100198da:?UpdateTransform@CombinActor@GameClient@@UAEXABVMatrix@@@Z
0x1000f17d:?UpdateTransformFPV@AEquip@GameClient@@QAEXXZ
0x10004589:?UpdateTransformFPV@CombinRobot@GameClient@@QAEXABVMatrix@@ABVVector@@@Z
0x1000438b:?UpdateViewInterpolation@CameraHandler@@IAEXXZ
0x10012954:?UpdateWeaponInput@Seat@GameClient@@QAEXXZ
0x1000578b:?Use@Equip@GameClient@@UAE_NXZ
0x1000df99:?Use@Item@GameClient@@UAE_NABVVector@@0@Z
0x100058a8:?Use@Robot@GameClient@@QAEXXZ
0x10014100:?Use@Weapon@GameClient@@UAE_NXZ
0x100146eb:?UseEnergy@Func_Power@GameClient@@QAE_NM@Z
0x10004421:?UseEnergy@Robot@GameClient@@QBEXM@Z
0x10010c76:?UseEstabEnergy@Establishment@GameClient@@QAE_NM@Z
0x10018acf:?UseEstabHyperEnergy@Establishment@GameClient@@QAE_NM@Z
0x10009070:?UseExEnergy@Robot@GameClient@@QBEXM@Z
0x1001007d:?UseFunction@Robot@GameClient@@QAEXK@Z
0x100110b8:?UseHyperEnergy@Func_Power@GameClient@@QAE_NM@Z
0x10001fbe:?UseSkill@Seat@GameClient@@QAEX_N@Z
0x1001a311:?VehicleRoofUIEvent@CVehicleRoofUI@@CGXPAVCREDialog@@IHPAVCREControl@@IJ@Z
0x1000ff88:?WaitQueueUIEvent@CWaitQueueUI@@CGXPAVCREDialog@@IHPAVCREControl@@IJ@Z
0x10004fca:?WriteArmorInfo@DamageUnit@GameClient@@UAE_NAAVBinStream@@@Z
0x100141e6:?WriteData@Booty@GameClient@@QAEXAAVBinStream@@@Z
0x10010b36:?WriteSnapshot@ASummon@GameClient@@UAE_NAAVBinStream@@@Z
0x1001a253:?WriteSnapshot@AircraftVehicle@GameClient@@UAE_NAAVBinStream@@@Z
0x1000edae:?WriteSnapshot@Aura@GameClient@@UAE_NAAVBinStream@@@Z
0x10009a6b:?WriteSnapshot@Booty@GameClient@@UAE_NAAVBinStream@@@Z
0x1000c4f5:?WriteSnapshot@ControlledEstab@GameClient@@UAE_NAAVBinStream@@@Z
0x1000f065:?WriteSnapshot@DamageEquip@GameClient@@UAE_NAAVBinStream@@@Z
0x1000e575:?WriteSnapshot@DataObject@GameClient@@UAE_NAAVBinStream@@@Z
0x1000e9b2:?WriteSnapshot@Equip@GameClient@@UAE_NAAVBinStream@@@Z
0x1000955c:?WriteSnapshot@EstabDoor@GameClient@@UAE_NAAVBinStream@@@Z
0x1000df8f:?WriteSnapshot@Establishment@GameClient@@UAE_NAAVBinStream@@@Z
0x1000a2fe:?WriteSnapshot@Func_Power@GameClient@@UAE_NAAVBinStream@@@Z
0x10011202:?WriteSnapshot@Func_Receive@GameClient@@UAE_NAAVBinStream@@@Z
0x10013313:?WriteSnapshot@Func_RobotReceive@GameClient@@UAE_NAAVBinStream@@@Z
0x10007fbd:?WriteSnapshot@Func_Sheild@GameClient@@UAE_NAAVBinStream@@@Z
0x10001965:?WriteSnapshot@Func_VehicleReceive@GameClient@@UAE_NAAVBinStream@@@Z
0x10003d19:?WriteSnapshot@Function@GameClient@@UAE_NAAVBinStream@@@Z
0x1000e1f6:?WriteSnapshot@Item@GameClient@@UAE_NAAVBinStream@@@Z
0x1001799a:?WriteSnapshot@NonControlledEstab@GameClient@@UAE_NAAVBinStream@@@Z
0x1000d38c:?WriteSnapshot@PedrailVehicle@GameClient@@UAE_NAAVBinStream@@@Z
0x1001603b:?WriteSnapshot@Robot@GameClient@@UAE_NAAVBinStream@@@Z
0x100119fa:?WriteSnapshot@RobotArmor@GameClient@@UAE_NAAVBinStream@@@Z
0x10015366:?WriteSnapshot@RobotBody@GameClient@@UAE_NAAVBinStream@@@Z
0x10005b91:?WriteSnapshot@RobotCore@GameClient@@UAE_NAAVBinStream@@@Z
0x1000f6cd:?WriteSnapshot@SAlarm@GameClient@@UAE_NAAVBinStream@@@Z
0x100139fd:?WriteSnapshot@SLock@GameClient@@UAE_NAAVBinStream@@@Z
0x10001eec:?WriteSnapshot@SOccupy@GameClient@@UAE_NAAVBinStream@@@Z
0x1001083e:?WriteSnapshot@Seat@GameClient@@UAE_NAAVBinStream@@@Z
0x10003233:?WriteSnapshot@Skill@GameClient@@UAE_NAAVBinStream@@@Z
0x1001a2ad:?WriteSnapshot@SuspendVehicle@GameClient@@UAE_NAAVBinStream@@@Z
0x1000c964:?WriteSnapshot@SystemPart@GameClient@@UAE_NAAVBinStream@@@Z
0x1000f777:?WriteSnapshot@TransformItem@GameClient@@UAE_NAAVBinStream@@@Z
0x100132be:?WriteSnapshot@Weapon@GameClient@@UAE_NAAVBinStream@@@Z
0x10005de9:?WriteSnapshot@WheelVehicle@GameClient@@UAE_NAAVBinStream@@@Z
0x1000cee1:?WriteSnapshot@WorldObject@GameClient@@UAE_NAAVBinStream@@@Z
0x100044f8:?WriteSnapshotToAvatar@DamageEquip@GameClient@@UAE_NAAVBinStream@@@Z
0x10014bc8:?WriteSnapshotToAvatar@DataObject@GameClient@@UAE_NAAVBinStream@@@Z
0x10012940:?WriteSnapshotToAvatar@Equip@GameClient@@UAE_NAAVBinStream@@@Z
0x10008355:?WriteSnapshotToAvatar@Robot@GameClient@@UAE_NAAVBinStream@@@Z
0x10017b16:?WriteSnapshotToAvatar@RobotArmor@GameClient@@UAE_NAAVBinStream@@@Z
0x10016374:?WriteSnapshotToAvatar@Weapon@GameClient@@UAE_NAAVBinStream@@@Z
0x1000c450:?WriteSnapshotToAvatar@WorldObject@GameClient@@UAE_NAAVBinStream@@@Z
0x100069e2:?WriteSynaData@AAlarm@GameClient@@UAE_NAAVBinStream@@@Z
0x10006cf3:?WriteSynaData@AArmor@GameClient@@UAE_NAAVBinStream@@@Z
0x10007bbc:?WriteSynaData@ACapability@GameClient@@UAE_NAAVBinStream@@@Z
0x10008224:?WriteSynaData@AMovement@GameClient@@UAE_NAAVBinStream@@@Z
0x10016c98:?WriteSynaData@ARepair@GameClient@@UAE_NAAVBinStream@@@Z
0x1000eeda:?WriteSynaData@ASearch@GameClient@@UAE_NAAVBinStream@@@Z
0x100012da:?WriteSynaData@ASummon@GameClient@@UAE_NAAVBinStream@@@Z
0x10008a62:?WriteSynaData@Aura@GameClient@@UAE_NAAVBinStream@@@Z
0x10001fd7:?WriteSynaData@AuraManager@GameClient@@QAE_NAAVBinStream@@@Z
0x100176ca:?WriteSynaData@FAArmor@GameClient@@UAE_NAAVBinStream@@@Z
0x10012ae9:?WriteSynaData@FACapability@GameClient@@UAE_NAAVBinStream@@@Z
0x10010b90:?WriteSynaData@FAMovement@GameClient@@UAE_NAAVBinStream@@@Z
0x10003c06:?WriteSynaData@FARepair@GameClient@@UAE_NAAVBinStream@@@Z
0x100084db:?WriteSynaData@FASummon@GameClient@@UAE_NAAVBinStream@@@Z
0x1001990c:?WriteSynaData@FAura@GameClient@@UAE_NAAVBinStream@@@Z
0x10002abd:?WriteSystemPartSnapshot@Robot@GameClient@@QAEXAAVBinStream@@_N@Z
0x100142d1:?ZoomIn@CHallMapUI@@QAEXXZ
0x10019d03:?ZoomOut@CHallMapUI@@QAEXXZ
0x100059e8:?_hash@LogicFactory@GameClient@@KAKABV?$basic_string@DU?$char_traits@D@std@@V?$allocator@D@2@@std@@@Z
0x103b75cc:?_instance@?$ProductorTemplate@VFAAlarm@GameClient@@@GameClient@@2V12@A
0x103b75f4:?_instance@?$ProductorTemplate@VFAArmor@GameClient@@@GameClient@@2V12@A
0x103b761c:?_instance@?$ProductorTemplate@VFACapability@GameClient@@@GameClient@@2V12@A
0x103b7644:?_instance@?$ProductorTemplate@VFADamage@GameClient@@@GameClient@@2V12@A
0x103b766c:?_instance@?$ProductorTemplate@VFAEnergy@GameClient@@@GameClient@@2V12@A
0x103b7694:?_instance@?$ProductorTemplate@VFAMovement@GameClient@@@GameClient@@2V12@A
0x103b76bc:?_instance@?$ProductorTemplate@VFARepair@GameClient@@@GameClient@@2V12@A
0x103b76e4:?_instance@?$ProductorTemplate@VFARetrieval@GameClient@@@GameClient@@2V12@A
0x103b770c:?_instance@?$ProductorTemplate@VFASatelliteCapability@GameClient@@@GameClient@@2V12@A
0x103b7734:?_instance@?$ProductorTemplate@VFASearch@GameClient@@@GameClient@@2V12@A
0x103b775c:?_instance@?$ProductorTemplate@VFASummon@GameClient@@@GameClient@@2V12@A
0x103b67c8:?_instance@?$ProductorTemplate@VFAircraftVehicle@GameClient@@@GameClient@@2V12@A
0x103b7784:?_instance@?$ProductorTemplate@VFAura@GameClient@@@GameClient@@2V12@A
0x103b67f0:?_instance@?$ProductorTemplate@VFBooty@GameClient@@@GameClient@@2V12@A
0x103b6818:?_instance@?$ProductorTemplate@VFBullet@GameClient@@@GameClient@@2V12@A
0x103b6840:?_instance@?$ProductorTemplate@VFDamageEquip@GameClient@@@GameClient@@2V12@A
0x103b6868:?_instance@?$ProductorTemplate@VFEstabDoor@GameClient@@@GameClient@@2V12@A
0x103b6890:?_instance@?$ProductorTemplate@VFFunc_Power@GameClient@@@GameClient@@2V12@A
0x103b68b8:?_instance@?$ProductorTemplate@VFFunc_Power_Input@GameClient@@@GameClient@@2V12@A
0x103b68e0:?_instance@?$ProductorTemplate@VFFunc_RobotReceive@GameClient@@@GameClient@@2V12@A
0x103b6908:?_instance@?$ProductorTemplate@VFFunc_Sheild@GameClient@@@GameClient@@2V12@A
0x103b6930:?_instance@?$ProductorTemplate@VFFunc_VehicleReceive@GameClient@@@GameClient@@2V12@A
0x103b6958:?_instance@?$ProductorTemplate@VFItem@GameClient@@@GameClient@@2V12@A
0x103b7324:?_instance@?$ProductorTemplate@VFNonControlledEstab@GameClient@@@GameClient@@2V12@A
0x103b734c:?_instance@?$ProductorTemplate@VFOccupyIcon@@@GameClient@@2V12@A
0x103b7374:?_instance@?$ProductorTemplate@VFPedrailVehicle@GameClient@@@GameClient@@2V12@A
0x103b739c:?_instance@?$ProductorTemplate@VFPedrailVehicleWheel@GameClient@@@GameClient@@2V12@A
0x103b73c4:?_instance@?$ProductorTemplate@VFProductInfo@GameClient@@@GameClient@@2V12@A
0x103b73ec:?_instance@?$ProductorTemplate@VFRobot@GameClient@@@GameClient@@2V12@A
0x103b7414:?_instance@?$ProductorTemplate@VFRobotArmor@GameClient@@@GameClient@@2V12@A
0x103b743c:?_instance@?$ProductorTemplate@VFRobotBody@GameClient@@@GameClient@@2V12@A
0x103b7464:?_instance@?$ProductorTemplate@VFRobotCore@GameClient@@@GameClient@@2V12@A
0x103b748c:?_instance@?$ProductorTemplate@VFRobotFramework@GameClient@@@GameClient@@2V12@A
0x103b77ac:?_instance@?$ProductorTemplate@VFSAlarm@GameClient@@@GameClient@@2V12@A
0x103b77fc:?_instance@?$ProductorTemplate@VFSLock@GameClient@@@GameClient@@2V12@A
0x103b7824:?_instance@?$ProductorTemplate@VFSOccupy@GameClient@@@GameClient@@2V12@A
0x103b74b4:?_instance@?$ProductorTemplate@VFSeat@GameClient@@@GameClient@@2V12@A
0x103b77d4:?_instance@?$ProductorTemplate@VFSkill@GameClient@@@GameClient@@2V12@A
0x103b74dc:?_instance@?$ProductorTemplate@VFSuspendVehicle@GameClient@@@GameClient@@2V12@A
0x103b7504:?_instance@?$ProductorTemplate@VFSuspendVehicleWheel@GameClient@@@GameClient@@2V12@A
0x103b752c:?_instance@?$ProductorTemplate@VFTransformItem@GameClient@@@GameClient@@2V12@A
0x103b7554:?_instance@?$ProductorTemplate@VFWeapon@GameClient@@@GameClient@@2V12@A
0x103b757c:?_instance@?$ProductorTemplate@VFWheelVehicle@GameClient@@@GameClient@@2V12@A
0x103b75a4:?_instance@?$ProductorTemplate@VFWheelVehicleWheel@GameClient@@@GameClient@@2V12@A
0x10018ec1:?_loadFlyweight@FlyweightManager@GameClient@@IAE_NAAVXMLSystem@@ABV?$basic_string@DU?$char_traits@D@std@@V?$allocator@D@2@@std@@@Z
0x1000f687:?_updateEngineSound@ControlledEstab@GameClient@@IAEXXZ
0x100070c2:?addSystemPart@Robot@GameClient@@QAE_NAAV?$vector@KV?$allocator@K@std@@@std@@@Z
0x1000175d:?canBeSwitch@Weapon@GameClient@@IAE_NXZ
0x1000c3ec:?checkRebornFunc@Robot@GameClient@@IAEXXZ
0x103b4f90:?cm@?1??Instance@ChatManager@GameClient@@SAPAV23@XZ@4V23@A
0x103b55f0:?color@ParticleSystem@@1KA
0x103b57cc:?color@TraceLineSystem@@1KA
0x10005731:?computeShootOffset@Weapon@GameClient@@IAE?AVVector@@ABV3@@Z
0x1000d3ff:?computeShootOffsetRecover@Weapon@GameClient@@IAEXXZ
0x100028dd:?create@LogicFactory@GameClient@@QAEPAVSerializeObject@@ABV?$basic_string@DU?$char_traits@D@std@@V?$allocator@D@2@@std@@@Z
0x1001ac9e:?create@LogicFactory@GameClient@@QAEPAVSerializeObject@@K@Z
0x10009ceb:?createItem@EquipManager@GameClient@@AAEPAVSystemPart@2@PAVFSystemPart@2@@Z
0x100041a6:?createRobotArmor@EquipManager@GameClient@@AAEPAVSystemPart@2@PAVFSystemPart@2@@Z
0x10015ef6:?createRobotBody@EquipManager@GameClient@@AAEPAVSystemPart@2@PAVFSystemPart@2@@Z
0x1001437b:?createRobotCore@EquipManager@GameClient@@AAEPAVSystemPart@2@PAVFSystemPart@2@@Z
0x1000d76a:?createWeapon@EquipManager@GameClient@@AAEPAVSystemPart@2@PAVFSystemPart@2@@Z
0x1031125c:?defaultHandle@AEquip@GameClient@@2HB
0x100142b3:?doMotion@CBattleFieldDetailUI@@MAEXM@Z
0x100121fc:?doMotion@CGroupMemberUI@@MAEXM@Z
0x10018da4:?doMotion@CStatusUI@@MAEXM@Z
0x10019b4b:?doMove@Robot@GameClient@@IAEXM@Z
0x10011879:?doRobotUpDown@Robot@GameClient@@IAEXXZ
0x100059c0:?doesSegmentCrossPlane@BouncyParticles@@QAE_NAAVVector@@0000@Z
0x10005b55:?doesSegmentCrossPlane@LaserParticleSystem@@QAE_NAAVVector@@0000@Z
0x103b6624:?ecm@?1??Instance@EstabControllerManager@GameClient@@SAPAV23@XZ@4V23@A
0x103b5e20:?em@?1??Instance@EstabManager@GameClient@@SAPAV23@XZ@4V23@A
0x1000430e:?fire@Weapon@GameClient@@IAEXABVVector@@0@Z
0x103b4ec0:?fm@?1??Instance@FuncManager@GameClient@@SAPAV23@XZ@4V23@A
0x103b4fc0:?gm@?1??Instance@GroupManager@GameClient@@SAPAV23@XZ@4V23@A
0x1000b2e9:?init@Robot@GameClient@@IAEXXZ
0x1000a619:?isInCameraMove@CameraHandler@@QAE_NXZ
0x1000773e:?loadResource@Robot@GameClient@@IAE_NXZ
0x103b55f4:?loc@ParticleSystem@@1VVector@@A
0x103b57d0:?loc@TraceLineSystem@@1VVector@@A
0x103b528c:?m_bHasCached@Effect_MultiTexParticles@@2_NA
0x103b5394:?m_bHasCached@Effect_ShadedParticles@@2_NA
0x103b53ec:?m_bHasCached@Effect_TraceLineSystem@@2_NA
0x103b5d14:?m_bHasCached@SenceBackgroundMusicPlayer@@2_NA
0x103b5290:?m_pmodelStaticModel@Effect_MultiTexParticles@@2PAVModel@@A
0x103b5398:?m_pmodelStaticModel@Effect_ShadedParticles@@2PAVModel@@A
0x103b53f0:?m_pmodelStaticModel@Effect_TraceLineSystem@@2PAVModel@@A
0x103b5d18:?m_pmodelStaticModel@SenceBackgroundMusicPlayer@@2PAVModel@@A
0x103b5294:?m_sClassName@Effect_MultiTexParticles@@2V?$basic_string@DU?$char_traits@D@std@@V?$allocator@D@2@@std@@A
0x103b539c:?m_sClassName@Effect_ShadedParticles@@2V?$basic_string@DU?$char_traits@D@std@@V?$allocator@D@2@@std@@A
0x103b53f4:?m_sClassName@Effect_TraceLineSystem@@2V?$basic_string@DU?$char_traits@D@std@@V?$allocator@D@2@@std@@A
0x103b5d1c:?m_sClassName@SenceBackgroundMusicPlayer@@2V?$basic_string@DU?$char_traits@D@std@@V?$allocator@D@2@@std@@A
0x1000bcc1:?moveToFOV@CameraHandler@@QAEXMM@Z
0x10011d4c:?moveToView@CameraHandler@@QAEXMAAVVector@@AAVMatrix@@MM@Z
0x103ae61c:?ms_AvailableParticleTrailNodes@ParticleTrail@@1VObjectNodeList@@A
0x103b5de8:?ms_TMPRobot@CombinRobot@GameClient@@2PAV12@A
0x103b5dec:?ms_TMPRobots@CombinRobot@GameClient@@2V?$hash_map@V?$basic_string@DU?$char_traits@D@std@@V?$allocator@D@2@@std@@PAVCombinRobot@GameClient@@V?$hash_compare@V?$basic_string@DU?$char_traits@D@std@@V?$allocator@D@2@@std@@U?$less@V?$basic_string@DU?$char_traits@D@std@@V?$allocator@D@2@@std@@@2@@stdext@@V?$allocator@U?$pair@$$CBV?$basic_string@DU?$char_traits@D@std@@V?$allocator@D@2@@std@@PAVCombinRobot@GameClient@@@std@@@2@@stdext@@A
0x103b6140:?ms_pEquipManager@RobotManager@GameClient@@0PAV12@A
0x103b6048:?ms_pInstance@AuraManager@GameClient@@0PAV12@A
0x103b6050:?ms_pInstance@DamageManager@GameClient@@0PAV12@A
0x103b6054:?ms_pInstance@EquipManager@GameClient@@0PAV12@A
0x103b6144:?ms_pInstance@SkillManager@GameClient@@0PAV12@A
0x10011f09:?performCreate@?$ProductorTemplate@VFAAlarm@GameClient@@@GameClient@@UAEPAVSerializeObject@@XZ
0x10005321:?performCreate@?$ProductorTemplate@VFAArmor@GameClient@@@GameClient@@UAEPAVSerializeObject@@XZ
0x1001a6b3:?performCreate@?$ProductorTemplate@VFACapability@GameClient@@@GameClient@@UAEPAVSerializeObject@@XZ
0x10017d2d:?performCreate@?$ProductorTemplate@VFADamage@GameClient@@@GameClient@@UAEPAVSerializeObject@@XZ
0x1000ddd7:?performCreate@?$ProductorTemplate@VFAEnergy@GameClient@@@GameClient@@UAEPAVSerializeObject@@XZ
0x1000c77f:?performCreate@?$ProductorTemplate@VFAMovement@GameClient@@@GameClient@@UAEPAVSerializeObject@@XZ
0x10016e0a:?performCreate@?$ProductorTemplate@VFARepair@GameClient@@@GameClient@@UAEPAVSerializeObject@@XZ
0x100026d0:?performCreate@?$ProductorTemplate@VFARetrieval@GameClient@@@GameClient@@UAEPAVSerializeObject@@XZ
0x10005272:?performCreate@?$ProductorTemplate@VFASatelliteCapability@GameClient@@@GameClient@@UAEPAVSerializeObject@@XZ
0x10018b38:?performCreate@?$ProductorTemplate@VFASearch@GameClient@@@GameClient@@UAEPAVSerializeObject@@XZ
0x10013020:?performCreate@?$ProductorTemplate@VFASummon@GameClient@@@GameClient@@UAEPAVSerializeObject@@XZ
0x10017986:?performCreate@?$ProductorTemplate@VFAircraftVehicle@GameClient@@@GameClient@@UAEPAVSerializeObject@@XZ
0x100011e5:?performCreate@?$ProductorTemplate@VFAura@GameClient@@@GameClient@@UAEPAVSerializeObject@@XZ
0x10010816:?performCreate@?$ProductorTemplate@VFBooty@GameClient@@@GameClient@@UAEPAVSerializeObject@@XZ
0x1000a0dd:?performCreate@?$ProductorTemplate@VFBullet@GameClient@@@GameClient@@UAEPAVSerializeObject@@XZ
0x10002acc:?performCreate@?$ProductorTemplate@VFDamageEquip@GameClient@@@GameClient@@UAEPAVSerializeObject@@XZ
0x1000581c:?performCreate@?$ProductorTemplate@VFEstabDoor@GameClient@@@GameClient@@UAEPAVSerializeObject@@XZ
0x10004142:?performCreate@?$ProductorTemplate@VFFunc_Power@GameClient@@@GameClient@@UAEPAVSerializeObject@@XZ
0x100075ae:?performCreate@?$ProductorTemplate@VFFunc_Power_Input@GameClient@@@GameClient@@UAEPAVSerializeObject@@XZ
0x10019cc7:?performCreate@?$ProductorTemplate@VFFunc_RobotReceive@GameClient@@@GameClient@@UAEPAVSerializeObject@@XZ
0x1000237e:?performCreate@?$ProductorTemplate@VFFunc_Sheild@GameClient@@@GameClient@@UAEPAVSerializeObject@@XZ
0x10002e23:?performCreate@?$ProductorTemplate@VFFunc_VehicleReceive@GameClient@@@GameClient@@UAEPAVSerializeObject@@XZ
0x10019312:?performCreate@?$ProductorTemplate@VFItem@GameClient@@@GameClient@@UAEPAVSerializeObject@@XZ
0x1000cc39:?performCreate@?$ProductorTemplate@VFNonControlledEstab@GameClient@@@GameClient@@UAEPAVSerializeObject@@XZ
0x10006014:?performCreate@?$ProductorTemplate@VFOccupyIcon@@@GameClient@@UAEPAVSerializeObject@@XZ
0x10013101:?performCreate@?$ProductorTemplate@VFPedrailVehicle@GameClient@@@GameClient@@UAEPAVSerializeObject@@XZ
0x10017107:?performCreate@?$ProductorTemplate@VFPedrailVehicleWheel@GameClient@@@GameClient@@UAEPAVSerializeObject@@XZ
0x100092fa:?performCreate@?$ProductorTemplate@VFProductInfo@GameClient@@@GameClient@@UAEPAVSerializeObject@@XZ
0x1000215d:?performCreate@?$ProductorTemplate@VFRobot@GameClient@@@GameClient@@UAEPAVSerializeObject@@XZ
0x1000accc:?performCreate@?$ProductorTemplate@VFRobotArmor@GameClient@@@GameClient@@UAEPAVSerializeObject@@XZ
0x10010118:?performCreate@?$ProductorTemplate@VFRobotBody@GameClient@@@GameClient@@UAEPAVSerializeObject@@XZ
0x1001a604:?performCreate@?$ProductorTemplate@VFRobotCore@GameClient@@@GameClient@@UAEPAVSerializeObject@@XZ
0x10016301:?performCreate@?$ProductorTemplate@VFRobotFramework@GameClient@@@GameClient@@UAEPAVSerializeObject@@XZ
0x100153f7:?performCreate@?$ProductorTemplate@VFSAlarm@GameClient@@@GameClient@@UAEPAVSerializeObject@@XZ
0x100105b9:?performCreate@?$ProductorTemplate@VFSLock@GameClient@@@GameClient@@UAEPAVSerializeObject@@XZ
0x10007d60:?performCreate@?$ProductorTemplate@VFSOccupy@GameClient@@@GameClient@@UAEPAVSerializeObject@@XZ
0x10006c3f:?performCreate@?$ProductorTemplate@VFSeat@GameClient@@@GameClient@@UAEPAVSerializeObject@@XZ
0x10006cda:?performCreate@?$ProductorTemplate@VFSkill@GameClient@@@GameClient@@UAEPAVSerializeObject@@XZ
0x100023bf:?performCreate@?$ProductorTemplate@VFSuspendVehicle@GameClient@@@GameClient@@UAEPAVSerializeObject@@XZ
0x1000ed4f:?performCreate@?$ProductorTemplate@VFSuspendVehicleWheel@GameClient@@@GameClient@@UAEPAVSerializeObject@@XZ
0x10005f42:?performCreate@?$ProductorTemplate@VFTransformItem@GameClient@@@GameClient@@UAEPAVSerializeObject@@XZ
0x10006d11:?performCreate@?$ProductorTemplate@VFWeapon@GameClient@@@GameClient@@UAEPAVSerializeObject@@XZ
0x10011860:?performCreate@?$ProductorTemplate@VFWheelVehicle@GameClient@@@GameClient@@UAEPAVSerializeObject@@XZ
0x1000c22a:?performCreate@?$ProductorTemplate@VFWheelVehicleWheel@GameClient@@@GameClient@@UAEPAVSerializeObject@@XZ
0x103b4ef8:?pm@?1??Instance@ProductManager@GameClient@@SAPAV23@XZ@4V23@A
0x10013106:?precacheAnim@FRobotFramework@GameClient@@QAEXV?$basic_string@DU?$char_traits@D@std@@V?$allocator@D@2@@std@@AAV?$vector@UAnimInfo@Precacher@@V?$allocator@UAnimInfo@Precacher@@@std@@@4@@Z
0x10014c77:?regist@LogicFactory@GameClient@@QAEXABV?$basic_string@DU?$char_traits@D@std@@V?$allocator@D@2@@std@@PAVProductor@2@@Z
0x10006f46:?resetHeartbeatSynch@Robot@GameClient@@IAEXXZ
0x103b5eb4:?s_objectCounter@HookEstablishment@@1HA
0x103b67c4:?s_pInstance@BattleFieldManager@GameClient@@1PAV12@A
0x103b6980:?s_pInstance@FlyweightManager@GameClient@@1PAV12@A
0x103b67b8:?s_pInstance@LocalUserManager@GameClient@@1PAV12@A
0x103b666c:?s_pInstance@LogicFactory@GameClient@@1PAV12@A
0x10007374:?setBlendMode@SurfaceDecal@@QAEXW4BlendMode@@@Z
0x1001604a:?setBlendMode@WaterDecal@@QAEXW4BlendMode@@@Z
0x10014ee8:?setColor@LightBeam@@QAEXK@Z
0x10005f5b:?setColor@SurfaceDecal@@QAEXK@Z
0x100175c6:?setColor@WaterDecal@@QAEXUFloatColor@@@Z
0x10013467:?setMoveFade@WaterDecal@@QAEXMM@Z
0x1000d0e4:?setMoveNodeLife@WaterDecal@@QAEXM_N@Z
0x1001976d:?setMoveNodeSpawnInterval@WaterDecal@@QAEXM_N@Z
0x10001681:?setMoveSize@WaterDecal@@QAEXM@Z
0x10004b47:?setMoveSizeVar@WaterDecal@@QAEXM@Z
0x100188f9:?setNumNodes@WaterDecal@@QAEXH@Z
0x10010e33:?setPosDir@LightBeam@@QAEXAAVVector@@0@Z
0x1001a046:?setPosDir@SurfaceDecal@@QAEXAAVVector@@0M@Z
0x10007e82:?setProject@SurfaceDecal@@QAEX_N@Z
0x10003af3:?setRayCheck@CameraHandler@@QAEXPAVWorld@@VVector@@AAV?$vector@JV?$allocator@J@std@@@std@@@Z
0x1000cb53:?setSize@SurfaceDecal@@QAEXM@Z
0x10017df5:?setSpeedLimitBias@WaterDecal@@QAEXM@Z
0x10012f0d:?setStandFade@WaterDecal@@QAEXMM@Z
0x1000c969:?setStandNodeLife@WaterDecal@@QAEXM_N@Z
0x1000fba0:?setStandNodeSpawnInterval@WaterDecal@@QAEXM_N@Z
0x10010bf9:?setStandSize@WaterDecal@@QAEXM@Z
0x10016680:?setStandSizeVar@WaterDecal@@QAEXM@Z
0x1000aa9c:?setToView@CameraHandler@@QAEXAAVVector@@AAVMatrix@@MM@Z
0x10001929:?setTransform@WaterDecal@@QAEXABVMatrix@@@Z
0x10006d34:?setWidth@Laser@@QAEXM@Z
0x10002f4f:?shoot@Weapon@GameClient@@IAEXABVVector@@0H@Z
0x103b560c:?up@ParticleSystem@@1VVector@@A
0x103b57e8:?up@TraceLineSystem@@1VVector@@A
0x1000b780:?updateAnimation@Robot@GameClient@@IAEXXZ
0x1001a3de:?updateCamera@Robot@GameClient@@IAEXXZ
0x10016487:?updateDestView@CameraHandler@@QAEXAAVVector@@AAVMatrix@@MM@Z
0x100191e6:?updateHeartbeatSynch@Robot@GameClient@@IAEXXZ
0x10013ad4:?updateSystemPart@Robot@GameClient@@IAEXM@Z
0x10005aec:?updateTimeCount@Robot@GameClient@@IAEXXZ
0x100099f3:?updateTimeCount@Weapon@GameClient@@IAEXXZ
0x103b5110:?vCamera@DynamicLasers@@0VVector@@A
0x103b5158:?vEndLeft@DynamicLasers@@0VVector@@A
0x103b5164:?vEndRight@DynamicLasers@@0VVector@@A
0x103b511c:?vLaser@DynamicLasers@@0VVector@@A
0x103b5134:?vLaserLeft@DynamicLasers@@0VVector@@A
0x103b5128:?vLaserRight@DynamicLasers@@0VVector@@A
0x103b5140:?vStartLeft@DynamicLasers@@0VVector@@A
0x103b514c:?vStartRight@DynamicLasers@@0VVector@@A
0x100044d5:Game_HandleMessages
0x1000e10b:Game_Initialize
0x1000a4a2:Game_MaxTicksPerSecond
0x10005e39:Game_NewMap
0x10007a63:Game_Ready
0x10010442:Game_RunConsoleCommand
0x100038b9:Game_Shutdown
0x10011329:Game_Tick
0x100140d3:initgame
0x10009813:initvectorc
0x102ca4a7:DllEntryPoint
