# Exports
# Format: func-addr:func-name
#============================================================

0x10052090:??0?$_Vector_val@PAUModelFrame@@V?$allocator@PAUModelFrame@@@std@@@std@@IAE@V?$allocator@PAUModelFrame@@@1@@Z
0x10052090:??0?$_Vector_val@PAUModelFrame@@V?$allocator@PAUModelFrame@@@std@@@std@@QAE@ABV01@@Z
0x10052090:??0?$_Vector_val@PAVActor@@V?$allocator@PAVActor@@@std@@@std@@IAE@V?$allocator@PAVActor@@@1@@Z
0x10052090:??0?$_Vector_val@PAVActor@@V?$allocator@PAVActor@@@std@@@std@@QAE@ABV01@@Z
0x10052090:??0?$_Vector_val@PAVEditorVar@@V?$allocator@PAVEditorVar@@@std@@@std@@IAE@V?$allocator@PAVEditorVar@@@1@@Z
0x10052090:??0?$_Vector_val@PAVEditorVar@@V?$allocator@PAVEditorVar@@@std@@@std@@QAE@ABV01@@Z
0x10052090:??0?$_Vector_val@PAVMaterial@@V?$allocator@PAVMaterial@@@std@@@std@@IAE@V?$allocator@PAVMaterial@@@1@@Z
0x10052090:??0?$_Vector_val@PAVMaterial@@V?$allocator@PAVMaterial@@@std@@@std@@QAE@ABV01@@Z
0x10052090:??0?$_Vector_val@PAVMatrix@@V?$allocator@PAVMatrix@@@std@@@std@@IAE@V?$allocator@PAVMatrix@@@1@@Z
0x10052090:??0?$_Vector_val@PAVMatrix@@V?$allocator@PAVMatrix@@@std@@@std@@QAE@ABV01@@Z
0x10052090:??0?$_Vector_val@PAVModel@@V?$allocator@PAVModel@@@std@@@std@@IAE@V?$allocator@PAVModel@@@1@@Z
0x10052090:??0?$_Vector_val@PAVModel@@V?$allocator@PAVModel@@@std@@@std@@QAE@ABV01@@Z
0x10052090:??0?$_Vector_val@UAttributeRange@@V?$allocator@UAttributeRange@@@std@@@std@@IAE@V?$allocator@UAttributeRange@@@1@@Z
0x10052090:??0?$_Vector_val@UAttributeRange@@V?$allocator@UAttributeRange@@@std@@@std@@QAE@ABV01@@Z
0x10052090:??0?$_Vector_val@UVFormat@VertexManager@@V?$allocator@UVFormat@VertexManager@@@std@@@std@@IAE@V?$allocator@UVFormat@VertexManager@@@1@@Z
0x10052090:??0?$_Vector_val@UVFormat@VertexManager@@V?$allocator@UVFormat@VertexManager@@@std@@@std@@QAE@ABV01@@Z
0x10052090:??0?$_Vector_val@VBBox@@V?$allocator@VBBox@@@std@@@std@@IAE@V?$allocator@VBBox@@@1@@Z
0x10052090:??0?$_Vector_val@VBBox@@V?$allocator@VBBox@@@std@@@std@@QAE@ABV01@@Z
0x10052090:??0?$_Vector_val@VEditorVar@@V?$allocator@VEditorVar@@@std@@@std@@IAE@V?$allocator@VEditorVar@@@1@@Z
0x10052090:??0?$_Vector_val@VEditorVar@@V?$allocator@VEditorVar@@@std@@@std@@QAE@ABV01@@Z
0x10020f70:??0?$vector@PAUModelFrame@@V?$allocator@PAUModelFrame@@@std@@@std@@QAE@ABV01@@Z
0x1001e9b0:??0?$vector@PAUModelFrame@@V?$allocator@PAUModelFrame@@@std@@@std@@QAE@ABV?$allocator@PAUModelFrame@@@1@@Z
0x1002ac10:??0?$vector@PAUModelFrame@@V?$allocator@PAUModelFrame@@@std@@@std@@QAE@I@Z
0x1002ac40:??0?$vector@PAUModelFrame@@V?$allocator@PAUModelFrame@@@std@@@std@@QAE@IABQAUModelFrame@@@Z
0x1002ac60:??0?$vector@PAUModelFrame@@V?$allocator@PAUModelFrame@@@std@@@std@@QAE@IABQAUModelFrame@@ABV?$allocator@PAUModelFrame@@@1@@Z
0x1001f610:??0?$vector@PAUModelFrame@@V?$allocator@PAUModelFrame@@@std@@@std@@QAE@XZ
0x1000d4b0:??0?$vector@PAVActor@@V?$allocator@PAVActor@@@std@@@std@@QAE@ABV01@@Z
0x1001e9b0:??0?$vector@PAVActor@@V?$allocator@PAVActor@@@std@@@std@@QAE@ABV?$allocator@PAVActor@@@1@@Z
0x1002aa50:??0?$vector@PAVActor@@V?$allocator@PAVActor@@@std@@@std@@QAE@I@Z
0x1002aa80:??0?$vector@PAVActor@@V?$allocator@PAVActor@@@std@@@std@@QAE@IABQAVActor@@@Z
0x1002aaa0:??0?$vector@PAVActor@@V?$allocator@PAVActor@@@std@@@std@@QAE@IABQAVActor@@ABV?$allocator@PAVActor@@@1@@Z
0x1001f610:??0?$vector@PAVActor@@V?$allocator@PAVActor@@@std@@@std@@QAE@XZ
0x10021390:??0?$vector@PAVEditorVar@@V?$allocator@PAVEditorVar@@@std@@@std@@QAE@ABV01@@Z
0x1001e9b0:??0?$vector@PAVEditorVar@@V?$allocator@PAVEditorVar@@@std@@@std@@QAE@ABV?$allocator@PAVEditorVar@@@1@@Z
0x1002b300:??0?$vector@PAVEditorVar@@V?$allocator@PAVEditorVar@@@std@@@std@@QAE@I@Z
0x1002b330:??0?$vector@PAVEditorVar@@V?$allocator@PAVEditorVar@@@std@@@std@@QAE@IABQAVEditorVar@@@Z
0x1002b350:??0?$vector@PAVEditorVar@@V?$allocator@PAVEditorVar@@@std@@@std@@QAE@IABQAVEditorVar@@ABV?$allocator@PAVEditorVar@@@1@@Z
0x1001f610:??0?$vector@PAVEditorVar@@V?$allocator@PAVEditorVar@@@std@@@std@@QAE@XZ
0x1000d680:??0?$vector@PAVMaterial@@V?$allocator@PAVMaterial@@@std@@@std@@QAE@ABV01@@Z
0x1001e9b0:??0?$vector@PAVMaterial@@V?$allocator@PAVMaterial@@@std@@@std@@QAE@ABV?$allocator@PAVMaterial@@@1@@Z
0x1002b550:??0?$vector@PAVMaterial@@V?$allocator@PAVMaterial@@@std@@@std@@QAE@I@Z
0x1002b580:??0?$vector@PAVMaterial@@V?$allocator@PAVMaterial@@@std@@@std@@QAE@IABQAVMaterial@@@Z
0x1002b5a0:??0?$vector@PAVMaterial@@V?$allocator@PAVMaterial@@@std@@@std@@QAE@IABQAVMaterial@@ABV?$allocator@PAVMaterial@@@1@@Z
0x1001f610:??0?$vector@PAVMaterial@@V?$allocator@PAVMaterial@@@std@@@std@@QAE@XZ
0x10021240:??0?$vector@PAVMatrix@@V?$allocator@PAVMatrix@@@std@@@std@@QAE@ABV01@@Z
0x1001e9b0:??0?$vector@PAVMatrix@@V?$allocator@PAVMatrix@@@std@@@std@@QAE@ABV?$allocator@PAVMatrix@@@1@@Z
0x1002b0b0:??0?$vector@PAVMatrix@@V?$allocator@PAVMatrix@@@std@@@std@@QAE@I@Z
0x1002b0e0:??0?$vector@PAVMatrix@@V?$allocator@PAVMatrix@@@std@@@std@@QAE@IABQAVMatrix@@@Z
0x1002b100:??0?$vector@PAVMatrix@@V?$allocator@PAVMatrix@@@std@@@std@@QAE@IABQAVMatrix@@ABV?$allocator@PAVMatrix@@@1@@Z
0x1001f610:??0?$vector@PAVMatrix@@V?$allocator@PAVMatrix@@@std@@@std@@QAE@XZ
0x100210c0:??0?$vector@PAVModel@@V?$allocator@PAVModel@@@std@@@std@@QAE@ABV01@@Z
0x1001e9b0:??0?$vector@PAVModel@@V?$allocator@PAVModel@@@std@@@std@@QAE@ABV?$allocator@PAVModel@@@1@@Z
0x1002ae60:??0?$vector@PAVModel@@V?$allocator@PAVModel@@@std@@@std@@QAE@I@Z
0x1002ae90:??0?$vector@PAVModel@@V?$allocator@PAVModel@@@std@@@std@@QAE@IABQAVModel@@@Z
0x1002aeb0:??0?$vector@PAVModel@@V?$allocator@PAVModel@@@std@@@std@@QAE@IABQAVModel@@ABV?$allocator@PAVModel@@@1@@Z
0x1001f610:??0?$vector@PAVModel@@V?$allocator@PAVModel@@@std@@@std@@QAE@XZ
0x10022210:??0?$vector@UAttributeRange@@V?$allocator@UAttributeRange@@@std@@@std@@QAE@ABV01@@Z
0x1001e9b0:??0?$vector@UAttributeRange@@V?$allocator@UAttributeRange@@@std@@@std@@QAE@ABV?$allocator@UAttributeRange@@@1@@Z
0x10025d80:??0?$vector@UAttributeRange@@V?$allocator@UAttributeRange@@@std@@@std@@QAE@I@Z
0x10025dc0:??0?$vector@UAttributeRange@@V?$allocator@UAttributeRange@@@std@@@std@@QAE@IABUAttributeRange@@@Z
0x10025de0:??0?$vector@UAttributeRange@@V?$allocator@UAttributeRange@@@std@@@std@@QAE@IABUAttributeRange@@ABV?$allocator@UAttributeRange@@@1@@Z
0x1001f610:??0?$vector@UAttributeRange@@V?$allocator@UAttributeRange@@@std@@@std@@QAE@XZ
0x10026190:??0?$vector@UVFormat@VertexManager@@V?$allocator@UVFormat@VertexManager@@@std@@@std@@QAE@ABV01@@Z
0x1001e9b0:??0?$vector@UVFormat@VertexManager@@V?$allocator@UVFormat@VertexManager@@@std@@@std@@QAE@ABV?$allocator@UVFormat@VertexManager@@@1@@Z
0x1002bfc0:??0?$vector@UVFormat@VertexManager@@V?$allocator@UVFormat@VertexManager@@@std@@@std@@QAE@I@Z
0x1002c030:??0?$vector@UVFormat@VertexManager@@V?$allocator@UVFormat@VertexManager@@@std@@@std@@QAE@IABUVFormat@VertexManager@@@Z
0x1002c050:??0?$vector@UVFormat@VertexManager@@V?$allocator@UVFormat@VertexManager@@@std@@@std@@QAE@IABUVFormat@VertexManager@@ABV?$allocator@UVFormat@VertexManager@@@1@@Z
0x1001f610:??0?$vector@UVFormat@VertexManager@@V?$allocator@UVFormat@VertexManager@@@std@@@std@@QAE@XZ
0x10021590:??0?$vector@VBBox@@V?$allocator@VBBox@@@std@@@std@@QAE@ABV01@@Z
0x1001e9b0:??0?$vector@VBBox@@V?$allocator@VBBox@@@std@@@std@@QAE@ABV?$allocator@VBBox@@@1@@Z
0x1002b710:??0?$vector@VBBox@@V?$allocator@VBBox@@@std@@@std@@QAE@I@Z
0x1002b770:??0?$vector@VBBox@@V?$allocator@VBBox@@@std@@@std@@QAE@IABVBBox@@@Z
0x1002b790:??0?$vector@VBBox@@V?$allocator@VBBox@@@std@@@std@@QAE@IABVBBox@@ABV?$allocator@VBBox@@@1@@Z
0x1001f610:??0?$vector@VBBox@@V?$allocator@VBBox@@@std@@@std@@QAE@XZ
0x10025760:??0?$vector@VEditorVar@@V?$allocator@VEditorVar@@@std@@@std@@QAE@ABV01@@Z
0x1001e9b0:??0?$vector@VEditorVar@@V?$allocator@VEditorVar@@@std@@@std@@QAE@ABV?$allocator@VEditorVar@@@1@@Z
0x1002bbd0:??0?$vector@VEditorVar@@V?$allocator@VEditorVar@@@std@@@std@@QAE@I@Z
0x1002bc30:??0?$vector@VEditorVar@@V?$allocator@VEditorVar@@@std@@@std@@QAE@IABVEditorVar@@@Z
0x1002bc50:??0?$vector@VEditorVar@@V?$allocator@VEditorVar@@@std@@@std@@QAE@IABVEditorVar@@ABV?$allocator@VEditorVar@@@1@@Z
0x1001f610:??0?$vector@VEditorVar@@V?$allocator@VEditorVar@@@std@@@std@@QAE@XZ
0x10029dd0:??0Actor@@QAE@ABV0@@Z
0x10050b80:??0Actor@@QAE@PAVWorld@@@Z
0x10050e70:??0Actor@@QAE@PAVWorld@@_N@Z
0x100d1ba0:??0ActorGroup@@QAE@ABV0@@Z
0x100d0540:??0ActorGroup@@QAE@XZ
0x10054aa0:??0ActorInstancer@@QAE@ABV0@@Z
0x100544f0:??0ActorInstancer@@QAE@PAVWorld@@@Z
0x1000e030:??0ActorSelectedList@@QAE@ABV0@@Z
0x10082ff0:??0ActorSelectedList@@QAE@H@Z
0x100f2020:??0AnimationSet@@QAE@ABV0@@Z
0x100f1f90:??0AnimationSet@@QAE@XZ
0x10033040:??0AsyncLoader@@QAE@ABV0@@Z
0x10174800:??0AsyncLoader@@QAE@XZ
0x100183c0:??0AsyncLoaderReport@@QAE@ABV0@@Z
0x100183b0:??0AsyncLoaderReport@@QAE@XZ
0x10016900:??0AudioDevice@@QAE@XZ
0x100552d0:??0BatchRenderer@@AAE@XZ
0x10054da0:??0BatchRenderer@@QAE@ABV0@@Z
0x10074170:??0C3DModel@@QAE@ABV0@@Z
0x100c9cb0:??0C3DModel@@QAE@PAVCREDialog@@@Z
0x100d4880:??0CControlBox@@QAE@ABV0@@Z
0x10155770:??0CControlBox@@QAE@PAVCREDialog@@@Z
0x100d4910:??0CControlBoxList@@QAE@ABV0@@Z
0x101553b0:??0CControlBoxList@@QAE@PAVCREDialog@@@Z
0x1014a2e0:??0CDlgMgr@@IAE@XZ
0x100d2aa0:??0CDlgMgr@@QAE@ABV0@@Z
0x100ce840:??0CExternalApiInitializer@@QAE@XZ
0x10016db0:??0CFont@RECanvas@@QAE@ABV01@@Z
0x10016d80:??0CFont@RECanvas@@QAE@XZ
0x100d4ef0:??0CFormatedStatic@@QAE@ABV0@@Z
0x10155c10:??0CFormatedStatic@@QAE@PAVCREDialog@@@Z
0x100d56e0:??0CGUIWindow@@QAE@PAVCREDialog@@V?$basic_string@DU?$char_traits@D@std@@V?$allocator@D@2@@std@@@Z
0x10074690:??0CHotZonePic@@QAE@ABV0@@Z
0x100caa50:??0CHotZonePic@@QAE@PAVCTYDialog@@@Z
0x10073a10:??0CInputBox@@QAE@ABV0@@Z
0x100cc570:??0CInputBox@@QAE@PAVCREDialog@@@Z
0x100d49d0:??0CItemHolder@@QAE@ABV0@@Z
0x101555a0:??0CItemHolder@@QAE@PAVCTYDialog@@@Z
0x10074470:??0CMLIMEEditBox@@QAE@ABV0@@Z
0x100ca030:??0CMLIMEEditBox@@QAE@PAVCREDialog@@@Z
0x10073260:??0CMultiLineEB@@QAE@ABV0@@Z
0x100c8da0:??0CMultiLineEB@@QAE@PAVCREDialog@@@Z
0x10075a20:??0CMultiLineStatic@@QAE@ABV0@@Z
0x100ccf60:??0CMultiLineStatic@@QAE@PAVCREDialog@@_N@Z
0x1007bc60:??0CPRTMesh@@QAE@ABV0@@Z
0x1007bc50:??0CPRTMesh@@QAE@XZ
0x1007bcb0:??0CPRTSimulator@@QAE@ABV0@@Z
0x1007bc90:??0CPRTSimulator@@QAE@XZ
0x10073f50:??0CPasswordEB@@QAE@ABV0@@Z
0x100c8c60:??0CPasswordEB@@QAE@PAVCREDialog@@@Z
0x100d4f90:??0CPaster@@QAE@ABV0@@Z
0x10157070:??0CPaster@@QAE@PAVCREDialog@@@Z
0x10074030:??0CPicCheckBox@@QAE@ABV0@@Z
0x100cc940:??0CPicCheckBox@@QAE@PAVCREDialog@@@Z
0x10074130:??0CPicRadioButton@@QAE@ABV0@@Z
0x100cca80:??0CPicRadioButton@@QAE@PAVCREDialog@@@Z
0x10073700:??0CPictureLabel@@QAE@ABV0@@Z
0x100c89e0:??0CPictureLabel@@QAE@HHHHHV?$basic_string@_WU?$char_traits@_W@std@@V?$allocator@_W@2@@std@@PAVCREDialog@@W4_D3DBLEND@@2@Z
0x100c87e0:??0CPictureLabel@@QAE@PAVCREDialog@@W4_D3DBLEND@@1@Z
0x100d4c80:??0CProgressBTN@@QAE@ABV0@@Z
0x101509f0:??0CProgressBTN@@QAE@PAVCTYDialog@@@Z
0x100d4b60:??0CProgressBar@@QAE@ABV0@@Z
0x1014fff0:??0CProgressBar@@QAE@PAVCTYDialog@@@Z
0x10071950:??0CREButton@@QAE@ABV0@@Z
0x100cb5e0:??0CREButton@@QAE@PAVCREDialog@@@Z
0x10071be0:??0CRECheckBox@@QAE@ABV0@@Z
0x100cbba0:??0CRECheckBox@@QAE@PAVCREDialog@@@Z
0x10072840:??0CREComboBox@@QAE@ABV0@@Z
0x100cbcc0:??0CREComboBox@@QAE@PAVCREDialog@@@Z
0x10073b00:??0CREContainer@@QAE@ABV0@@Z
0x100c8b90:??0CREContainer@@QAE@HHH@Z
0x10071230:??0CREControl@@QAE@ABV0@@Z
0x100c6ff0:??0CREControl@@QAE@PAVCREDialog@@@Z
0x100751a0:??0CREDialog@@QAE@ABV0@@Z
0x100cada0:??0CREDialog@@QAE@XZ
0x100b4890:??0CREDialogResourceManager@@IAE@XZ
0x10072db0:??0CREEditBox@@QAE@ABV0@@Z
0x100c84a0:??0CREEditBox@@QAE@PAVCREDialog@@@Z
0x1006c800:??0CREElement@@QAE@XZ
0x10071f90:??0CREHScrollBar@@QAE@ABV0@@Z
0x100c7bc0:??0CREHScrollBar@@QAE@PAVCREDialog@@@Z
0x100734e0:??0CREIMEEditBox@@QAE@ABV0@@Z
0x100c86a0:??0CREIMEEditBox@@QAE@PAVCREDialog@@@Z
0x100721d0:??0CREListBox@@QAE@ABV0@@Z
0x100c7c80:??0CREListBox@@QAE@PAVCREDialog@@@Z
0x100761d0:??0CREListCtrl@@QAE@ABV0@@Z
0x100cd910:??0CREListCtrl@@QAE@PAVCREDialog@@@Z
0x10073c80:??0CRENumericButton@@QAE@ABV0@@Z
0x100cc6d0:??0CRENumericButton@@QAE@PAVCREDialog@@@Z
0x10073d50:??0CRENumericEdit@@QAE@ABV0@@Z
0x100cc710:??0CRENumericEdit@@QAE@PAVCREDialog@@@Z
0x10073cf0:??0CRENumericEditBox@@QAE@ABV0@@Z
0x100c8c30:??0CRENumericEditBox@@QAE@PAVCREDialog@@@Z
0x10071af0:??0CREPictureButton@@QAE@ABV0@@Z
0x100cbb60:??0CREPictureButton@@QAE@PAVCREDialog@@@Z
0x100724e0:??0CREPropertiesList@@QAE@ABV0@@Z
0x100c7e50:??0CREPropertiesList@@QAE@PAVCREDialog@@@Z
0x10071ce0:??0CRERadioButton@@QAE@ABV0@@Z
0x100cbc90:??0CRERadioButton@@QAE@PAVCREDialog@@@Z
0x10071d40:??0CREScrollBar@@QAE@ABV0@@Z
0x100c7b00:??0CREScrollBar@@QAE@PAVCREDialog@@@Z
0x10072bb0:??0CRESlider@@QAE@ABV0@@Z
0x100c7850:??0CRESlider@@QAE@PAVCREDialog@@@Z
0x100717b0:??0CREStatic@@QAE@ABV0@@Z
0x100c7520:??0CREStatic@@QAE@PAVCREDialog@@@Z
0x10072770:??0CRETabPages@@QAE@ABV0@@Z
0x100c7df0:??0CRETabPages@@QAE@PAVCREDialog@@@Z
0x10073bc0:??0CRETextBox@@QAE@ABV0@@Z
0x100cc600:??0CRETextBox@@QAE@PAVCREDialog@@@Z
0x1007e320:??0CRETimer@@QAE@XZ
0x100d4d00:??0CSeperateLine@@QAE@ABV0@@Z
0x10156da0:??0CSeperateLine@@QAE@PAVCREDialog@@@Z
0x10074910:??0CTYChatIME@@QAE@ABV0@@Z
0x100cac60:??0CTYChatIME@@QAE@PAVCREDialog@@@Z
0x10075780:??0CTYDialog@@QAE@ABV0@@Z
0x100ccaf0:??0CTYDialog@@QAE@XZ
0x100d4d80:??0CTYMenu@@QAE@ABV0@@Z
0x10155af0:??0CTYMenu@@QAE@XZ
0x100a2ca0:??0CTYMenuHandler@@QAE@ABV0@@Z
0x100a2c80:??0CTYMenuHandler@@QAE@XZ
0x100d4d40:??0CTYVStatic@@QAE@ABV0@@Z
0x10156ed0:??0CTYVStatic@@QAE@PAVCREDialog@@@Z
0x100a5500:??0CUniBuffer@CREEditBox@@QAE@H@Z
0x1009c1b0:??0CVideoManager@@AAE@XZ
0x10028c90:??0CacheModel@@QAE@ABV0@@Z
0x10028bd0:??0CacheModel@@QAE@XZ
0x10029b90:??0CacheWorld@@QAE@ABV0@@Z
0x10029ad0:??0CacheWorld@@QAE@XZ
0x10010f10:??0Camera@@QAE@ABV0@@Z
0x10063b20:??0Camera@@QAE@XZ
0x10068c20:??0Canvas@@IAE@XZ
0x1002d1e0:??0Canvas@@QAE@ABV0@@Z
0x100778a0:??0ClothSimulator@@QAE@ABV0@@Z
0x10077100:??0ClothSimulator@@QAE@XZ
0x100245a0:??0CollisionInfo@@QAE@ABU0@@Z
0x100244d0:??0CollisionInfo@@QAE@XZ
0x10019250:??0DialogManager@@QAE@ABV0@@Z
0x10019240:??0DialogManager@@QAE@XZ
0x1007e6a0:??0DynLib@@QAE@ABV0@@Z
0x1007e6e0:??0DynLib@@QAE@ABV?$basic_string@DU?$char_traits@D@std@@V?$allocator@D@2@@std@@@Z
0x10015030:??0Editor@@QAE@ABV0@@Z
0x1008f370:??0Editor@@QAE@XZ
0x100095b0:??0EditorVar@@QAE@ABV0@@Z
0x10017220:??0EditorVar@@QAE@V?$basic_string@DU?$char_traits@D@std@@V?$allocator@D@2@@std@@PAH00_N2@Z
0x10017310:??0EditorVar@@QAE@V?$basic_string@DU?$char_traits@D@std@@V?$allocator@D@2@@std@@PAM00_N2@Z
0x100174f0:??0EditorVar@@QAE@V?$basic_string@DU?$char_traits@D@std@@V?$allocator@D@2@@std@@PAUFloatColor@@00_N2@Z
0x10009450:??0EditorVar@@QAE@V?$basic_string@DU?$char_traits@D@std@@V?$allocator@D@2@@std@@PAV12@00_N2@Z
0x100178b0:??0EditorVar@@QAE@V?$basic_string@DU?$char_traits@D@std@@V?$allocator@D@2@@std@@PAV?$vector@V?$basic_string@DU?$char_traits@D@std@@V?$allocator@D@2@@std@@V?$allocator@V?$basic_string@DU?$char_traits@D@std@@V?$allocator@D@2@@std@@@2@@2@00_N2@Z
0x100177c0:??0EditorVar@@QAE@V?$basic_string@DU?$char_traits@D@std@@V?$allocator@D@2@@std@@PAVTexture@@00_N2@Z
0x100175e0:??0EditorVar@@QAE@V?$basic_string@DU?$char_traits@D@std@@V?$allocator@D@2@@std@@PAVVector2@@00_N2@Z
0x100176d0:??0EditorVar@@QAE@V?$basic_string@DU?$char_traits@D@std@@V?$allocator@D@2@@std@@PAVVector4@@00_N2@Z
0x10017400:??0EditorVar@@QAE@V?$basic_string@DU?$char_traits@D@std@@V?$allocator@D@2@@std@@PAVVector@@00_N2@Z
0x10009330:??0EditorVar@@QAE@V?$basic_string@DU?$char_traits@D@std@@V?$allocator@D@2@@std@@PA_N00_N2@Z
0x100092d0:??0EditorVar@@QAE@XZ
0x10096af0:??0Engine@@IAE@XZ
0x10016730:??0EngineLog@@QAE@XZ
0x1001c560:??0Event@@QAE@ABV0@@Z
0x1016ec20:??0Event@@QAE@IMW4EVENT_ACTION_TYPE@@@Z
0x100325e0:??0EventAttemper@@QAE@ABV0@@Z
0x1016f8d0:??0EventAttemper@@QAE@XZ
0x10019160:??0EventObserver@@QAE@ABV0@@Z
0x10019150:??0EventObserver@@QAE@XZ
0x100a0050:??0FXManager@@QAE@XZ
0x1000b9e0:??0FXSystem@@QAE@ABV0@@Z
0x10013120:??0FXSystem@@QAE@PAVWorld@@@Z
0x1000a970:??0Face@@QAE@XZ
0x10013a60:??0Factory@@IAE@V?$basic_string@DU?$char_traits@D@std@@V?$allocator@D@2@@std@@_N1@Z
0x10001260:??0Factory@@QAE@ABV0@@Z
0x10019260:??0FuncTimer@@QAE@ABV0@@Z
0x10095ca0:??0FuncTimer@@QAE@ABV?$basic_string@DU?$char_traits@D@std@@V?$allocator@D@2@@std@@@Z
0x100d6cc0:??0GUISystem@@IAE@XZ
0x10070b00:??0GUISystem@@QAE@ABV0@@Z
0x1000adf0:??0Gizmo@@QAE@ABV0@@Z
0x1000c620:??0Gizmo@@QAE@XZ
0x10010320:??0ILoad@@QAE@ABV0@@Z
0x1000d140:??0ILoad@@QAE@XZ
0x100102c0:??0IParse@@QAE@ABV0@@Z
0x10010220:??0IParse@@QAE@XZ
0x10012240:??0ISave@@QAE@ABV0@@Z
0x100108d0:??0ISave@@QAE@XZ
0x100532b0:??0IndoorVolume@@QAE@ABV0@@Z
0x100da530:??0IndoorVolume@@QAE@PAVWorld@@@Z
0x100dbbe0:??0Input@@QAE@XZ
0x10019060:??0LCDDevice@@IAE@XZ
0x1004d5c0:??0LODManager@@QAE@XZ
0x1002a690:??0Light@@QAE@ABV0@@Z
0x100de9e0:??0Light@@QAE@PAVWorld@@@Z
0x100df590:??0Light@@QAE@PAVWorld@@ABUFloatColor@@M@Z
0x100dead0:??0Light@@QAE@PAVWorld@@_N@Z
0x100dd8e0:??0LightState@@QAE@ABUFloatColor@@M@Z
0x100dd850:??0LightState@@QAE@ABVVector@@ABUFloatColor@@M@Z
0x100dd7c0:??0LightState@@QAE@XZ
0x1002e7f0:??0Material@@QAE@ABV0@@Z
0x100e40e0:??0Material@@QAE@V?$basic_string@DU?$char_traits@D@std@@V?$allocator@D@2@@std@@@Z
0x100e42b0:??0Material@@QAE@XZ
0x1015a860:??0MaterialIntersect@@QAE@ABV0@@Z
0x10159ac0:??0MaterialIntersect@@QAE@XZ
0x10024660:??0MaterialLibrary@@QAE@ABV0@@Z
0x100e4d40:??0MaterialLibrary@@QAE@XZ
0x1002a900:??0MaterialManager@@AAE@XZ
0x1002a9d0:??0MaterialManager@@QAE@ABV0@@Z
0x1003e7e0:??0MaterialSerializer@@QAE@ABV0@@Z
0x10036940:??0MaterialSerializer@@QAE@XZ
0x100296d0:??0Mesh@@QAE@ABV0@@Z
0x100300f0:??0Mesh@@QAE@XZ
0x10017b90:??0MeshOps@@QAE@ABV0@@Z
0x10017b80:??0MeshOps@@QAE@XZ
0x10031290:??0Model@@QAE@ABV0@@Z
0x100f2ca0:??0Model@@QAE@XZ
0x10024120:??0ModelFrame@@QAE@ABU0@@Z
0x1009e990:??0ModelFrame@@QAE@PAVStaticModel@@@Z
0x10053d20:??0NxPhysics@@QAE@ABV0@@Z
0x10053bd0:??0NxPhysics@@QAE@XZ
0x10052060:??0NxPhysicsContactReport@@QAE@ABV0@@Z
0x10052050:??0NxPhysicsContactReport@@QAE@XZ
0x10036780:??0OBJLoad@@QAE@ABV0@@Z
0x10036730:??0OBJLoad@@QAE@XZ
0x10036880:??0OBJSave@@QAE@ABV0@@Z
0x100367e0:??0OBJSave@@QAE@XZ
0x10016ba0:??0OcclusionQuery@@QAE@ABV0@@Z
0x10016b70:??0OcclusionQuery@@QAE@XZ
0x100169f0:??0OggPlayer@@QAE@ABV0@@Z
0x100169d0:??0OggPlayer@@QAE@XZ
0x10052040:??0OutpopControllerHitReport@@QAE@ABV0@@Z
0x10052030:??0OutpopControllerHitReport@@QAE@XZ
0x10053750:??0OutpopRaycastReport@@QAE@ABV0@@Z
0x100536c0:??0OutpopRaycastReport@@QAE@XZ
0x100522d0:??0OutpopRaycastReportIgnore@@QAE@ABV0@@Z
0x10147890:??0OutpopRaycastReportIgnore@@QAE@ABV?$vector@JV?$allocator@J@std@@@std@@@Z
0x100292f0:??0PRTSettings@@QAE@ABU0@@Z
0x100e8d80:??0PRTSettings@@QAE@XZ
0x1004d430:??0PhysicsController_Callback@@QAE@ABV0@@Z
0x1004d420:??0PhysicsController_Callback@@QAE@XZ
0x1004d3f0:??0PhysicsNormal_Callback@@QAE@ABV0@@Z
0x1004d3e0:??0PhysicsNormal_Callback@@QAE@XZ
0x10052080:??0PhysicsTriggerReport@@QAE@ABV0@@Z
0x10052070:??0PhysicsTriggerReport@@QAE@XZ
0x1004d450:??0PhysicsTrigger_Callback@@QAE@ABV0@@Z
0x1004d440:??0PhysicsTrigger_Callback@@QAE@XZ
0x1004d410:??0PhysicsVehicle_Callback@@QAE@ABV0@@Z
0x1004d400:??0PhysicsVehicle_Callback@@QAE@XZ
0x101069e0:??0PostProcess@@IAE@XZ
0x10109100:??0PostProcess@@QAE@ABV0@@Z
0x10105280:??0PostProcessEffect@@QAE@ABV0@@Z
0x10106ce0:??0PostProcessEffect@@QAE@V?$basic_string@DU?$char_traits@D@std@@V?$allocator@D@2@@std@@0@Z
0x101054e0:??0PostProcessEffect_Permanent@@QAE@ABV0@@Z
0x10108190:??0PostProcessEffect_Permanent@@QAE@V?$basic_string@DU?$char_traits@D@std@@V?$allocator@D@2@@std@@0H_N1@Z
0x101083b0:??0PostProcessEffect_Permanent@@QAE@V?$basic_string@DU?$char_traits@D@std@@V?$allocator@D@2@@std@@0_NH@Z
0x1002a570:??0Prefab@@QAE@ABV0@@Z
0x10051b50:??0Prefab@@QAE@PAVWorld@@@Z
0x10090f70:??0PrefabInstance@@QAE@ABV0@@Z
0x10116c70:??0PrefabInstance@@QAE@PAVWorld@@@Z
0x10001c00:??0Profiler@@IAE@XZ
0x1006c7f0:??0REBlendColor@@QAE@XZ
0x1006dba0:??0REPage@@QAE@XZ
0x100092c0:??0RenderBase@@QAE@ABV0@@Z
0x10118b80:??0RenderBase@@QAE@XZ
0x100240e0:??0RenderCallbackManager@@QAE@ABV0@@Z
0x1001f610:??0RenderCallbackManager@@QAE@XZ
0x10118b00:??0RenderDevice@@IAE@XZ
0x10018370:??0Script@@QAE@XZ
0x10029d20:??0ScriptData@@QAE@ABU0@@Z
0x10011140:??0ScriptData@@QAE@XZ
0x10010a20:??0Serializer@@QAE@ABV0@@Z
0x1001f610:??0Serializer@@QAE@XZ
0x1001f770:??0Shader@@QAE@ABV0@@Z
0x10122e00:??0Shader@@QAE@XZ
0x10122c20:??0ShaderManager@@IAE@XZ
0x1002e500:??0ShaderManager@@QAE@ABV0@@Z
0x100185f0:??0ShaderVar@@QAE@ABU0@@Z
0x10122ce0:??0ShaderVar@@QAE@V?$basic_string@DU?$char_traits@D@std@@V?$allocator@D@2@@std@@W4Type@EditorVar@@W4DeleteType@0@PAX@Z
0x100100e0:??0ShadowEngine@@QAE@ABV0@@Z
0x10127f50:??0ShadowEngine@@QAE@XZ
0x100243f0:??0SkinWeights@Mesh@@QAE@ABU01@@Z
0x1001f620:??0SkinWeights@Mesh@@QAE@XZ
0x1005ddc0:??0SkyController@@QAE@ABV0@@Z
0x1012ffd0:??0SkyController@@QAE@PAVWorld@@@Z
0x10017df0:??0SkySettings@@QAE@ABV0@@Z
0x10017ba0:??0SkySettings@@QAE@XZ
0x100169a0:??0Sound@@QAE@ABV0@@Z
0x10016980:??0Sound@@QAE@XZ
0x10016890:??0SoundBank@@QAE@ABV0@@Z
0x10016870:??0SoundBank@@QAE@XZ
0x10024040:??0SoundEmitter@@QAE@ABV0@@Z
0x10054d70:??0SoundEmitter@@QAE@XZ
0x10028d10:??0StaticModel@@QAE@ABV0@@Z
0x100ef5b0:??0StaticModel@@QAE@XZ
0x1003cc50:??0SubareaManager@@QAE@ABV0@@Z
0x1015c5e0:??0SubareaManager@@QAE@XZ
0x1003e7e0:??0SubareaMaterialSerializer@@QAE@ABV0@@Z
0x10036940:??0SubareaMaterialSerializer@@QAE@XZ
0x1005b060:??0SurfaceNode@@QAE@ABV0@@Z
0x10165f10:??0SurfaceNode@@QAE@PAVWorld@@@Z
0x1005e940:??0Terrain@@QAE@ABV0@@Z
0x10162f00:??0Terrain@@QAE@PAVWorld@@@Z
0x1005b0e0:??0TerrainNode@@QAE@ABV0@@Z
0x101655b0:??0TerrainNode@@QAE@PAVWorld@@@Z
0x1000f130:??0Texture@@QAE@ABV0@@Z
0x10136290:??0Texture@@QAE@XZ
0x10074d60:??0TextureCamera@@QAE@ABV0@@Z
0x1016e600:??0TextureCamera@@QAE@PAVWorld@@@Z
0x100992a0:??0TextureManager@@QAE@ABV0@@Z
0x10136fd0:??0TextureManager@@QAE@XZ
0x10017b20:??0VFormat@VertexManager@@QAE@ABU01@@Z
0x10017b00:??0VFormat@VertexManager@@QAE@XZ
0x10029a00:??0VertexManager@@QAE@ABV0@@Z
0x10029960:??0VertexManager@@QAE@XZ
0x10101f80:??0WaterManager@@QAE@ABV0@@Z
0x10137010:??0WaterManager@@QAE@XZ
0x1009a9a0:??0WaterSurface@@QAE@ABV0@@Z
0x10137050:??0WaterSurface@@QAE@PAVWorld@@@Z
0x10016800:??0WaveBank@@QAE@ABV0@@Z
0x100167e0:??0WaveBank@@QAE@XZ
0x10030270:??0World@@QAE@ABV0@@Z
0x1013a9b0:??0World@@QAE@XZ
0x1003e400:??0XFileLoad@@QAE@ABV0@@Z
0x1003e300:??0XFileLoad@@QAE@XZ
0x10001800:??0XMLSystem@@QAE@ABV0@@Z
0x10001720:??0XMLSystem@@QAE@XZ
0x1010fea0:??1?$vector@PAUModelFrame@@V?$allocator@PAUModelFrame@@@std@@@std@@QAE@XZ
0x1010fea0:??1?$vector@PAVActor@@V?$allocator@PAVActor@@@std@@@std@@QAE@XZ
0x1010fea0:??1?$vector@PAVEditorVar@@V?$allocator@PAVEditorVar@@@std@@@std@@QAE@XZ
0x1010fea0:??1?$vector@PAVMaterial@@V?$allocator@PAVMaterial@@@std@@@std@@QAE@XZ
0x1010fea0:??1?$vector@PAVMatrix@@V?$allocator@PAVMatrix@@@std@@@std@@QAE@XZ
0x1010fea0:??1?$vector@PAVModel@@V?$allocator@PAVModel@@@std@@@std@@QAE@XZ
0x1010fea0:??1?$vector@UAttributeRange@@V?$allocator@UAttributeRange@@@std@@@std@@QAE@XZ
0x10026340:??1?$vector@UVFormat@VertexManager@@V?$allocator@UVFormat@VertexManager@@@std@@@std@@QAE@XZ
0x10021680:??1?$vector@VBBox@@V?$allocator@VBBox@@@std@@@std@@QAE@XZ
0x1000f7e0:??1?$vector@VEditorVar@@V?$allocator@VEditorVar@@@std@@@std@@QAE@XZ
0x100511a0:??1Actor@@UAE@XZ
0x100cfe70:??1ActorGroup@@QAE@XZ
0x100541c0:??1ActorInstancer@@UAE@XZ
0x1000c870:??1ActorSelectedList@@QAE@XZ
0x100f20a0:??1AnimationSet@@UAE@XZ
0x10172c10:??1AsyncLoader@@UAE@XZ
0x10016910:??1AudioDevice@@QAE@XZ
0x100c9db0:??1C3DModel@@UAE@XZ
0x101557e0:??1CControlBox@@UAE@XZ
0x10155430:??1CControlBoxList@@UAE@XZ
0x1014a230:??1CDlgMgr@@MAE@XZ
0x100ce860:??1CExternalApiInitializer@@QAE@XZ
0x10016da0:??1CFont@RECanvas@@QAE@XZ
0x10155c80:??1CFormatedStatic@@UAE@XZ
0x1006bba0:??1CGUIWindow@@QAE@XZ
0x100cab00:??1CHotZonePic@@UAE@XZ
0x100cc5f0:??1CInputBox@@UAE@XZ
0x10155660:??1CItemHolder@@UAE@XZ
0x100ca100:??1CMLIMEEditBox@@UAE@XZ
0x100c8e90:??1CMultiLineEB@@UAE@XZ
0x100cd060:??1CMultiLineStatic@@UAE@XZ
0x1007bca0:??1CPRTSimulator@@QAE@XZ
0x100c8d30:??1CPasswordEB@@UAE@XZ
0x10150dc0:??1CPaster@@UAE@XZ
0x100cca30:??1CPicCheckBox@@UAE@XZ
0x100ccaa0:??1CPicRadioButton@@UAE@XZ
0x100c8b30:??1CPictureLabel@@UAE@XZ
0x10150a20:??1CProgressBTN@@UAE@XZ
0x101500f0:??1CProgressBar@@UAE@XZ
0x1006a190:??1CREButton@@UAE@XZ
0x1006a190:??1CRECheckBox@@UAE@XZ
0x100cbde0:??1CREComboBox@@UAE@XZ
0x1006f380:??1CREContainer@@UAE@XZ
0x100c7390:??1CREControl@@UAE@XZ
0x100c6de0:??1CREDialog@@UAE@XZ
0x100b48b0:??1CREDialogResourceManager@@QAE@XZ
0x100c8630:??1CREEditBox@@UAE@XZ
0x100c7c70:??1CREHScrollBar@@UAE@XZ
0x100c87d0:??1CREIMEEditBox@@UAE@XZ
0x100c7d60:??1CREListBox@@UAE@XZ
0x100cd9c0:??1CREListCtrl@@UAE@XZ
0x1006a190:??1CRENumericButton@@UAE@XZ
0x100cc8a0:??1CRENumericEdit@@UAE@XZ
0x1006b0d0:??1CRENumericEditBox@@UAE@XZ
0x1006a190:??1CREPictureButton@@UAE@XZ
0x100c7f10:??1CREPropertiesList@@UAE@XZ
0x1006a190:??1CRERadioButton@@UAE@XZ
0x100c7bb0:??1CREScrollBar@@UAE@XZ
0x1006a980:??1CRESlider@@UAE@XZ
0x10069fa0:??1CREStatic@@UAE@XZ
0x10070a10:??1CRETabPages@@UAE@XZ
0x100cc650:??1CRETextBox@@UAE@XZ
0x10150b10:??1CSeperateLine@@UAE@XZ
0x100cad10:??1CTYChatIME@@UAE@XZ
0x100c9e60:??1CTYDialog@@UAE@XZ
0x10155b90:??1CTYMenu@@UAE@XZ
0x100a2c90:??1CTYMenuHandler@@UAE@XZ
0x10150bb0:??1CTYVStatic@@UAE@XZ
0x100a5550:??1CUniBuffer@CREEditBox@@QAE@XZ
0x1010fea0:??1CVideoManager@@AAE@XZ
0x10028c20:??1CacheModel@@QAE@XZ
0x10029b20:??1CacheWorld@@QAE@XZ
0x10010ec0:??1Camera@@QAE@XZ
0x1002d1d0:??1Canvas@@UAE@XZ
0x10077140:??1ClothSimulator@@QAE@XZ
0x10024540:??1CollisionInfo@@QAE@XZ
0x1007e740:??1DynLib@@QAE@XZ
0x1008f580:??1Editor@@QAE@XZ
0x10009550:??1EditorVar@@QAE@XZ
0x10096fe0:??1Engine@@IAE@XZ
0x10016780:??1EngineLog@@QAE@XZ
0x1016ec70:??1Event@@UAE@XZ
0x1016f820:??1EventAttemper@@UAE@XZ
0x1000dfe0:??1FXManager@@QAE@XZ
0x1000aa70:??1FXSystem@@UAE@XZ
0x10017b10:??1Factory@@QAE@XZ
0x10095cf0:??1FuncTimer@@QAE@XZ
0x10070aa0:??1GUISystem@@QAE@XZ
0x1000d190:??1ILoad@@QAE@XZ
0x10010270:??1IParse@@QAE@XZ
0x10010930:??1ISave@@QAE@XZ
0x100da460:??1IndoorVolume@@UAE@XZ
0x10028840:??1Input@@UAE@XZ
0x10019070:??1LCDDevice@@IAE@XZ
0x100dde50:??1Light@@UAE@XZ
0x100e4420:??1Material@@QAE@XZ
0x10159b20:??1MaterialIntersect@@QAE@XZ
0x100e3fc0:??1MaterialLibrary@@QAE@XZ
0x1002a950:??1MaterialManager@@QAE@XZ
0x10036950:??1MaterialSerializer@@QAE@XZ
0x100295d0:??1Mesh@@UAE@XZ
0x1002ffd0:??1Model@@UAE@XZ
0x1009ec20:??1ModelFrame@@QAE@XZ
0x10053c50:??1NxPhysics@@QAE@XZ
0x1004d4d0:??1NxPhysicsContactReport@@UAE@XZ
0x1000d190:??1OBJLoad@@QAE@XZ
0x10036830:??1OBJSave@@QAE@XZ
0x10016b90:??1OcclusionQuery@@UAE@XZ
0x100169e0:??1OggPlayer@@UAE@XZ
0x1004d460:??1OutpopControllerHitReport@@UAE@XZ
0x10053700:??1OutpopRaycastReport@@UAE@XZ
0x100522b0:??1OutpopRaycastReportIgnore@@UAE@XZ
0x10029240:??1PRTSettings@@QAE@XZ
0x1004d540:??1PhysicsTriggerReport@@UAE@XZ
0x10108e40:??1PostProcess@@QAE@XZ
0x10105210:??1PostProcessEffect@@UAE@XZ
0x101054d0:??1PostProcessEffect_Permanent@@UAE@XZ
0x100518e0:??1Prefab@@UAE@XZ
0x1007e990:??1PrefabInstance@@UAE@XZ
0x1006dbc0:??1REPage@@QAE@XZ
0x10118a60:??1RenderBase@@QAE@XZ
0x1010fea0:??1RenderCallbackManager@@QAE@XZ
0x10118a80:??1RenderDevice@@UAE@XZ
0x10118c10:??1Script@@QAE@XZ
0x100111d0:??1ScriptData@@QAE@XZ
0x1010fea0:??1Serializer@@QAE@XZ
0x10123eb0:??1Shader@@QAE@XZ
0x1002e490:??1ShaderManager@@QAE@XZ
0x1000d3d0:??1ShaderVar@@QAE@XZ
0x1000d0c0:??1ShadowEngine@@QAE@XZ
0x1000c8b0:??1SkinWeights@Mesh@@QAE@XZ
0x1012fc10:??1SkyController@@UAE@XZ
0x10017cd0:??1SkySettings@@QAE@XZ
0x10016990:??1Sound@@QAE@XZ
0x10016880:??1SoundBank@@UAE@XZ
0x10054d40:??1SoundEmitter@@QAE@XZ
0x100ef850:??1StaticModel@@UAE@XZ
0x1015c650:??1SubareaManager@@UAE@XZ
0x10036950:??1SubareaMaterialSerializer@@QAE@XZ
0x1015e0f0:??1SurfaceNode@@UAE@XZ
0x10161a90:??1Terrain@@UAE@XZ
0x10161710:??1TerrainNode@@UAE@XZ
0x1000cb70:??1Texture@@QAE@XZ
0x1016e550:??1TextureCamera@@UAE@XZ
0x10119e10:??1TextureManager@@QAE@XZ
0x10017b10:??1VFormat@VertexManager@@QAE@XZ
0x100299b0:??1VertexManager@@QAE@XZ
0x10137030:??1WaterManager@@QAE@XZ
0x10137070:??1WaterSurface@@UAE@XZ
0x100167f0:??1WaveBank@@UAE@XZ
0x1013df40:??1World@@QAE@XZ
0x1003e360:??1XFileLoad@@QAE@XZ
0x100017b0:??1XMLSystem@@QAE@XZ
0x10016700:??4?$_Vector_val@PAUModelFrame@@V?$allocator@PAUModelFrame@@@std@@@std@@QAEAAV01@ABV01@@Z
0x10016700:??4?$_Vector_val@PAVActor@@V?$allocator@PAVActor@@@std@@@std@@QAEAAV01@ABV01@@Z
0x10016700:??4?$_Vector_val@PAVEditorVar@@V?$allocator@PAVEditorVar@@@std@@@std@@QAEAAV01@ABV01@@Z
0x10016700:??4?$_Vector_val@PAVMaterial@@V?$allocator@PAVMaterial@@@std@@@std@@QAEAAV01@ABV01@@Z
0x10016700:??4?$_Vector_val@PAVMatrix@@V?$allocator@PAVMatrix@@@std@@@std@@QAEAAV01@ABV01@@Z
0x10016700:??4?$_Vector_val@PAVModel@@V?$allocator@PAVModel@@@std@@@std@@QAEAAV01@ABV01@@Z
0x10016700:??4?$_Vector_val@UAttributeRange@@V?$allocator@UAttributeRange@@@std@@@std@@QAEAAV01@ABV01@@Z
0x10016700:??4?$_Vector_val@UVFormat@VertexManager@@V?$allocator@UVFormat@VertexManager@@@std@@@std@@QAEAAV01@ABV01@@Z
0x10016700:??4?$_Vector_val@VBBox@@V?$allocator@VBBox@@@std@@@std@@QAEAAV01@ABV01@@Z
0x10016700:??4?$_Vector_val@VEditorVar@@V?$allocator@VEditorVar@@@std@@@std@@QAEAAV01@ABV01@@Z
0x1001fed0:??4?$vector@PAUModelFrame@@V?$allocator@PAUModelFrame@@@std@@@std@@QAEAAV01@ABV01@@Z
0x1000d550:??4?$vector@PAVActor@@V?$allocator@PAVActor@@@std@@@std@@QAEAAV01@ABV01@@Z
0x10020260:??4?$vector@PAVEditorVar@@V?$allocator@PAVEditorVar@@@std@@@std@@QAEAAV01@ABV01@@Z
0x1000ce20:??4?$vector@PAVMaterial@@V?$allocator@PAVMaterial@@@std@@@std@@QAEAAV01@ABV01@@Z
0x10020130:??4?$vector@PAVMatrix@@V?$allocator@PAVMatrix@@@std@@@std@@QAEAAV01@ABV01@@Z
0x10020000:??4?$vector@PAVModel@@V?$allocator@PAVModel@@@std@@@std@@QAEAAV01@ABV01@@Z
0x10025e00:??4?$vector@UAttributeRange@@V?$allocator@UAttributeRange@@@std@@@std@@QAEAAV01@ABV01@@Z
0x1002c070:??4?$vector@UVFormat@VertexManager@@V?$allocator@UVFormat@VertexManager@@@std@@@std@@QAEAAV01@ABV01@@Z
0x10025190:??4?$vector@VBBox@@V?$allocator@VBBox@@@std@@@std@@QAEAAV01@ABV01@@Z
0x1002bc70:??4?$vector@VEditorVar@@V?$allocator@VEditorVar@@@std@@@std@@QAEAAV01@ABV01@@Z
0x1002dd40:??4Actor@@QAEAAV0@ABV0@@Z
0x100d05e0:??4ActorGroup@@QAEAAV0@ABV0@@Z
0x10054ba0:??4ActorInstancer@@QAEAAV0@ABV0@@Z
0x1000e090:??4ActorSelectedList@@QAEAAV0@ABV0@@Z
0x100f2110:??4AnimationSet@@UAEXABV0@@Z
0x10033210:??4AsyncLoader@@QAEAAV0@ABV0@@Z
0x10052090:??4AsyncLoaderReport@@QAEAAV0@ABV0@@Z
0x10017a70:??4AttributeRange@@QAEAAU0@ABU0@@Z
0x10054e30:??4BatchRenderer@@QAEAAV0@ABV0@@Z
0x10074310:??4C3DModel@@QAEAAV0@ABV0@@Z
0x100d4140:??4CControlBox@@QAEAAV0@ABV0@@Z
0x100d4190:??4CControlBoxList@@QAEAAV0@ABV0@@Z
0x100d2b50:??4CDlgMgr@@QAEAAV0@ABV0@@Z
0x10052090:??4CExternalApiInitializer@@QAEAAV0@ABV0@@Z
0x10052090:??4CFont@RECanvas@@QAEAAV01@ABV01@@Z
0x100d4570:??4CFormatedStatic@@QAEAAV0@ABV0@@Z
0x1006bbf0:??4CGUIWindow@@QAEAAV0@ABV0@@Z
0x100747f0:??4CHotZonePic@@QAEAAV0@ABV0@@Z
0x10073a80:??4CInputBox@@QAEAAV0@ABV0@@Z
0x100d4210:??4CItemHolder@@QAEAAV0@ABV0@@Z
0x10074580:??4CMLIMEEditBox@@QAEAAV0@ABV0@@Z
0x100733c0:??4CMultiLineEB@@QAEAAV0@ABV0@@Z
0x10075bb0:??4CMultiLineStatic@@QAEAAV0@ABV0@@Z
0x1007bc80:??4CPRTMesh@@QAEAAV0@ABV0@@Z
0x10052090:??4CPRTSimulator@@QAEAAV0@ABV0@@Z
0x10073fc0:??4CPasswordEB@@QAEAAV0@ABV0@@Z
0x100d45e0:??4CPaster@@QAEAAV0@ABV0@@Z
0x100740b0:??4CPicCheckBox@@QAEAAV0@ABV0@@Z
0x10074150:??4CPicRadioButton@@QAEAAV0@ABV0@@Z
0x100738a0:??4CPictureLabel@@QAEAAV0@ABV0@@Z
0x100d4480:??4CProgressBTN@@QAEAAV0@ABV0@@Z
0x100d4360:??4CProgressBar@@QAEAAV0@ABV0@@Z
0x10071a20:??4CREButton@@QAEAAV0@ABV0@@Z
0x10071c60:??4CRECheckBox@@QAEAAV0@ABV0@@Z
0x10072a10:??4CREComboBox@@QAEAAV0@ABV0@@Z
0x10073b80:??4CREContainer@@QAEAAV0@ABV0@@Z
0x10071450:??4CREControl@@QAEAAV0@ABV0@@Z
0x10075480:??4CREDialog@@QAEAAV0@ABV0@@Z
0x10069b10:??4CREDialogResourceManager@@QAEAAV0@ABV0@@Z
0x10072f40:??4CREEditBox@@QAEAAV0@ABV0@@Z
0x10069650:??4CREElement@@QAEAAV0@ABV0@@Z
0x100720b0:??4CREHScrollBar@@QAEAAV0@ABV0@@Z
0x100735f0:??4CREIMEEditBox@@QAEAAV0@ABV0@@Z
0x10072370:??4CREListBox@@QAEAAV0@ABV0@@Z
0x10076460:??4CREListCtrl@@QAEAAV0@ABV0@@Z
0x10073cc0:??4CRENumericButton@@QAEAAV0@ABV0@@Z
0x10073e50:??4CRENumericEdit@@QAEAAV0@ABV0@@Z
0x10073d20:??4CRENumericEditBox@@QAEAAV0@ABV0@@Z
0x10071b50:??4CREPictureButton@@QAEAAV0@ABV0@@Z
0x10072640:??4CREPropertiesList@@QAEAAV0@ABV0@@Z
0x10071d10:??4CRERadioButton@@QAEAAV0@ABV0@@Z
0x10071e70:??4CREScrollBar@@QAEAAV0@ABV0@@Z
0x10072cd0:??4CRESlider@@QAEAAV0@ABV0@@Z
0x100718a0:??4CREStatic@@QAEAAV0@ABV0@@Z
0x100727e0:??4CRETabPages@@QAEAAV0@ABV0@@Z
0x10073c20:??4CRETextBox@@QAEAAV0@ABV0@@Z
0x10016710:??4CRETimer@@QAEAAV0@ABV0@@Z
0x100d44f0:??4CSeperateLine@@QAEAAV0@ABV0@@Z
0x10074a00:??4CTYChatIME@@QAEAAV0@ABV0@@Z
0x100758f0:??4CTYDialog@@QAEAAV0@ABV0@@Z
0x100d4e50:??4CTYMenu@@QAEAAV0@ABV0@@Z
0x10052090:??4CTYMenuHandler@@QAEAAV0@ABV0@@Z
0x100d4530:??4CTYVStatic@@QAEAAV0@ABV0@@Z
0x1006abe0:??4CUniBuffer@CREEditBox@@QAEAAV01@ABV01@@Z
0x1002dc30:??4CacheModel@@QAEAAV0@ABV0@@Z
0x1002dc30:??4CacheWorld@@QAEAAV0@ABV0@@Z
0x10013320:??4Camera@@QAEAAV0@ABV0@@Z
0x1002fea0:??4Canvas@@QAEAAV0@ABV0@@Z
0x10077900:??4ClothSimulator@@QAEAAV0@ABV0@@Z
0x10029a50:??4CollisionInfo@@QAEAAU0@ABU0@@Z
0x10052090:??4DialogManager@@QAEAAV0@ABV0@@Z
0x1007e6c0:??4DynLib@@QAEAAV0@ABV0@@Z
0x100154c0:??4Editor@@QAEAAV0@ABV0@@Z
0x10009640:??4EditorVar@@QAEAAV0@ABV0@@Z
0x1001c620:??4Event@@QAEAAV0@ABV0@@Z
0x100326a0:??4EventAttemper@@QAEAAV0@ABV0@@Z
0x10052090:??4EventObserver@@QAEAAV0@ABV0@@Z
0x1000bb30:??4FXSystem@@QAEAAV0@ABV0@@Z
0x10001000:??4Face@@QAEAAU0@ABU0@@Z
0x10001290:??4Factory@@QAEAAV0@ABV0@@Z
0x10019280:??4FuncTimer@@QAEAAV0@ABV0@@Z
0x100010c0:??4GUID_PAIR@@QAEAAU0@ABU0@@Z
0x10074ab0:??4GUISystem@@QAEAAV0@ABV0@@Z
0x1000b110:??4Gizmo@@QAEAAV0@ABV0@@Z
0x100367a0:??4ILoad@@QAEAAV0@ABV0@@Z
0x10012210:??4IParse@@QAEAAV0@ABV0@@Z
0x100122d0:??4ISave@@QAEAAV0@ABV0@@Z
0x10052d70:??4IndoorVolume@@QAEAAV0@ABV0@@Z
0x1006bbf0:??4LODManager@@QAEAAV0@ABV0@@Z
0x1002e5e0:??4Light@@QAEAAV0@ABV0@@Z
0x10018ee0:??4LightState@@QAEAAV0@ABV0@@Z
0x10030cb0:??4Material@@QAEAAV0@ABV0@@Z
0x1015aaf0:??4MaterialIntersect@@QAEAAV0@ABV0@@Z
0x10020f40:??4MaterialLibrary@@QAEAAV0@ABV0@@Z
0x1002ea10:??4MaterialManager@@QAEAAV0@ABV0@@Z
0x10036960:??4MaterialSerializer@@QAEAAV0@ABV0@@Z
0x1002da40:??4Mesh@@QAEAAV0@ABV0@@Z
0x10052090:??4MeshOps@@QAEAAV0@ABV0@@Z
0x10031350:??4Model@@QAEAAV0@ABV0@@Z
0x10028a50:??4ModelFrame@@QAEAAU0@ABU0@@Z
0x10052090:??4NxHelper@@QAEAAU0@ABU0@@Z
0x10054100:??4NxPhysics@@QAEAAV0@ABV0@@Z
0x10052090:??4NxPhysicsContactReport@@QAEAAV0@ABV0@@Z
0x100367a0:??4OBJLoad@@QAEAAV0@ABV0@@Z
0x100368e0:??4OBJSave@@QAEAAV0@ABV0@@Z
0x10016bc0:??4OcclusionQuery@@QAEAAV0@ABV0@@Z
0x10052090:??4OggPlayer@@QAEAAV0@ABV0@@Z
0x10052090:??4OutpopControllerHitReport@@QAEAAV0@ABV0@@Z
0x10053bb0:??4OutpopRaycastReport@@QAEAAV0@ABV0@@Z
0x1002d760:??4PRTSettings@@QAEAAU0@ABU0@@Z
0x10052090:??4PhysicsController_Callback@@QAEAAV0@ABV0@@Z
0x10052090:??4PhysicsNormal_Callback@@QAEAAV0@ABV0@@Z
0x10052090:??4PhysicsTriggerReport@@QAEAAV0@ABV0@@Z
0x10052090:??4PhysicsTrigger_Callback@@QAEAAV0@ABV0@@Z
0x10052090:??4PhysicsVehicle_Callback@@QAEAAV0@ABV0@@Z
0x10109190:??4PostProcess@@QAEAAV0@ABV0@@Z
0x10105380:??4PostProcessEffect@@QAEAAV0@ABV0@@Z
0x10105500:??4PostProcessEffect_Permanent@@QAEAAV0@ABV0@@Z
0x10052090:??4Precacher@@QAEAAV0@ABV0@@Z
0x1002e3c0:??4Prefab@@QAEAAV0@ABV0@@Z
0x10091360:??4PrefabInstance@@QAEAAV0@ABV0@@Z
0x10001000:??4Profiler@@QAEAAV0@ABV0@@Z
0x10069630:??4REBlendColor@@QAEAAU0@ABU0@@Z
0x1006a740:??4REPage@@QAEAAU0@ABU0@@Z
0x10052090:??4RenderBase@@QAEAAV0@ABV0@@Z
0x10024100:??4RenderCallbackManager@@QAEAAV0@ABV0@@Z
0x10018390:??4Script@@QAEAAV0@ABV0@@Z
0x10012750:??4ScriptData@@QAEAAU0@ABU0@@Z
0x10010a40:??4Serializer@@QAEAAV0@ABV0@@Z
0x10018810:??4Shader@@QAEAAV0@ABV0@@Z
0x10030b70:??4ShaderManager@@QAEAAV0@ABV0@@Z
0x100186b0:??4ShaderVar@@QAEAAU0@ABU0@@Z
0x10010180:??4ShadowEngine@@QAEAAV0@ABV0@@Z
0x10024490:??4SkinWeights@Mesh@@QAEAAU01@ABU01@@Z
0x1005e1c0:??4SkyController@@QAEAAV0@ABV0@@Z
0x10018040:??4SkySettings@@QAEAAV0@ABV0@@Z
0x100169c0:??4Sound@@QAEAAV0@ABV0@@Z
0x10052090:??4SoundBank@@QAEAAV0@ABV0@@Z
0x10024090:??4SoundEmitter@@QAEAAV0@ABV0@@Z
0x1002d2e0:??4StaticModel@@QAEAAV0@ABV0@@Z
0x1003cd10:??4SubareaManager@@QAEAAV0@ABV0@@Z
0x10036960:??4SubareaMaterialSerializer@@QAEAAV0@ABV0@@Z
0x1005d7d0:??4SurfaceNode@@QAEAAV0@ABV0@@Z
0x1005ed30:??4Terrain@@QAEAAV0@ABV0@@Z
0x1005d810:??4TerrainNode@@QAEAAV0@ABV0@@Z
0x1000f220:??4Texture@@QAEAAV0@ABV0@@Z
0x10074f10:??4TextureCamera@@QAEAAV0@ABV0@@Z
0x100992f0:??4TextureManager@@QAEAAV0@ABV0@@Z
0x10017b50:??4VFormat@VertexManager@@QAEAAU01@ABU01@@Z
0x1002dc10:??4VertexManager@@QAEAAV0@ABV0@@Z
0x10052090:??4WaterManager@@QAEAAV0@ABV0@@Z
0x1009ad00:??4WaterSurface@@QAEAAV0@ABV0@@Z
0x10052090:??4WaveBank@@QAEAAV0@ABV0@@Z
0x100306d0:??4World@@QAEAAV0@ABV0@@Z
0x1003e460:??4XFileLoad@@QAEAAV0@ABV0@@Z
0x100018c0:??4XMLSystem@@QAEAAV0@ABV0@@Z
0x1001bd20:??8ScriptData@@QAE_NAAU0@@Z
0x10019470:??A?$vector@PAUModelFrame@@V?$allocator@PAUModelFrame@@@std@@@std@@QAEAAPAUModelFrame@@I@Z
0x10019470:??A?$vector@PAUModelFrame@@V?$allocator@PAUModelFrame@@@std@@@std@@QBEABQAUModelFrame@@I@Z
0x10019470:??A?$vector@PAVActor@@V?$allocator@PAVActor@@@std@@@std@@QAEAAPAVActor@@I@Z
0x10019470:??A?$vector@PAVActor@@V?$allocator@PAVActor@@@std@@@std@@QBEABQAVActor@@I@Z
0x10019470:??A?$vector@PAVEditorVar@@V?$allocator@PAVEditorVar@@@std@@@std@@QAEAAPAVEditorVar@@I@Z
0x10019470:??A?$vector@PAVEditorVar@@V?$allocator@PAVEditorVar@@@std@@@std@@QBEABQAVEditorVar@@I@Z
0x10019470:??A?$vector@PAVMaterial@@V?$allocator@PAVMaterial@@@std@@@std@@QAEAAPAVMaterial@@I@Z
0x10019470:??A?$vector@PAVMaterial@@V?$allocator@PAVMaterial@@@std@@@std@@QBEABQAVMaterial@@I@Z
0x10019470:??A?$vector@PAVMatrix@@V?$allocator@PAVMatrix@@@std@@@std@@QAEAAPAVMatrix@@I@Z
0x10019470:??A?$vector@PAVMatrix@@V?$allocator@PAVMatrix@@@std@@@std@@QBEABQAVMatrix@@I@Z
0x10019470:??A?$vector@PAVModel@@V?$allocator@PAVModel@@@std@@@std@@QAEAAPAVModel@@I@Z
0x10019470:??A?$vector@PAVModel@@V?$allocator@PAVModel@@@std@@@std@@QBEABQAVModel@@I@Z
0x100a1b10:??A?$vector@UAttributeRange@@V?$allocator@UAttributeRange@@@std@@@std@@QAEAAUAttributeRange@@I@Z
0x100a1b10:??A?$vector@UAttributeRange@@V?$allocator@UAttributeRange@@@std@@@std@@QBEABUAttributeRange@@I@Z
0x100cddf0:??A?$vector@UVFormat@VertexManager@@V?$allocator@UVFormat@VertexManager@@@std@@@std@@QAEAAUVFormat@VertexManager@@I@Z
0x100cddf0:??A?$vector@UVFormat@VertexManager@@V?$allocator@UVFormat@VertexManager@@@std@@@std@@QBEABUVFormat@VertexManager@@I@Z
0x100cddf0:??A?$vector@VBBox@@V?$allocator@VBBox@@@std@@@std@@QAEAAVBBox@@I@Z
0x100cddf0:??A?$vector@VBBox@@V?$allocator@VBBox@@@std@@@std@@QBEABVBBox@@I@Z
0x10019ec0:??A?$vector@VEditorVar@@V?$allocator@VEditorVar@@@std@@@std@@QAEAAVEditorVar@@I@Z
0x10019ec0:??A?$vector@VEditorVar@@V?$allocator@VEditorVar@@@std@@@std@@QBEABVEditorVar@@I@Z
0x100a55f0:??ACUniBuffer@CREEditBox@@QAEAA_WH@Z
0x1006abc0:??ACUniBuffer@CREEditBox@@QBEAB_WH@Z
0x10018ce0:??DLightState@@QBE?AV0@M@Z
0x10018e30:??GLightState@@QBE?AV0@ABV0@@Z
0x10018d80:??HLightState@@QBE?AV0@ABV0@@Z
0x101bb734:??_7Actor@@6B@
0x101c08ec:??_7ActorInstancer@@6B@
0x101c8640:??_7AnimationSet@@6B@
0x101bb9a8:??_7AsyncLoader@@6B@
0x101bb4d8:??_7AsyncLoaderReport@@6B@
0x101bb350:??_7AudioDevice@@6B@
0x101c09e0:??_7BatchRenderer@@6B@
0x101c27bc:??_7C3DModel@@6B@
0x101c58b4:??_7CControlBox@@6B@
0x101c5964:??_7CControlBoxList@@6B@
0x101c58ac:??_7CDlgMgr@@6B@
0x101bb42c:??_7CFont@RECanvas@@6B@
0x101c5e24:??_7CFormatedStatic@@6B@
0x101c292c:??_7CHotZonePic@@6B@
0x101c2074:??_7CInputBox@@6B@
0x101c5a14:??_7CItemHolder@@6B@
0x101c286c:??_7CMLIMEEditBox@@6B@
0x101c1e4c:??_7CMultiLineEB@@6B@
0x101c2b5c:??_7CMultiLineStatic@@6B@
0x101c3118:??_7CPRTMesh@@6B@
0x101c314c:??_7CPRTSimulator@@6B@
0x101c2554:??_7CPasswordEB@@6B@
0x101c5ef4:??_7CPaster@@6B@
0x101c260c:??_7CPicCheckBox@@6B@
0x101c26e4:??_7CPicRadioButton@@6B@
0x101c1fc4:??_7CPictureLabel@@6B@
0x101c5b9c:??_7CProgressBTN@@6B@
0x101c5ac4:??_7CProgressBar@@6B@
0x101c14ec:??_7CREButton@@6B@
0x101c16a4:??_7CRECheckBox@@6B@
0x101c1bec:??_7CREComboBox@@6B@
0x101c2154:??_7CREContainer@@6B@
0x101c136c:??_7CREControl@@6B@
0x101c2b0c:??_7CREDialog@@6B@
0x101c1d94:??_7CREEditBox@@6B@
0x101c190c:??_7CREHScrollBar@@6B@
0x101c1f04:??_7CREIMEEditBox@@6B@
0x101c19bc:??_7CREListBox@@6B@
0x101c2c2c:??_7CREListCtrl@@6B@
0x101c22dc:??_7CRENumericButton@@6B@
0x101c2474:??_7CRENumericEdit@@6B@
0x101c23b4:??_7CRENumericEditBox@@6B@
0x101c15c4:??_7CREPictureButton@@6B@
0x101c1a74:??_7CREPropertiesList@@6B@
0x101c177c:??_7CRERadioButton@@6B@
0x101c185c:??_7CREScrollBar@@6B@
0x101c1ce4:??_7CRESlider@@6B@
0x101c141c:??_7CREStatic@@6B@
0x101c1b24:??_7CRETabPages@@6B@
0x101c2204:??_7CRETextBox@@6B@
0x101c5c74:??_7CSeperateLine@@6B@
0x101c29dc:??_7CTYChatIME@@6B@
0x101c2b2c:??_7CTYDialog@@6B@
0x101c5df0:??_7CTYMenu@@6B@
0x101c5838:??_7CTYMenuHandler@@6B@
0x101c5d24:??_7CTYVStatic@@6B@
0x101bb884:??_7Canvas@@6B@
0x101bb534:??_7DialogManager@@6B@
0x101bb0e4:??_7Editor@@6B@
0x101bb57c:??_7Event@@6B@
0x101bb994:??_7EventAttemper@@6B@
0x101bb524:??_7EventObserver@@6B@
0x101bb03c:??_7FXManager@@6B@
0x101bafd4:??_7FXSystem@@6B@
0x101bae5c:??_7Factory@@6B@
0x101c1304:??_7GUISystem@@6B@
0x101bb030:??_7ILoad@@6B@
0x101bb058:??_7IParse@@6B@
0x101bb074:??_7ISave@@6B@
0x101c082c:??_7IndoorVolume@@6B@
0x101bb5ac:??_7Input@@6B@
0x101bb514:??_7LCDDevice@@6B@
0x101bb814:??_7Light@@6B@
0x101bb664:??_7Mesh@@6B@
0x101bb4b8:??_7MeshOps@@6B@
0x101bb940:??_7Model@@6B@
0x101c07f0:??_7NxPhysicsContactReport@@6B@
0x101bbd64:??_7OBJLoad@@6B@
0x101bbd70:??_7OBJSave@@6B@
0x101bb3fc:??_7OcclusionQuery@@6B@
0x101bb3d4:??_7OggPlayer@@6B@
0x101c07e0:??_7OutpopControllerHitReport@@6B@
0x101c089c:??_7OutpopRaycastReport@@6B@
0x101c0814:??_7OutpopRaycastReportIgnore@@6B@
0x101c07a8:??_7PhysicsController_Callback@@6B@
0x101c0790:??_7PhysicsNormal_Callback@@6B@
0x101c07fc:??_7PhysicsTriggerReport@@6B@
0x101c07b8:??_7PhysicsTrigger_Callback@@6B@
0x101c079c:??_7PhysicsVehicle_Callback@@6B@
0x101c8a38:??_7PostProcessEffect@@6B@
0x101c8a44:??_7PostProcessEffect_Permanent@@6B@
0x101bb7a4:??_7Prefab@@6B@
0x101c37b4:??_7PrefabInstance@@6B@
0x101baf94:??_7RenderBase@@6B@
0x101c8dc4:??_7RenderDevice@@6B@
0x101bb928:??_7ShaderManager@@6B@
0x101bb044:??_7ShadowEngine@@6B@
0x101c0b44:??_7SkyController@@6B@
0x101bb38c:??_7Sound@@6B@
0x101bb344:??_7SoundBank@@6B@
0x101bb5a0:??_7SoundEmitter@@6B@
0x101bb634:??_7StaticModel@@6B@
0x101bcb74:??_7SubareaManager@@6B@
0x101c0a44:??_7SurfaceNode@@6B@
0x101c0bbc:??_7Terrain@@6B@
0x101c0ab4:??_7TerrainNode@@6B@
0x101c2a9c:??_7TextureCamera@@6B@
0x101c4324:??_7TextureManager@@6B@
0x101bb70c:??_7VertexManager@@6B@
0x101c8788:??_7WaterManager@@6B@
0x101c439c:??_7WaterSurface@@6B@
0x101bb338:??_7WaveBank@@6B@
0x101bb97c:??_7World@@6B@
0x101bce34:??_7XFileLoad@@6B@
0x10283718:??_B?1??Instance@Serializer@@SAPAV1@XZ@51
0x1001cc20:??_F?$_Vector_val@PAUModelFrame@@V?$allocator@PAUModelFrame@@@std@@@std@@QAEXXZ
0x1001cc20:??_F?$_Vector_val@PAVActor@@V?$allocator@PAVActor@@@std@@@std@@QAEXXZ
0x1001cc20:??_F?$_Vector_val@PAVEditorVar@@V?$allocator@PAVEditorVar@@@std@@@std@@QAEXXZ
0x1001cc20:??_F?$_Vector_val@PAVMaterial@@V?$allocator@PAVMaterial@@@std@@@std@@QAEXXZ
0x1001cc20:??_F?$_Vector_val@PAVMatrix@@V?$allocator@PAVMatrix@@@std@@@std@@QAEXXZ
0x1001cc20:??_F?$_Vector_val@PAVModel@@V?$allocator@PAVModel@@@std@@@std@@QAEXXZ
0x1001cc20:??_F?$_Vector_val@UAttributeRange@@V?$allocator@UAttributeRange@@@std@@@std@@QAEXXZ
0x1001cc20:??_F?$_Vector_val@UVFormat@VertexManager@@V?$allocator@UVFormat@VertexManager@@@std@@@std@@QAEXXZ
0x1001cc20:??_F?$_Vector_val@VBBox@@V?$allocator@VBBox@@@std@@@std@@QAEXXZ
0x1001cc20:??_F?$_Vector_val@VEditorVar@@V?$allocator@VEditorVar@@@std@@@std@@QAEXXZ
0x1006b620:??_FC3DModel@@QAEXXZ
0x100a2610:??_FCControlBox@@QAEXXZ
0x100a26b0:??_FCControlBoxList@@QAEXXZ
0x100a2dd0:??_FCFormatedStatic@@QAEXXZ
0x1006af00:??_FCInputBox@@QAEXXZ
0x1006b8e0:??_FCMLIMEEditBox@@QAEXXZ
0x1006acd0:??_FCMultiLineEB@@QAEXXZ
0x1006b370:??_FCPasswordEB@@QAEXXZ
0x100a2e50:??_FCPaster@@QAEXXZ
0x1006b420:??_FCPicCheckBox@@QAEXXZ
0x1006b490:??_FCPicRadioButton@@QAEXXZ
0x1006ae70:??_FCPictureLabel@@QAEXXZ
0x100a2a20:??_FCProgressBar@@QAEXXZ
0x1006a120:??_FCREButton@@QAEXXZ
0x1006a260:??_FCRECheckBox@@QAEXXZ
0x1006a8b0:??_FCREComboBox@@QAEXXZ
0x10069f20:??_FCREControl@@QAEXXZ
0x1006ac20:??_FCREEditBox@@QAEXXZ
0x1006a4d0:??_FCREHScrollBar@@QAEXXZ
0x1006adb0:??_FCREIMEEditBox@@QAEXXZ
0x1006a5f0:??_FCREListBox@@QAEXXZ
0x1006b510:??_FCREListCtrl@@QAEXXZ
0x1006b060:??_FCRENumericButton@@QAEXXZ
0x1006b2f0:??_FCRENumericEdit@@QAEXXZ
0x1006b0e0:??_FCRENumericEditBox@@QAEXXZ
0x1006a1a0:??_FCREPictureButton@@QAEXXZ
0x1006a6d0:??_FCREPropertiesList@@QAEXXZ
0x1006a330:??_FCRERadioButton@@QAEXXZ
0x1006a3f0:??_FCREScrollBar@@QAEXXZ
0x1006a9f0:??_FCRESlider@@QAEXXZ
0x1006a010:??_FCREStatic@@QAEXXZ
0x1006a770:??_FCRETabPages@@QAEXXZ
0x1006aff0:??_FCRETextBox@@QAEXXZ
0x100a2b70:??_FCSeperateLine@@QAEXXZ
0x1006bb30:??_FCTYChatIME@@QAEXXZ
0x100a2c10:??_FCTYVStatic@@QAEXXZ
0x1006ac10:??_FCUniBuffer@CREEditBox@@QAEXXZ
0x10018750:??_FShaderVar@@QAEXXZ
0x10284750:?ActorInstancers@ActorInstancer@@0V?$vector@PAVActorInstancer@@V?$allocator@PAVActorInstancer@@@std@@@std@@A
0x1013a940:?AddActor@World@@QAEPAVActor@@PAV2@@Z
0x1016da50:?AddActorToList@TextureCamera@@QAEXPAVActor@@@Z
0x1014a0f0:?AddAddonDialog@CDlgMgr@@QAEHPAVCTYDialog@@@Z
0x1012f510:?AddBiasCloudIntensity@SkyController@@QAE_NV?$basic_string@DU?$char_traits@D@std@@V?$allocator@D@2@@std@@M@Z
0x1012f070:?AddBiasFogColor@SkyController@@QAE_NV?$basic_string@DU?$char_traits@D@std@@V?$allocator@D@2@@std@@AAVVector@@@Z
0x1012f200:?AddBiasFogDistance@SkyController@@QAE_NV?$basic_string@DU?$char_traits@D@std@@V?$allocator@D@2@@std@@M@Z
0x1012f140:?AddBiasFogIntensity@SkyController@@QAE_NV?$basic_string@DU?$char_traits@D@std@@V?$allocator@D@2@@std@@M@Z
0x1012f2c0:?AddBiasFogStart@SkyController@@QAE_NV?$basic_string@DU?$char_traits@D@std@@V?$allocator@D@2@@std@@M@Z
0x1012f380:?AddBiasLightColor@SkyController@@QAE_NV?$basic_string@DU?$char_traits@D@std@@V?$allocator@D@2@@std@@AAVVector@@@Z
0x1012f450:?AddBiasLightIntensity@SkyController@@QAE_NV?$basic_string@DU?$char_traits@D@std@@V?$allocator@D@2@@std@@M@Z
0x100cd100:?AddButton@CREDialog@@QAEJHPB_WHHHHI_NPAPAVCREButton@@@Z
0x100cc020:?AddButton@CREPropertiesList@@QAEJPB_WHPAX0@Z
0x10145cb0:?AddCallbackNormal@NxPhysics@@QAEXABUStack_Callback_Normal@@@Z
0x10143df0:?AddCallbackTrigger@NxPhysics@@QAEXABUStack_Callback_Trigger@@@Z
0x10145cc0:?AddCallbackVehicle@NxPhysics@@QAEXABUStack_Callback_Vehicle@@@Z
0x100c8fd0:?AddChar@CMultiLineEB@@IAEX_W@Z
0x100cd2f0:?AddCheckBox@CREDialog@@QAEJHPB_WHHHH_NI1PAPAVCRECheckBox@@@Z
0x100cc430:?AddCheckBox@CREPropertiesList@@QAEJPB_WH_NPAX@Z
0x100769d0:?AddCloth@ClothSimulator@@QAEXPAVMesh@@@Z
0x100cd540:?AddComboBox@CREDialog@@QAEJHHHHHI_NPAPAVCREComboBox@@@Z
0x100cc300:?AddComboBox@CREPropertiesList@@QAEJPB_WHPAX@Z
0x10155cf0:?AddControl@CControlBox@@QAE_NPAVCREControl@@HH@Z
0x100c5cc0:?AddControl@CREContainer@@QAEXPAVCREControl@@@Z
0x100b3510:?AddControl@CREDialog@@QAEJPAVCREControl@@@Z
0x100b13f0:?AddControlToTabPage@CRETabPages@@QAEXHPAVCREControl@@@Z
0x1014a050:?AddDialog@CDlgMgr@@QAE_NPAVCTYDialog@@@Z
0x1014cc50:?AddDialogFromXML@CDlgMgr@@IAEPAVCTYDialog@@PAVDOMElement@xercesc_2_5@@@Z
0x100d3c10:?AddDlgFrontOfMe@CREDialog@@QAEXH@Z
0x100507e0:?AddDropShadowPartner@Actor@@QAEXPAV1@@Z
0x100cb220:?AddEditBox@CREDialog@@QAEJHPB_WHHHH_NPAPAVCREEditBox@@@Z
0x1016f670:?AddEvent@EventAttemper@@QAEPAVEvent@@EGMW4EVENT_ACTION_TYPE@@@Z
0x1016f640:?AddEvent@EventAttemper@@QAEPAVEvent@@EGMW4EVENT_ACTION_TYPE@@AAH@Z
0x1016f6a0:?AddEvent@EventAttemper@@QAEPAVEvent@@IMW4EVENT_ACTION_TYPE@@@Z
0x1016f450:?AddEvent@EventAttemper@@QAEPAVEvent@@IMW4EVENT_ACTION_TYPE@@AAH@Z
0x10030c20:?AddExclusionListHandle@Light@@QAEXPAVActor@@@Z
0x100a1210:?AddFXSystemToHash@FXManager@@AAEXPAVFXSystem@@@Z
0x100b5550:?AddFont@CREDialog@@QAEIPB_WJ_N@Z
0x100af8e0:?AddFont@CREDialogResourceManager@@QAEHPB_WJJ@Z
0x100c5a70:?AddFormatedLine@CMultiLineStatic@@QAEXABV?$basic_string@_WU?$char_traits@_W@std@@V?$allocator@_W@2@@std@@PBUD3DXCOLOR@@@Z
0x10063d50:?AddFrustum@Camera@@QAEXAAVMatrix@@0@Z
0x10063e40:?AddFrustumBox@Camera@@QAEXAAVBBox@@@Z
0x100c68a0:?AddHotZone@CHotZonePic@@QAEHABUtagRECT@@ABV?$basic_string@DU?$char_traits@D@std@@V?$allocator@D@2@@std@@PAU2@_NK@Z
0x100cb320:?AddIMEEditBox@CREDialog@@QAEJHPB_WHHHH_NPAPAVCREIMEEditBox@@@Z
0x1002d4c0:?AddInBlockers@PRTSettings@@QAEXAAV?$vector@V?$basic_string@DU?$char_traits@D@std@@V?$allocator@D@2@@std@@V?$allocator@V?$basic_string@DU?$char_traits@D@std@@V?$allocator@D@2@@std@@@2@@std@@@Z
0x101526a0:?AddItem@CItemHolder@@QAEHABV?$basic_string@_WU?$char_traits@_W@std@@V?$allocator@_W@2@@std@@K0@Z
0x10156070:?AddItem@CItemHolder@@QAEHPAUItemInfo@1@@Z
0x100b07b0:?AddItem@CREComboBox@@QAEJPB_WPAX@Z
0x100b0a20:?AddItem@CREListBox@@QAEJPB_WPAX@Z
0x100cc180:?AddItem@CREPropertiesList@@QAEJPB_WHPAX0@Z
0x100cbee0:?AddItem@CREPropertiesList@@QAEJPB_WPAX@Z
0x100df700:?AddKeyframe@Light@@QAEXABVLightState@@M_N@Z
0x100c5520:?AddLine@CMultiLineStatic@@QAEXABV?$basic_string@_WU?$char_traits@_W@std@@V?$allocator@_W@2@@std@@PBUD3DXCOLOR@@@Z
0x10157630:?AddLine@CTYMenu@@QAEXHHABV?$basic_string@_WU?$char_traits@_W@std@@V?$allocator@_W@2@@std@@0PAUtagRECT@@@Z
0x10157440:?AddLine@CTYMenu@@QAEXHHABV?$basic_string@_WU?$char_traits@_W@std@@V?$allocator@_W@2@@std@@@Z
0x100cb420:?AddListBox@CREDialog@@QAEJHHHHHKPAPAVCREListBox@@@Z
0x10030e70:?AddMaterial@MaterialLibrary@@QAEXPAVMaterial@@@Z
0x100e3f70:?AddMaterialType@MaterialManager@@QAEXV?$basic_string@DU?$char_traits@D@std@@V?$allocator@D@2@@std@@@Z
0x1006b760:?AddMotion@CTYDialog@@QAEXH@Z
0x100c66e0:?AddNestedDialog@CTYDialog@@IAEXHHH@Z
0x1016fb90:?AddObserver@EventAttemper@@QAEHEGPAVEventObserver@@@Z
0x1016fa20:?AddObserver@EventAttemper@@QAEHHPAVEventObserver@@@Z
0x1014cfa0:?AddOldDialogFromXML@CDlgMgr@@IAEPAVCTYDialog@@PAVDOMElement@xercesc_2_5@@@Z
0x1002d610:?AddOutBlockers@PRTSettings@@QAEXAAV?$vector@V?$basic_string@DU?$char_traits@D@std@@V?$allocator@D@2@@std@@V?$allocator@V?$basic_string@DU?$char_traits@D@std@@V?$allocator@D@2@@std@@@2@@std@@@Z
0x10172520:?AddPacketForCost@AsyncLoader@@IAEXABUASYNC_SUBMIT_THREAD@@@Z
0x10172460:?AddPacketForProduce@AsyncLoader@@IAEXABUASYNC_SUBMIT_THREAD@@@Z
0x10108110:?AddPostProcessEffect@PostProcess@@QAEPAVPostProcessEffect@@PAV2@_NH@Z
0x10107ff0:?AddPostProcessEffect@PostProcess@@QAEPAVPostProcessEffect@@V?$basic_string@DU?$char_traits@D@std@@V?$allocator@D@2@@std@@0_NH@Z
0x10084160:?AddPrefab@Editor@@QAEPAVPrefab@@AAV?$basic_string@DU?$char_traits@D@std@@V?$allocator@D@2@@std@@@Z
0x10084f60:?AddPrefabInstance@Editor@@QAEXV?$basic_string@DU?$char_traits@D@std@@V?$allocator@D@2@@std@@@Z
0x100853c0:?AddPrefabInstanceUsingPosAndRot@Editor@@QAEXV?$basic_string@DU?$char_traits@D@std@@V?$allocator@D@2@@std@@AAVVector@@AAVMatrix@@@Z
0x100cb500:?AddPropertiesList@CREDialog@@QAEJHHHHHKPAPAVCREPropertiesList@@@Z
0x100cd400:?AddRadioButton@CREDialog@@QAEJHIPB_WHHHH_NI1PAPAVCRERadioButton@@@Z
0x10050780:?AddRef@Actor@@AAEXPAV1@@Z
0x1007bc40:?AddRef@CPRTMesh@@UAEXXZ
0x100e4400:?AddRef@Material@@QAEXXZ
0x1011fba0:?AddRef@Shader@@QAEXXZ
0x1012fb50:?AddSkyVolumeBox@SkyController@@SAXAAVBBox@@@Z
0x100cb120:?AddSlider@CREDialog@@QAEJHHHHHHHH_NPAPAVCRESlider@@M@Z
0x100c7fa0:?AddSlider@CREPropertiesList@@QAEJPB_WHHHHPAX@Z
0x10076980:?AddSphere@ClothSimulator@@QAEPAXXZ
0x100caf60:?AddStatic@CREDialog@@QAEJHPB_WHHHH_NPAPAVCREStatic@@@Z
0x100c8100:?AddStatic@CREPropertiesList@@QAEJPB_WH0PAX@Z
0x100130c0:?AddSystem@FXManager@@AAEPAVFXSystem@@PAV2@@Z
0x100cd200:?AddTabControl@CREDialog@@QAEJHPB_WHHHHPAPAVCREab@@@Z
0x100cd7f0:?AddTabPage@CRETabPages@@UAEXPAUREPage@@H@Z
0x100cd620:?AddTabPage@CRETabPages@@UAEXPB_WH@Z
0x100cb050:?AddTabPagesControl@CREDialog@@QAEJHHHHHPAPAVCRETabPages@@@Z
0x100b56d0:?AddTexture@CREDialog@@UAEHPB_W@Z
0x100af9f0:?AddTexture@CREDialogResourceManager@@QAEHPB_W@Z
0x100c82d0:?AddTitle@CREPropertiesList@@QAEJPB_WH0PAX@Z
0x1004f690:?AddToExcludeList@Actor@@QAEXPBD@Z
0x10050870:?AddToOcclusionList@Actor@@QAEXV?$basic_string@DU?$char_traits@D@std@@V?$allocator@D@2@@std@@@Z
0x1014a440:?AddUIController@CDlgMgr@@QAEXHPAVCUIController@@@Z
0x10149f20:?AddUIEventHandler@CDlgMgr@@QAE_NHP6GXPAVCREDialog@@IHPAVCREControl@@IJ@Z@Z
0x100b49b0:?AdjustLines@CMultiLineEB@@IAEXH@Z
0x1007e510:?Advance@CRETimer@@QAEXXZ
0x10009e40:?Alloc@ShaderVar@@QAEXPAXH@Z
0x100a2720:?AllowsLoadingFromXMLScene@Actor@@UAE_NXZ
0x100a5480:?Analyse@CUniBuffer@CREEditBox@@QAEJXZ
0x100af370:?AnimateHoverPic@CHotZonePic@@QAEXHW4ANIM_TYPE@1@MMM@Z
0x1009dc30:?AppendChild@ModelFrame@@QAEXPAU1@@Z
0x10157870:?AppendText@CFormatedStatic@@QAEXABV?$basic_string@_WU?$char_traits@_W@std@@V?$allocator@_W@2@@std@@K@Z
0x100e2b60:?Apply@Material@@QAE_N_N@Z
0x100ac0f0:?ApplyFont@CREEditBox@@IAEXXZ
0x100c0000:?ApplyFontProperties@CInputBox@@EAEXXZ
0x100bbf70:?ApplyFontProperties@CREButton@@MAEXXZ
0x100aa430:?ApplyFontProperties@CREComboBox@@MAEXXZ
0x100ab680:?ApplyFontProperties@CREListBox@@IAEXXZ
0x100bb3a0:?ApplyFontProperties@CREStatic@@MAEXXZ
0x100ad940:?ApplyFontProperties@CRETextBox@@MAEXXZ
0x100b4990:?AssignControlHandle@CInputBox@@UAEXH@Z
0x100f2d50:?AttachAnimSet@Model@@QAEHAAVAnimationSet@@@Z
0x101416f0:?AttachNxActor@NxPhysics@@QAE_NPAVNxActor@@PAUUserDataHeader@@W4PhysicsGroup@@@Z
0x1004a550:?Attrib@XMLSystem@@QAEHPADAAVVector2@@PAVDOMNode@xercesc_2_5@@@Z
0x1004a4f0:?Attrib@XMLSystem@@QAEHPADAAVVector4@@PAVDOMNode@xercesc_2_5@@@Z
0x1004a4a0:?Attrib@XMLSystem@@QAEHPADAAVVector@@PAVDOMNode@xercesc_2_5@@@Z
0x1004a340:?Attrib@XMLSystem@@QAEHPADHPAVDOMNode@xercesc_2_5@@@Z
0x1004a300:?Attrib@XMLSystem@@QAEHPADKPAVDOMNode@xercesc_2_5@@@Z
0x1004a460:?Attrib@XMLSystem@@QAEHPADMPAVDOMNode@xercesc_2_5@@@Z
0x1004a1f0:?Attrib@XMLSystem@@QAEHPADPBDPAVDOMNode@xercesc_2_5@@@Z
0x1004a3d0:?Attrib@XMLSystem@@QAEHPADU_SYSTEMTIME@@PAVDOMNode@xercesc_2_5@@@Z
0x1004a290:?Attrib@XMLSystem@@QAEHPADV?$basic_string@DU?$char_traits@D@std@@V?$allocator@D@2@@std@@PAVDOMNode@xercesc_2_5@@@Z
0x1004a380:?Attrib@XMLSystem@@QAEHPAD_NPAVDOMNode@xercesc_2_5@@@Z
0x10121e80:?Begin@Shader@@QAEI_N@Z
0x100c6780:?BeginMotion@CTYDialog@@UAEXXZ
0x10122050:?BeginPass@Shader@@QAEXI@Z
0x10066590:?BillBoard@Canvas@@UAEXAAVVector@@MMKPAVTexture@@W4BlendMode@@2@Z
0x100dad70:?Bind@Input@@QAEXHHH@Z
0x100db860:?Bind@Input@@QAEXV?$basic_string@DU?$char_traits@D@std@@V?$allocator@D@2@@std@@0H@Z
0x100a5e50:?Blend@REBlendColor@@QAEXIMM@Z
0x100678c0:?Box@Canvas@@UAEXKHHHHPAVMaterial@@@Z
0x10065f10:?Box@Canvas@@UAEXKHHHHPAVTexture@@W4BlendMode@@1@Z
0x10068320:?BoxAngle@Canvas@@UAEXKHHHHMMPAVTexture@@W4BlendMode@@1@Z
0x100636d0:?BoxInFrustum@Camera@@AAEHABVBBox@@_NAAUFrustum@1@@Z
0x10063830:?BoxInFrustum@Camera@@QAEHABVBBox@@_N1@Z
0x10064b70:?BoxOutline@Canvas@@UAEXKHHHHHW4BlendMode@@0@Z
0x10064dc0:?BoxWithOutline@Canvas@@UAEXKKHAAUtagRECT@@PAVTexture@@W4BlendMode@@2@Z
0x10064d00:?BoxWithOutline@Canvas@@UAEXKKHHHHHPAVTexture@@W4BlendMode@@1@Z
0x100ea5d0:?Break@MeshOps@@UAE_NPAVMesh@@PAVActor@@AAV?$vector@PAVActor@@V?$allocator@PAVActor@@@std@@@std@@@Z
0x10149e30:?BringToTop@CDlgMgr@@QAEXH@Z
0x100a79d0:?BringToTop@CTYDialog@@QAEXXZ
0x100d75b0:?BringToTop@GUISystem@@UAEXPAVCGUIWindow@@@Z
0x10166120:?BuildMesh@SurfaceNode@@QAE_NAAVSurfaceNodeMessage@@@Z
0x101bb2c0:?CF_ALLOW_STUCK@Actor@@2HB
0x101bb2a4:?CF_BBOX@Actor@@2HB
0x101bb2bc:?CF_IGNORE_MESH_USE_BBOX@Actor@@2HB
0x101bb2b8:?CF_IGNORE_TOUCHED@Actor@@2HB
0x101bb2c8:?CF_INCLUDE_RIGIDBODY_SIMULATION@Actor@@2HB
0x101bb2a0:?CF_MESH@Actor@@2HB
0x101bb2ac:?CF_ONLY_TOUCH_PREFAB@Actor@@2HB
0x101bb2a8:?CF_PASSABLE_BBOX@Actor@@2HB
0x101bb2b0:?CF_PREVENT_STEP_UP@Actor@@2HB
0x101bb2c4:?CF_RECEIVE_INCOMING_ACTOR_TOUCH@Actor@@2HB
0x101bb2b4:?CF_WANT_WORLD_TOUCHED@Actor@@2HB
0x100a57a0:?CPtoX@CUniBuffer@CREEditBox@@QAEJHHPAH@Z
0x1010bc60:?CacheActorGroup@Precacher@@SAPAVActorGroup@@V?$basic_string@DU?$char_traits@D@std@@V?$allocator@D@2@@std@@PAVWorld@@H@Z
0x1010b430:?CacheActorGroupTMP@Precacher@@SAPAVActorGroup@@V?$basic_string@DU?$char_traits@D@std@@V?$allocator@D@2@@std@@H@Z
0x1010c090:?CacheMaterial@Precacher@@SAPAVMaterial@@V?$basic_string@DU?$char_traits@D@std@@V?$allocator@D@2@@std@@H@Z
0x1010bad0:?CacheMaterialTMP@Precacher@@SAPAVMaterial@@V?$basic_string@DU?$char_traits@D@std@@V?$allocator@D@2@@std@@H@Z
0x1010c960:?CacheModel@Precacher@@SAPAVModel@@V?$basic_string@DU?$char_traits@D@std@@V?$allocator@D@2@@std@@PAV?$vector@UAnimInfo@Precacher@@V?$allocator@UAnimInfo@Precacher@@@std@@@4@PAV?$vector@UBoneNodeInfo@Precacher@@V?$allocator@UBoneNodeInfo@Precacher@@@std@@@4@H@Z
0x1010c190:?CacheModelTMP@Precacher@@SAPAVModel@@V?$basic_string@DU?$char_traits@D@std@@V?$allocator@D@2@@std@@PAV?$vector@UAnimInfo@Precacher@@V?$allocator@UAnimInfo@Precacher@@@std@@@4@PAV?$vector@UBoneNodeInfo@Precacher@@V?$allocator@UBoneNodeInfo@Precacher@@@std@@@4@H@Z
0x10174aa0:?CachePacket@AsyncLoader@@QAEPAUAsyncPacket@@ABV?$basic_string@DU?$char_traits@D@std@@V?$allocator@D@2@@std@@@Z
0x1010be70:?CacheSound2D@Precacher@@SAPAVSound@@V?$basic_string@DU?$char_traits@D@std@@V?$allocator@D@2@@std@@H@Z
0x1010b790:?CacheSound2DTMP@Precacher@@SAPAVSound@@V?$basic_string@DU?$char_traits@D@std@@V?$allocator@D@2@@std@@H@Z
0x1010bd80:?CacheSound@Precacher@@SAPAVSound@@V?$basic_string@DU?$char_traits@D@std@@V?$allocator@D@2@@std@@H@Z
0x1010b610:?CacheSoundTMP@Precacher@@SAPAVSound@@V?$basic_string@DU?$char_traits@D@std@@V?$allocator@D@2@@std@@H@Z
0x1010bf60:?CacheTexture@Precacher@@SAPAVTexture@@V?$basic_string@DU?$char_traits@D@std@@V?$allocator@D@2@@std@@H@Z
0x1010b910:?CacheTextureTMP@Precacher@@SAPAVTexture@@V?$basic_string@DU?$char_traits@D@std@@V?$allocator@D@2@@std@@H@Z
0x100a93f0:?CalcDragedRect@CHotZonePic@@IAEXUtagPOINT@@0@Z
0x10152470:?CalcScrollBar@CControlBoxList@@QAEXXZ
0x100b66a0:?CalcTextRect@CREDialog@@QAEJPB_WPAVCREElement@@PAUtagRECT@@H@Z
0x10116ff0:?CalculatePRTSum@World@@IAEXQAY0CE@MKAAV?$vector@PAVLight@@V?$allocator@PAVLight@@@std@@@std@@AAVMatrix@@@Z
0x1006a540:?CanHaveFocus@CInputBox@@UAE_NXZ
0x100a2720:?CanHaveFocus@CItemHolder@@UAE_NXZ
0x1006a540:?CanHaveFocus@CREButton@@UAE_NXZ
0x1006a540:?CanHaveFocus@CREComboBox@@UAE_NXZ
0x1006af90:?CanHaveFocus@CREControl@@UAE_NXZ
0x1006a540:?CanHaveFocus@CREEditBox@@UAE_NXZ
0x1006a540:?CanHaveFocus@CREListBox@@UAE_NXZ
0x1006a540:?CanHaveFocus@CREPropertiesList@@UAE_NXZ
0x100a2720:?CanHaveFocus@CRESlider@@UAE_NXZ
0x1006a540:?CanHaveFocus@CRETabPages@@UAE_NXZ
0x1006af90:?CanHaveFocus@CRETextBox@@UAE_NXZ
0x1006b9c0:?CanScroll@CMultiLineStatic@@QAEX_N@Z
0x10149a60:?CancelByPlayer@CDlgMgr@@QAE_NXZ
0x1006af90:?CancelByPlayer@CTYDialog@@UAE_NXZ
0x101715f0:?CancelSubmit@AsyncLoader@@QAE_NH@Z
0x100a3ec0:?Cap@CREHScrollBar@@IAEXXZ
0x100a3d40:?Cap@CREScrollBar@@IAEXXZ
0x100b29f0:?CenterDialog@CTYDialog@@QAEX_N0@Z
0x100a67a0:?ChangeBGTexture@CRETextBox@@UAEXV?$basic_string@DU?$char_traits@D@std@@V?$allocator@D@2@@std@@@Z
0x1014a120:?ChangeDlgID@CDlgMgr@@QAE_NPAVCTYDialog@@H@Z
0x100a2ef0:?ChangeForceMouseVisible@CDlgMgr@@QAEXXZ
0x1009ff60:?ChangeSystemsWorld@FXManager@@QAEXPAVWorld@@0@Z
0x100bf690:?ChangeTexture@CPictureLabel@@QAE_NV?$basic_string@_WU?$char_traits@_W@std@@V?$allocator@_W@2@@std@@PAUtagRECT@@@Z
0x10084530:?CheckActors@Editor@@IAEPAVActor@@PAVWorld@@AAVVector@@1AAM_N@Z
0x1007fa00:?CheckBox@Editor@@QAE_NVBBox@@AAVVector@@1@Z
0x1007f560:?CheckDragBox@Editor@@IAE_NAAVBBox@@@Z
0x100c4500:?CheckHotZone@CHotZonePic@@QAEHABUtagPOINT@@@Z
0x100b4f40:?CheckHoverPicType@CHotZonePic@@QAE_NH@Z
0x100a7da0:?CheckInputLocale@CMLIMEEditBox@@KAXXZ
0x100a4870:?CheckInputLocale@CREIMEEditBox@@KAXXZ
0x100b3e00:?CheckKey@CInputBox@@AAEXXZ
0x100822b0:?CheckLights@Editor@@IAEPAVActor@@PAVWorld@@AAVVector@@1@Z
0x10141b20:?CheckOverlapAABB@NxPhysics@@QAE_NABVBBox@@W4NxShapesType@@I@Z
0x10080780:?CheckScripts@Editor@@IAEPAVActor@@PAVWorld@@AAVVector@@1@Z
0x100a7ea0:?CheckToggleState@CMLIMEEditBox@@KAXXZ
0x100a4950:?CheckToggleState@CREIMEEditBox@@KAXXZ
0x10149660:?CheckUIXMLVer@CDlgMgr@@QAE_NABV?$basic_string@DU?$char_traits@D@std@@V?$allocator@D@2@@std@@PAM@Z
0x100ee360:?ChooseLOD@StaticModel@@QAEPAVMesh@@PAVCamera@@PAUModelFrame@@@Z
0x10018490:?ClassName@Actor@@UAEPBDXZ
0x10054170:?ClassName@ActorInstancer@@UAEPBDXZ
0x1004d0b0:?ClassName@IndoorVolume@@UAEPBDXZ
0x10018f00:?ClassName@Light@@EAEPBDXZ
0x10018540:?ClassName@Prefab@@UAEPBDXZ
0x1007e980:?ClassName@PrefabInstance@@UAEPBDXZ
0x10018380:?ClassName@Script@@QAEPBDXZ
0x10054ec0:?ClassName@SkyController@@UAEPBDXZ
0x10054f90:?ClassName@SurfaceNode@@UAEPBDXZ
0x10055070:?ClassName@Terrain@@UAEPBDXZ
0x10055000:?ClassName@TerrainNode@@UAEPBDXZ
0x10064530:?ClassName@TextureCamera@@UAEPBDXZ
0x10099340:?ClassName@WaterSurface@@UAEPBDXZ
0x10064670:?Cleanup@Canvas@@UAEXXZ
0x100a5600:?Clear@CUniBuffer@CREEditBox@@QAEXXZ
0x1006db60:?ClearActorList@TextureCamera@@QAEXXZ
0x10056380:?ClearAll@BatchRenderer@@QAEXXZ
0x10149c20:?ClearAllDialog@CDlgMgr@@QAEXXZ
0x100ae230:?ClearAllSelect@CMultiLineEB@@IAEXXZ
0x10153830:?ClearCellSelection@CItemHolder@@QAEXXZ
0x100b4970:?ClearComboBox@CREDialog@@QAEXH@Z
0x101559f0:?ClearControl@CControlBox@@QAEXXZ
0x101556c0:?ClearControlBox@CControlBoxList@@QAEXXZ
0x1001fde0:?ClearExclusionListHandles@Light@@QAEXXZ
0x100a3100:?ClearFocus@CREDialog@@SAXXZ
0x1002dd00:?ClearFrustums@Camera@@QAEXXZ
0x100eef10:?ClearLights@StaticModel@@QAEXXZ
0x100101e0:?ClearLog@Editor@@QAEXXZ
0x100a9c70:?ClearRadioButtonGroup@CREDialog@@QAEXI@Z
0x10157030:?ClearText@CFormatedStatic@@QAEXXZ
0x100ac370:?ClearText@CREEditBox@@QAEXXZ
0x100f1e90:?ClearTrackAnimationSet@Model@@QAEXXZ
0x1008beb0:?ClearUndos@Editor@@QAEXXZ
0x10010390:?ClearUnusedFiles@ISave@@QAEXXZ
0x1004f2e0:?Clone@Actor@@UAEXPAV1@_N@Z
0x1010ab60:?Clone@ActorGroup@@QAE_NAAV1@PAVWorld@@@Z
0x10054180:?Clone@ActorInstancer@@UAEXPAVActor@@_N@Z
0x100f1fe0:?Clone@AnimationSet@@QBE_NAAV1@@Z
0x100de040:?Clone@Light@@UAEXPAVActor@@_N@Z
0x1009f940:?Clone@ModelFrame@@QAEPAU1@PAVStaticModel@@_N1@Z
0x10116a10:?Clone@PrefabInstance@@UAEXPAVActor@@_N@Z
0x100f2f70:?CloneAnimation@Model@@QAEHPAV1@H@Z
0x100f4f00:?CloneAnimations@Model@@QAEXPAV1@@Z
0x10085820:?CloneSelected@Editor@@QAEXXZ
0x100e6ae0:?CloneTo@Material@@QAEXPAV1@@Z
0x100d5b90:?CloseMessageBoxBlocking@GUISystem@@UAEXXZ
0x1013fff0:?CollisionCheckRay@World@@QAE_NPAVActor@@ABVVector@@1W4CheckType@@AAUCollisionInfo@@_NPAV?$vector@PAVActor@@V?$allocator@PAVActor@@@std@@@std@@@Z
0x10168040:?Combin@Terrain@@SA_NAAV?$vector@PAVTerrain@@V?$allocator@PAVTerrain@@@std@@@std@@@Z
0x10085e90:?CombineSelected@Editor@@QAEXXZ
0x10086a00:?CombineSelectedOnly@Editor@@QAEXXZ
0x10084cf0:?CombineSelectedTerrain@Editor@@QAEXXZ
0x10120900:?CommitChanges@Shader@@QAEXXZ
0x1001b780:?Compare@PRTSettings@@QAE_NPAU1@@Z
0x10083250:?Compile@Editor@@QAE_NAAV?$vector@PAVActor@@V?$allocator@PAVActor@@@std@@@std@@_NPAVCompilerCallback@@@Z
0x1015d190:?Compile@TerrainNode@@QAE_N_N0@Z
0x10125860:?CompileAllEffects@Shader@@SAXV?$basic_string@DU?$char_traits@D@std@@V?$allocator@D@2@@std@@@Z
0x10124400:?CompileEffect@Shader@@SA_NV?$basic_string@DU?$char_traits@D@std@@V?$allocator@D@2@@std@@00_N11AAKAAV23@1@Z
0x1007ed00:?CompileScene@Editor@@QAE_N_NPAVCompilerCallback@@@Z
0x10125020:?CompileShader@Shader@@SA_NV?$basic_string@DU?$char_traits@D@std@@V?$allocator@D@2@@std@@_NAAKAAV23@@Z
0x10016c40:?CompressPRTMaps@RenderDevice@@UAE_NXZ
0x10149580:?ConfirmMessage@CDlgMgr@@QAEXABV?$basic_string@_WU?$char_traits@_W@std@@V?$allocator@_W@2@@std@@HH@Z
0x101495d0:?ConfirmMessage@CDlgMgr@@QAEXABV?$basic_string@_WU?$char_traits@_W@std@@V?$allocator@_W@2@@std@@PAVCMsgDlgHandler@@H@Z
0x100b36b0:?Contains@CREDialog@@QAE_NPAVCREControl@@@Z
0x100b0950:?ContainsItem@CREComboBox@@QAE_NPB_W@Z
0x100a6170:?ContainsPoint@CPictureLabel@@UAEHUtagPOINT@@@Z
0x100a3680:?ContainsPoint@CREButton@@UAEHUtagPOINT@@@Z
0x100a39d0:?ContainsPoint@CRECheckBox@@UAEHUtagPOINT@@@Z
0x10069d00:?ContainsPoint@CREControl@@UAEHUtagPOINT@@@Z
0x100a3b10:?ContainsPoint@CRESlider@@UAEHUtagPOINT@@@Z
0x1006a760:?ContainsPoint@CRETabPages@@UAEHUtagPOINT@@@Z
0x100db0e0:?ControlDown@Input@@QAE_NHH@Z
0x100db2a0:?ControlJustPressed@Input@@QAE_NHH@Z
0x100db190:?ControlJustReleased@Input@@QAE_NHH@Z
0x100e97f0:?Convert@MeshOps@@UAE_NPAVMesh@@W4Op@1@AAVMatrix@@@Z
0x1003d0f0:?ConvertFrame@XFileLoad@@AAEXPAVStaticModel@@PAU_D3DXFRAME@@PAUModelFrame@@@Z
0x1004f650:?CopyInclusionExclusionList@Actor@@QAEXPAV1@@Z
0x1009ddc0:?CopyPrt@ModelFrame@@QAEXV?$basic_string@DU?$char_traits@D@std@@V?$allocator@D@2@@std@@@Z
0x10080200:?CopyPrtFiles@Editor@@QAEXV?$basic_string@DU?$char_traits@D@std@@V?$allocator@D@2@@std@@0AAV?$vector@PAV?$basic_string@DU?$char_traits@D@std@@V?$allocator@D@2@@std@@V?$allocator@PAV?$basic_string@DU?$char_traits@D@std@@V?$allocator@D@2@@std@@@2@@3@@Z
0x1001cc20:?CopyToClipboard@CPasswordEB@@MAEXXZ
0x100a43d0:?CopyToClipboard@CREEditBox@@MAEXXZ
0x10076ef0:?Count@MaterialLibrary@@QAEHXZ
0x1009dc50:?CountFrames@ModelFrame@@QAEHXZ
0x10118c20:?Create@Script@@QAE_NAAV?$basic_string@DU?$char_traits@D@std@@V?$allocator@D@2@@std@@0@Z
0x10136400:?CreateBlank@Texture@@QAEXW4TextureType@@HHHH@Z
0x10142040:?CreateBoxActor@NxPhysics@@QAEPAVNxActor@@PAVActor@@JABVBBox@@ABVMatrix@@_NMW4PhysicsGroup@@PAVPhysicsNormal_Callback@@3@Z
0x10169020:?CreateChildFromHMap@Terrain@@QAE_NV?$basic_string@DU?$char_traits@D@std@@V?$allocator@D@2@@std@@@Z
0x100635c0:?CreateClipPlanes@Camera@@AAEXAAUFrustum@1@AAVMatrix@@@Z
0x10063820:?CreateClipPlanes@Camera@@QAEXXZ
0x1014a540:?CreateControl@CDlgMgr@@IAEPAVCREControl@@PAVCTYDialog@@PAVDOMElement@xercesc_2_5@@@Z
0x10141710:?CreateControllerActor@NxPhysics@@QAEPAVNxActor@@PAVActor@@JABVBBox@@ABVMatrix@@MPAVPhysicsController_Callback@@M@Z
0x1014d2f0:?CreateDlgFromXML@CDlgMgr@@QAEPAVCTYDialog@@ABV?$basic_string@DU?$char_traits@D@std@@V?$allocator@D@2@@std@@H@Z
0x10049140:?CreateDocument@XMLSystem@@QAEPAVDOMDocument@xercesc_2_5@@V?$basic_string@DU?$char_traits@D@std@@V?$allocator@D@2@@std@@@Z
0x10108550:?CreateFXFromConfigFile@PostProcess@@QAEXAAVConfigFile@@@Z
0x100a9db0:?CreateFontW@CREDialogResourceManager@@IAEJIM@Z
0x1000e3c0:?CreateFromIndex@Factory@@SAPAVActor@@HPAVWorld@@@Z
0x101207d0:?CreateHandle@Shader@@QAEXAAUShaderVar@@@Z
0x1001bda0:?CreateInstance@AsyncLoader@@SAXXZ
0x1016f9a0:?CreateInstance@EventAttemper@@SA_NXZ
0x10145cd0:?CreateMaterial@NxPhysics@@QAEHMM@Z
0x10145d50:?CreateMaterial@NxPhysics@@QAEHPAVNxMaterialDesc@@@Z
0x10141cd0:?CreateMeshActor@NxPhysics@@QAEPAVNxActor@@PAVActor@@JAAV?$basic_string@DU?$char_traits@D@std@@V?$allocator@D@2@@std@@ABVMatrix@@W4PhysicsGroup@@@Z
0x101438a0:?CreateMeshActor@NxPhysics@@QAEPAVNxActor@@PAVActor@@JAAVModel@@ABVMatrix@@W4PhysicsGroup@@@Z
0x100f5330:?CreateNewInstance@Model@@UAEXPAVStaticModel@@_N1@Z
0x100efd90:?CreateNewInstance@StaticModel@@UAEXPAV1@_N1@Z
0x1004a170:?CreateNode@XMLSystem@@QAEPAVDOMElement@xercesc_2_5@@PAVDOMNode@3@PAD@Z
0x10141bd0:?CreateNxActor@NxPhysics@@QAEPAVNxActor@@PAVActor@@JAAVNxActorDesc@@W4PhysicsGroup@@@Z
0x1014a750:?CreateOldControl@CDlgMgr@@IAEPAVCREControl@@PAVCTYDialog@@PAVDOMElement@xercesc_2_5@@@Z
0x10174960:?CreatePacket@AsyncLoader@@QAEPAUAsyncPacket@@ABV?$basic_string@DU?$char_traits@D@std@@V?$allocator@D@2@@std@@@Z
0x1006ad40:?CreateSound@AudioDevice@@UAEPAVSound@@PAVSoundBank@@@Z
0x1004a0f0:?CreateTextNode@XMLSystem@@QAEPAVDOMElement@xercesc_2_5@@PAVDOMNode@3@PAD@Z
0x100a9e80:?CreateTexture@CREDialogResourceManager@@IAEJI@Z
0x10140f00:?CreateTriangleMesh@NxPhysics@@QAEPAVNxTriangleMesh@@AAV?$basic_string@DU?$char_traits@D@std@@V?$allocator@D@2@@std@@@Z
0x101430d0:?CreateTriangleMesh@NxPhysics@@QAEPAVNxTriangleMesh@@PAVModel@@@Z
0x10142c80:?CreateTriggerActor@NxPhysics@@QAEPAVNxActor@@ABVBBox@@JKPAVPhysicsTrigger_Callback@@W4PhysicsGroup@@@Z
0x10142560:?CreateTriggerActor@NxPhysics@@QAEPAVNxActor@@ABVSphere@@JKPAVPhysicsTrigger_Callback@@W4PhysicsGroup@@@Z
0x10142950:?CreateTriggerActor@NxPhysics@@QAEPAVNxActor@@MMABVVector@@JKPAVPhysicsTrigger_Callback@@W4PhysicsGroup@@@Z
0x10141c40:?CreateVehicleActor@NxPhysics@@QAEPAVNxActor@@PAVActor@@JAAVNxActorDesc@@W4PhysicsGroup@@PAVPhysicsVehicle_Callback@@@Z
0x10065c80:?Cube@Canvas@@UAEXAAVBBox@@@Z
0x10066bf0:?CubeWireframe@Canvas@@UAEXAAVBBox@@AAVMatrix@@K@Z
0x1007f780:?CursorInWindow@Editor@@IAE_NPAVCGUIWindow@@@Z
0x10067540:?CylinderWireframe@Canvas@@UAEXAAVVector@@MMK@Z
0x10095710:?Debug@@YAXPBDZZ
0x101445d0:?DebugRender@NxPhysics@@QAEXXZ
0x1012dd50:?DelBiasCloudIntensity@SkyController@@QAE_NV?$basic_string@DU?$char_traits@D@std@@V?$allocator@D@2@@std@@@Z
0x1012d8d0:?DelBiasFogColor@SkyController@@QAE_NV?$basic_string@DU?$char_traits@D@std@@V?$allocator@D@2@@std@@@Z
0x1012da50:?DelBiasFogDistance@SkyController@@QAE_NV?$basic_string@DU?$char_traits@D@std@@V?$allocator@D@2@@std@@@Z
0x1012d990:?DelBiasFogIntensity@SkyController@@QAE_NV?$basic_string@DU?$char_traits@D@std@@V?$allocator@D@2@@std@@@Z
0x1012db10:?DelBiasFogStart@SkyController@@QAE_NV?$basic_string@DU?$char_traits@D@std@@V?$allocator@D@2@@std@@@Z
0x1012dbd0:?DelBiasLightColor@SkyController@@QAE_NV?$basic_string@DU?$char_traits@D@std@@V?$allocator@D@2@@std@@@Z
0x1012dc90:?DelBiasLightIntensity@SkyController@@QAE_NV?$basic_string@DU?$char_traits@D@std@@V?$allocator@D@2@@std@@@Z
0x1004ec70:?DelRef@Actor@@AAEXPAV1@@Z
0x10152b30:?DeleteAllItems@CItemHolder@@QAEXXZ
0x100cdb10:?DeleteAllItems@CREListCtrl@@QAEXXZ
0x100b4db0:?DeleteAllLine@CMultiLineStatic@@QAEXXZ
0x10064630:?DeleteDeviceObjects@Canvas@@UAEXXZ
0x10028930:?DeleteFromName@EditorVar@@SAXAAV?$vector@VEditorVar@@V?$allocator@VEditorVar@@@std@@@std@@V?$basic_string@DU?$char_traits@D@std@@V?$allocator@D@2@@3@@Z
0x100a8f40:?DeleteLine@CMultiLineStatic@@QAEXH@Z
0x100cda90:?DeleteLine@CREListCtrl@@QAEXH@Z
0x1008e080:?DeleteSelected@Editor@@QAEXXZ
0x100b4c40:?DeleteSelectedText@CMultiLineEB@@IAEXXZ
0x100ac3f0:?DeleteSelectionText@CREEditBox@@IAEXXZ
0x1004e7f0:?DeserializationComplete@Actor@@UAEXXZ
0x100544c0:?DeserializationComplete@ActorInstancer@@UAEXXZ
0x100da1c0:?DeserializationComplete@IndoorVolume@@UAEXXZ
0x10116db0:?DeserializationComplete@PrefabInstance@@UAEXXZ
0x10160210:?DeserializationComplete@SurfaceNode@@UAEXXZ
0x10164ad0:?DeserializationComplete@Terrain@@UAEXXZ
0x10167c60:?DeserializationComplete@TerrainNode@@UAEXXZ
0x10109be0:?Destroy@ActorGroup@@QAEXXZ
0x100f1fc0:?Destroy@AnimationSet@@QAEXXZ
0x100f4e90:?Destroy@Model@@UAEXXZ
0x10122bb0:?Destroy@ShaderVar@@AAEXXZ
0x100ef290:?Destroy@StaticModel@@UAEXXZ
0x10136360:?Destroy@Texture@@QAEXXZ
0x100490f0:?Destroy@XMLSystem@@QAEXXZ
0x10141080:?DestroyBoxActor@NxPhysics@@QAE_NAAPAVNxActor@@@Z
0x101410f0:?DestroyControllerActor@NxPhysics@@QAE_NAAPAVNxActor@@@Z
0x100183d0:?DestroyInstance@AsyncLoader@@SAXXZ
0x1016ed10:?DestroyInstance@EventAttemper@@SAXXZ
0x10140fe0:?DestroyMeshActor@NxPhysics@@QAE_NAAPAVNxActor@@@Z
0x10141630:?DestroyNxActor@NxPhysics@@QAEXAAPAVNxActor@@@Z
0x100eefb0:?DestroyNxTriangleMeshes@StaticModel@@QAEXXZ
0x10141150:?DestroyTriggerActor@NxPhysics@@QAE_NAAPAVNxActor@@@Z
0x10141680:?DestroyVehicleActor@NxPhysics@@QAEXAAPAVNxActor@@@Z
0x100f2ba0:?DetachAnimSet@Model@@QAE_NAAVAnimationSet@@@Z
0x10140e90:?DettachNxActor@NxPhysics@@QAE_NPAVNxActor@@@Z
0x1004d6a0:?DisableForceOpacity@Prefab@@QAEXXZ
0x100958e0:?DisableFramerateCap@Engine@@QAEXXZ
0x1014a1b0:?DlgOnRender@CDlgMgr@@QAE_NHM@Z
0x100946e0:?DoCircle@Gizmo@@IAE_NPAUID3DXLine@@K@Z
0x100542a0:?DoInstancing@ActorInstancer@@QAEXXZ
0x10092310:?DoLines@Gizmo@@IAEXPAUID3DXLine@@@Z
0x100d5780:?DoMessageBox@GUISystem@@UAEXV?$basic_string@DU?$char_traits@D@std@@V?$allocator@D@2@@std@@0HH@Z
0x100d59b0:?DoMessageBoxBlocking@GUISystem@@UAEXV?$basic_string@DU?$char_traits@D@std@@V?$allocator@D@2@@std@@0MP6AXPAX@Z@Z
0x1010cb00:?DoPrecache@Precacher@@SAXPAVWorld@@MM@Z
0x1000d050:?DoesExist@FXManager@@ABE_NPAVFXSystem@@@Z
0x1004eb70:?DontSetNULLOnDeath@Actor@@QAEXPAV1@PAPAV1@@Z
0x1009e3b0:?Draw@ModelFrame@@QAEXXZ
0x100efe90:?Draw@StaticModel@@IAEXPAVCamera@@PAUModelFrame@@PAVWorld@@_NHPAVActor@@3@Z
0x100f0470:?Draw@StaticModel@@UAEXPAVCamera@@PAVWorld@@_NHPAVActor@@2@Z
0x10093cc0:?DrawAxisIcon@Gizmo@@QAEXAAVCamera@@@Z
0x100a0220:?DrawBatchedQuads@FXManager@@QAEXXZ
0x100566a0:?DrawBatches@BatchRenderer@@QAEXAAV?$vector@PAUBatchItem@@V?$allocator@PAUBatchItem@@@std@@@std@@@Z
0x1012d660:?DrawClouds@SkyController@@AAEXAAVVector@@@Z
0x1015e240:?DrawEditLine@Terrain@@QAEXAAVVector@@@Z
0x100805c0:?DrawFrame@Editor@@IAEXPAVModel@@PAUModelFrame@@@Z
0x10108cb0:?DrawFullScreenQuad@PostProcess@@IAEXUCoordRect@@@Z
0x10106790:?DrawFullScreenQuad@PostProcess@@QAEXMMMM@Z
0x100ee670:?DrawHierarchy@StaticModel@@IAEXPAUModelFrame@@0@Z
0x100eeb40:?DrawHierarchy@StaticModel@@QAEXXZ
0x100f04f0:?DrawImmediateTranslucent@StaticModel@@IAEXMPAVCamera@@PAUModelFrame@@PAVWorld@@_NHPAVActor@@@Z
0x100f15b0:?DrawImmediateTranslucent@StaticModel@@UAEXMPAVCamera@@PAVWorld@@_NHPAVActor@@@Z
0x100820f0:?DrawLight@Editor@@IAEXPAVLight@@@Z
0x10064ab0:?DrawLines@Canvas@@UAEXHPAXH_N@Z
0x10080700:?DrawModel@Editor@@IAEXPAVModel@@PAVCamera@@@Z
0x1012c590:?DrawMoon@SkyController@@AAEXAAVVector@@@Z
0x100935b0:?DrawObjects@Gizmo@@QAEXPAUID3DXMesh@@@Z
0x100b5b90:?DrawPolyLine@CREDialog@@QAEJPAUtagPOINT@@IK@Z
0x100b5850:?DrawRect@CREDialog@@QAEJPAUtagRECT@@KM@Z
0x10069b60:?DrawRenderTarget@Actor@@UAEXPAVCamera@@@Z
0x10081f40:?DrawScript@Editor@@IAEXPAVActor@@@Z
0x100a0810:?DrawShadedQuads@FXManager@@QAEXXZ
0x100ee9d0:?DrawSimple@StaticModel@@IAEXPAVCamera@@PAUModelFrame@@@Z
0x100f1010:?DrawSimple@StaticModel@@IAEXPAVCamera@@PAVShader@@PAVTexture@@K@Z
0x100eeb20:?DrawSimple@StaticModel@@QAEXPAVCamera@@@Z
0x100f1180:?DrawSimpleNonFFP@StaticModel@@IAEXPAVCamera@@PAUModelFrame@@PAVShader@@VMatrix@@@Z
0x100f1550:?DrawSimpleNonFFP@StaticModel@@QAEXPAVCamera@@PAVShader@@VMatrix@@@Z
0x100f0c50:?DrawSimpleWithShader@StaticModel@@QAEXPAVCamera@@PAUModelFrame@@PAVShader@@VMatrix@@@Z
0x1012e2b0:?DrawSky@SkyController@@UAEXPAVCamera@@@Z
0x1012c310:?DrawSkySimple@SkyController@@UAEXPAVCamera@@@Z
0x100b5e40:?DrawSprite@CREDialog@@QAEJPAVCREElement@@PAUtagRECT@@M@Z
0x100b62e0:?DrawSprite@CREDialog@@QAEJPAVTexture@@PAUtagRECT@@1KM@Z
0x1012cad0:?DrawSun@SkyController@@AAEXAAVVector@@@Z
0x100c5390:?DrawTextA@CREDialog@@QAEJPBDPAVCREElement@@PAUtagRECT@@_NH@Z
0x100b6f70:?DrawTextFromTexture@CREDialog@@QAEJPB_WPAVCREElement@@PAUtagRECT@@_NH@Z
0x100b6bc0:?DrawTextTexture@CREDialog@@QAEJPAVTexture@@PAUtagRECT@@1K@Z
0x100b6890:?DrawTextW@CREDialog@@QAEJPB_WPAVCREElement@@PAUtagRECT@@_NH@Z
0x1006ad60:?Dummy_GetFileVersionInfoA@CMLIMEEditBox@@KGHPADKKPAX@Z
0x1006ad60:?Dummy_GetFileVersionInfoA@CREIMEEditBox@@KGHPADKKPAX@Z
0x1006a760:?Dummy_GetFileVersionInfoSizeA@CMLIMEEditBox@@KGKPADPAK@Z
0x1006a760:?Dummy_GetFileVersionInfoSizeA@CREIMEEditBox@@KGKPADPAK@Z
0x1006ad50:?Dummy_GetReadingString@CMLIMEEditBox@@KGIPAUHIMC__@@IPA_WPAH2PAI@Z
0x1006ad50:?Dummy_GetReadingString@CREIMEEditBox@@KGIPAUHIMC__@@IPA_WPAH2PAI@Z
0x1006a760:?Dummy_ImmAssociateContext@CMLIMEEditBox@@KGPAUHIMC__@@PAUHWND__@@PAU2@@Z
0x1006a760:?Dummy_ImmAssociateContext@CREIMEEditBox@@KGPAUHIMC__@@PAUHWND__@@PAU2@@Z
0x1006b890:?Dummy_ImmDisableTextFrameService@CMLIMEEditBox@@KGHK@Z
0x1006b890:?Dummy_ImmDisableTextFrameService@CREIMEEditBox@@KGHK@Z
0x1006ad60:?Dummy_ImmGetCandidateListW@CMLIMEEditBox@@KGKPAUHIMC__@@KPAUtagCANDIDATELIST@@K@Z
0x1006ad60:?Dummy_ImmGetCandidateListW@CREIMEEditBox@@KGKPAUHIMC__@@KPAUtagCANDIDATELIST@@K@Z
0x1006b8a0:?Dummy_ImmGetCompositionStringW@CMLIMEEditBox@@KGJPAUHIMC__@@KPAXK@Z
0x1006b8a0:?Dummy_ImmGetCompositionStringW@CREIMEEditBox@@KGJPAUHIMC__@@KPAXK@Z
0x1006ad40:?Dummy_ImmGetContext@CMLIMEEditBox@@KGPAUHIMC__@@PAUHWND__@@@Z
0x1006ad40:?Dummy_ImmGetContext@CREIMEEditBox@@KGPAUHIMC__@@PAUHWND__@@@Z
0x10140aa0:?Dummy_ImmGetConversionStatus@CMLIMEEditBox@@KGHPAUHIMC__@@PAK1@Z
0x10140aa0:?Dummy_ImmGetConversionStatus@CREIMEEditBox@@KGHPAUHIMC__@@PAK1@Z
0x1006ad40:?Dummy_ImmGetDefaultIMEWnd@CMLIMEEditBox@@KGPAUHWND__@@PAU2@@Z
0x1006ad40:?Dummy_ImmGetDefaultIMEWnd@CREIMEEditBox@@KGPAUHWND__@@PAU2@@Z
0x10140aa0:?Dummy_ImmGetIMEFileNameA@CMLIMEEditBox@@KGIPAUHKL__@@PADI@Z
0x10140aa0:?Dummy_ImmGetIMEFileNameA@CREIMEEditBox@@KGIPAUHKL__@@PADI@Z
0x1006ad40:?Dummy_ImmGetOpenStatus@CMLIMEEditBox@@KGHPAUHIMC__@@@Z
0x1006ad40:?Dummy_ImmGetOpenStatus@CREIMEEditBox@@KGHPAUHIMC__@@@Z
0x1006ad40:?Dummy_ImmGetVirtualKey@CMLIMEEditBox@@KGIPAUHWND__@@@Z
0x1006ad40:?Dummy_ImmGetVirtualKey@CREIMEEditBox@@KGIPAUHWND__@@@Z
0x1006ad40:?Dummy_ImmIsIME@CMLIMEEditBox@@KGHPAUHKL__@@@Z
0x1006ad40:?Dummy_ImmIsIME@CREIMEEditBox@@KGHPAUHKL__@@@Z
0x1006ad40:?Dummy_ImmLockIMC@CMLIMEEditBox@@KGPAU__MIDL___MIDL_itf_dimm_0000_0012@@PAUHIMC__@@@Z
0x1006ad40:?Dummy_ImmLockIMC@CREIMEEditBox@@KGPAU__MIDL___MIDL_itf_dimm_0000_0012@@PAUHIMC__@@@Z
0x1006ad40:?Dummy_ImmLockIMCC@CMLIMEEditBox@@KGPAXPAUHIMCC__@@@Z
0x1006ad40:?Dummy_ImmLockIMCC@CREIMEEditBox@@KGPAXPAUHIMCC__@@@Z
0x1006ad60:?Dummy_ImmNotifyIME@CMLIMEEditBox@@KGHPAUHIMC__@@KKK@Z
0x1006ad60:?Dummy_ImmNotifyIME@CREIMEEditBox@@KGHPAUHIMC__@@KKK@Z
0x1006a760:?Dummy_ImmReleaseContext@CMLIMEEditBox@@KGHPAUHWND__@@PAUHIMC__@@@Z
0x1006a760:?Dummy_ImmReleaseContext@CREIMEEditBox@@KGHPAUHWND__@@PAUHIMC__@@@Z
0x10140aa0:?Dummy_ImmSetConversionStatus@CMLIMEEditBox@@KGHPAUHIMC__@@KK@Z
0x10140aa0:?Dummy_ImmSetConversionStatus@CREIMEEditBox@@KGHPAUHIMC__@@KK@Z
0x1006a760:?Dummy_ImmSetOpenStatus@CMLIMEEditBox@@KGHPAUHIMC__@@H@Z
0x1006a760:?Dummy_ImmSetOpenStatus@CREIMEEditBox@@KGHPAUHIMC__@@H@Z
0x1006a760:?Dummy_ImmSimulateHotKey@CMLIMEEditBox@@KGHPAUHWND__@@K@Z
0x1006a760:?Dummy_ImmSimulateHotKey@CREIMEEditBox@@KGHPAUHWND__@@K@Z
0x1006ad40:?Dummy_ImmUnlockIMC@CMLIMEEditBox@@KGHPAUHIMC__@@@Z
0x1006ad40:?Dummy_ImmUnlockIMC@CREIMEEditBox@@KGHPAUHIMC__@@@Z
0x1006ad40:?Dummy_ImmUnlockIMCC@CMLIMEEditBox@@KGHPAUHIMCC__@@@Z
0x1006ad40:?Dummy_ImmUnlockIMCC@CREIMEEditBox@@KGHPAUHIMCC__@@@Z
0x1006ab60:?Dummy_ScriptApplyDigitSubstitution@CUniBuffer@CREEditBox@@CGJPBUtag_SCRIPT_DIGITSUBSTITUTE@@PAUtag_SCRIPT_CONTROL@@PAUtag_SCRIPT_STATE@@@Z
0x1006ab70:?Dummy_ScriptStringAnalyse@CUniBuffer@CREEditBox@@CGJPAUHDC__@@PBXHHHKHPAUtag_SCRIPT_CONTROL@@PAUtag_SCRIPT_STATE@@PBHPAUtag_SCRIPT_TABDEF@@PBEPAPAX@Z
0x1006ab80:?Dummy_ScriptStringCPtoX@CUniBuffer@CREEditBox@@CGJPAXHHPAH@Z
0x1006ab90:?Dummy_ScriptStringFree@CUniBuffer@CREEditBox@@CGJPAPAX@Z
0x1006ab80:?Dummy_ScriptStringXtoCP@CUniBuffer@CREEditBox@@CGJPAXHPAH1@Z
0x1006ad40:?Dummy_ScriptString_pLogAttr@CUniBuffer@CREEditBox@@CGPBUtag_SCRIPT_LOGATTR@@PAX@Z
0x1006ad40:?Dummy_ScriptString_pcOutChars@CUniBuffer@CREEditBox@@CGPBHPAX@Z
0x1006a760:?Dummy_ShowReadingWindow@CMLIMEEditBox@@KGHPAUHIMC__@@H@Z
0x1006a760:?Dummy_ShowReadingWindow@CREIMEEditBox@@KGHPAUHIMC__@@H@Z
0x1006ad60:?Dummy_VerQueryValueA@CMLIMEEditBox@@KGHQAXPADPAPAXPAI@Z
0x1006ad60:?Dummy_VerQueryValueA@CREIMEEditBox@@KGHQAXPADPAPAXPAI@Z
0x102857cc:?DynamicLightsRendered@@3HA
0x10167bb0:?EditSurface@Terrain@@QAEXAAVVector@@@Z
0x10164f30:?EditTerrain@Terrain@@QAEXAAVVector@@@Z
0x10168ec0:?EditTexture@Terrain@@QAEXAAVVector@@@Z
0x10106520:?EffectsActive@PostProcess@@QAE_NXZ
0x1006ba60:?EnableAllHotZone@CHotZonePic@@QAEX_N@Z
0x10069730:?EnableCaption@CREDialog@@QAEX_N@Z
0x1006ba70:?EnableDrag@CHotZonePic@@QAEX_N@Z
0x100958c0:?EnableFramerateCap@Engine@@QAEXM@Z
0x100a7f80:?EnableImeSystem@CMLIMEEditBox@@SAX_N@Z
0x100a4a30:?EnableImeSystem@CREIMEEditBox@@SAX_N@Z
0x10069920:?EnableKeyboardInput@CREDialog@@QAEX_N@Z
0x1006b5f0:?EnableMannulControl@C3DModel@@QAEX_N@Z
0x10069890:?EnableMinimize@CREDialog@@QAEX_N@Z
0x10069930:?EnableMouseInput@CREDialog@@QAEX_N@Z
0x10069910:?EnableNonUserEvents@CREDialog@@QAEX_N@Z
0x1011fdc0:?End@Shader@@QAEXXZ
0x10064ea0:?EndLine3D@Canvas@@UAEXXZ
0x10149640:?EndMessage@CDlgMgr@@QAEXXZ
0x1011fd80:?EndPass@Shader@@QAEXXZ
0x1013fa20:?EnumerateActorsAtPoint@World@@QAE?AV?$vector@PAVActor@@V?$allocator@PAVActor@@@std@@@std@@_N0ABVVector@@@Z
0x1013f700:?EnumerateActorsInBox@World@@QAE?AV?$vector@PAVActor@@V?$allocator@PAVActor@@@std@@@std@@_N0ABVVector@@1@Z
0x1013f7b0:?EnumerateActorsInSphere@World@@QAE?AV?$vector@PAVActor@@V?$allocator@PAVActor@@@std@@@std@@_N0ABVVector@@M@Z
0x1009eed0:?EnumerateFrames@ModelFrame@@QAEXAAV?$vector@PAUModelFrame@@V?$allocator@PAUModelFrame@@@std@@@std@@@Z
0x1013f8f0:?EnumerateLightsInSphere@World@@QAE?AV?$vector@PAVLight@@V?$allocator@PAVLight@@@std@@@std@@ABVVector@@M@Z
0x1009ee50:?EnumerateMeshes@ModelFrame@@QAEXAAV?$vector@PAUModelFrame@@V?$allocator@PAUModelFrame@@@std@@@std@@@Z
0x10137930:?EnumerateMeshes@World@@QAEXAAV?$vector@PAUModelFrame@@V?$allocator@PAUModelFrame@@@std@@@std@@@Z
0x100956d0:?Error@@YAJPBDZZ
0x1004e980:?ExcludeListContains@Actor@@QAE_NPBD@Z
0x100e2290:?Exit@EngineLog@@QAEXXZ
0x100e4db0:?ExtractParameters@Material@@QAEXXZ
0x1012c1c0:?FadeFog@SkyController@@QAEXMMMMMMM@Z
0x1012c2a0:?FadeSky@SkyController@@QAEXHMM@Z
0x1001cc20:?Falling@Actor@@UAEXXZ
0x1014c910:?FillControls@CDlgMgr@@QAE_NPAVCTYDialog@@ABV?$basic_string@DU?$char_traits@D@std@@V?$allocator@D@2@@std@@H@Z
0x1015f2a0:?FillIndex@TerrainNode@@QAE_NAAPAVMesh@@00@Z
0x10016dc0:?FillText@Canvas@@UAE_NAAVTexture@@V?$basic_string@DU?$char_traits@D@std@@V?$allocator@D@2@@std@@1I@Z
0x10016e10:?FillTextW@Canvas@@UAE_NAAVTexture@@ABV?$basic_string@_WU?$char_traits@_W@std@@V?$allocator@_W@2@@std@@1I_NAAUtagSIZE@@@Z
0x100a81f0:?FinalizeString@CMLIMEEditBox@@IAEX_N@Z
0x100accc0:?FinalizeString@CREIMEEditBox@@IAEX_N@Z
0x1009da50:?Find@ModelFrame@@QAEPAU1@PBDPAU1@@Z
0x101377c0:?FindActor@World@@QAEPAVActor@@AAV?$basic_string@DU?$char_traits@D@std@@V?$allocator@D@2@@std@@@Z
0x10137860:?FindActor@World@@QAEPAVActor@@U_GUID@@@Z
0x10137bf0:?FindActorGUIDString@World@@QAEPAVActor@@AAV?$basic_string@DU?$char_traits@D@std@@V?$allocator@D@2@@std@@@Z
0x10080920:?FindActorSelectedList@Editor@@QAEPAVActorSelectedList@@AAV?$basic_string@DU?$char_traits@D@std@@V?$allocator@D@2@@std@@@Z
0x100f2c20:?FindAnimFromCache@AnimationSet@@SAPAV1@ABV?$basic_string@DU?$char_traits@D@std@@V?$allocator@D@2@@std@@@Z
0x1004a5e0:?FindFirstNode@XMLSystem@@QAEPAVDOMElement@xercesc_2_5@@PAV23@V?$basic_string@DU?$char_traits@D@std@@V?$allocator@D@2@@std@@@Z
0x1001bb40:?FindFormat@VertexManager@@UAEPAUVFormat@1@H@Z
0x1001bbf0:?FindFormat@VertexManager@@UAEPAUVFormat@1@V?$basic_string@DU?$char_traits@D@std@@V?$allocator@D@2@@std@@@Z
0x100aa770:?FindItem@CREComboBox@@QAEHPB_W@Z
0x1001c2e0:?FindLibrary@MaterialManager@@QAEPAVMaterialLibrary@@V?$basic_string@DU?$char_traits@D@std@@V?$allocator@D@2@@std@@@Z
0x10137c40:?FindLight@World@@QAEPAVLight@@V?$basic_string@DU?$char_traits@D@std@@V?$allocator@D@2@@std@@@Z
0x1009e0f0:?FindMat@ModelFrame@@QAEPAVMaterial@@AAV?$basic_string@DU?$char_traits@D@std@@V?$allocator@D@2@@std@@@Z
0x1015e180:?FindMatBlock@Terrain@@QAEPAVMatBlock@@PAVMaterial@@@Z
0x100e2f30:?FindMaterial@MaterialManager@@QAEPAVMaterial@@V?$basic_string@DU?$char_traits@D@std@@V?$allocator@D@2@@std@@@Z
0x100ee260:?FindMaterial@StaticModel@@QAEPAVMaterial@@V?$basic_string@DU?$char_traits@D@std@@V?$allocator@D@2@@std@@@Z
0x1009ef10:?FindMaterials@ModelFrame@@QAEXAAV?$vector@PAVMaterial@@V?$allocator@PAVMaterial@@@std@@@std@@@Z
0x10097220:?FindMedia@@YA_NAAV?$basic_string@DU?$char_traits@D@std@@V?$allocator@D@2@@std@@PBDPAV12@_N@Z
0x10137a00:?FindMeshFrame@World@@QAEPAUModelFrame@@V?$basic_string@DU?$char_traits@D@std@@V?$allocator@D@2@@std@@PAU2@@Z
0x100ee890:?FindModelFromCache@StaticModel@@SAPAV1@PBD@Z
0x1015eca0:?FindNode@Terrain@@QAEPAVTerrainNode@@HH@Z
0x100ae4a0:?FindPoint@CMultiLineEB@@IAE_NABUtagPOINT@@AAH1@Z
0x101065a0:?FindPostProcessEffect@PostProcess@@QAEPAVPostProcessEffect@@V?$basic_string@DU?$char_traits@D@std@@V?$allocator@D@2@@std@@0@Z
0x100eecd0:?FindStrongestLight@StaticModel@@QAEPAVLight@@XZ
0x10137d50:?FindStrongestLight@World@@QAEPAVLight@@AAVVector@@_N1@Z
0x1015ed60:?FindTerrain@Terrain@@SAPAV1@HH@Z
0x100e2a60:?FindVar@Material@@QAEPAUShaderVar@@V?$basic_string@DU?$char_traits@D@std@@V?$allocator@D@2@@std@@@Z
0x100d5de0:?FindWindow@GUISystem@@UAEPAVCGUIWindow@@PAVCREDialog@@@Z
0x1007ea80:?FixName@Editor@@QAEXPAVActor@@@Z
0x1009d930:?FixNames@ModelFrame@@QAEXPAVWorld@@_N@Z
0x10011cf0:?FlushBatches@FXManager@@QAEXXZ
0x10016aa0:?FlushKeyboardBuffer@Input@@QAEXXZ
0x10144030:?FlushScene@NxPhysics@@QAEXXZ
0x100a9cd0:?FocusDefaultControl@CREDialog@@QAEXXZ
0x100e3340:?ForceAlphaBlend@Material@@QAEX_N@Z
0x1015e8d0:?ForceComplete@Terrain@@QAEX_N@Z
0x101bb30c:?ForceLDR@Shader@@2HB
0x112417b1:?ForceMeshSave@ISave@@2_NA
0x1004d670:?ForceOpacity@Prefab@@QAEXMM@Z
0x100120c0:?FoundActorClass@Factory@@SA_NV?$basic_string@DU?$char_traits@D@std@@V?$allocator@D@2@@std@@@Z
0x1000e0c0:?FoundInRegistry@Factory@@SA_NV?$basic_string@DU?$char_traits@D@std@@V?$allocator@D@2@@std@@@Z
0x1009f580:?FreeContents@ModelFrame@@QAEX_N@Z
0x1001f6c0:?FreeSHProbe@World@@QAEXH@Z
0x1008c1a0:?FreezeActors@Editor@@QAEXV?$vector@PAVActor@@V?$allocator@PAVActor@@@std@@@std@@@Z
0x10016f70:?FromString@EditorVar@@SA?AW4Type@1@V?$basic_string@DU?$char_traits@D@std@@V?$allocator@D@2@@std@@@Z
0x10285820:?GDeltaTime@@3MA
0x101bab40:?GIZMO_X@Gizmo@@2HB
0x101bab44:?GIZMO_Y@Gizmo@@2HB
0x101bab48:?GIZMO_Z@Gizmo@@2HB
0x10285824:?GSeconds@@3MA
0x1013fac0:?GatherRenderingPolys@World@@QAEXPAVActor@@AAV?$vector@UVertex@@V?$allocator@UVertex@@@std@@@std@@ABVVector@@ABVBBox@@M@Z
0x100e3c30:?GatherTechniqueNames@Material@@AAEXXZ
0x100df380:?GenerateExclusionListHandles@Light@@QAEXXZ
0x1015d580:?GenerateIndex@TerrainNode@@SA_NPAG0@Z
0x100e1e90:?GenerateLODs@LODManager@@QAE_NPAVStaticModel@@PAUModelFrame@@AAV?$vector@PAVMesh@@V?$allocator@PAVMesh@@@std@@@std@@@Z
0x101658e0:?GenerateMesh@TerrainNode@@QAE_N_N0@Z
0x1004d6c0:?GenerateNewGUID@Actor@@QAEXXZ
0x10160740:?GenerateNodeMsg@Terrain@@QAEXXZ
0x10116f70:?Get@Profiler@@SAPAV1@XZ
0x10019220:?GetAbsTimeDiff@Engine@@QAENXZ
0x1007e540:?GetAbsoluteTime@CRETimer@@QAENXZ
0x1001c500:?GetAckMessage@Event@@QAE?AV?$Smart_Ptr@VMessage@1Outpop@@@Utility@Outpop@@XZ
0x100190c0:?GetAction@Event@@QBE?AW4EVENT_ACTION_TYPE@@XZ
0x10083e50:?GetActorsFromGroup@Editor@@QAE?AV?$vector@V?$basic_string@DU?$char_traits@D@std@@V?$allocator@D@2@@std@@V?$allocator@V?$basic_string@DU?$char_traits@D@std@@V?$allocator@D@2@@std@@@2@@std@@PAD@Z
0x10069ed0:?GetAdditionalData@CREControl@@QAEKXZ
0x10011fe0:?GetAllActorClasses@Factory@@SA?AV?$vector@V?$basic_string@DU?$char_traits@D@std@@V?$allocator@D@2@@std@@V?$allocator@V?$basic_string@DU?$char_traits@D@std@@V?$allocator@D@2@@std@@@2@@std@@XZ
0x10084100:?GetAllClasses@Editor@@QAE?AV?$vector@V?$basic_string@DU?$char_traits@D@std@@V?$allocator@D@2@@std@@V?$allocator@V?$basic_string@DU?$char_traits@D@std@@V?$allocator@D@2@@std@@@2@@std@@XZ
0x1014a4c0:?GetAllDialog@CDlgMgr@@QAEXAAV?$vector@PAVCTYDialog@@V?$allocator@PAVCTYDialog@@@std@@@std@@@Z
0x1010a600:?GetAnimHandle@Precacher@@SAHV?$basic_string@DU?$char_traits@D@std@@V?$allocator@D@2@@std@@@Z
0x100f1dc0:?GetAnimPosition@Model@@QAEMH@Z
0x10016d50:?GetAnisotropyLevel@RenderDevice@@UAEHXZ
0x1006bc90:?GetAutoResize@GUISystem@@QAE_NXZ
0x10137ef0:?GetAverageLighting@World@@QAE?AUFloatColor@@AAVVector@@_N1@Z
0x1006a0b0:?GetBGDisplay@CREButton@@QAE_N_N@Z
0x100699e0:?GetBGElement@CREDialog@@QAEPAVCREElement@@XZ
0x10069870:?GetBGEnabled@CREDialog@@QAE_NXZ
0x100a6760:?GetBGTextureFilename@CRETextBox@@QAE?AV?$basic_string@DU?$char_traits@D@std@@V?$allocator@D@2@@std@@XZ
0x1006b1e0:?GetBackGroundColor@CProgressBar@@QAEKXZ
0x10150260:?GetBackGroundPic@CProgressBar@@QAE?AV?$basic_string@_WU?$char_traits@_W@std@@V?$allocator@_W@2@@std@@XZ
0x10069980:?GetBackGroundPicFileName@CREDialog@@QAE?AV?$basic_string@_WU?$char_traits@_W@std@@V?$allocator@_W@2@@std@@XZ
0x101502b0:?GetBackGroundPicRect@CProgressBar@@QAE?AUtagRECT@@XZ
0x100699b0:?GetBackGroundPicRect@CREDialog@@QAE?AUtagRECT@@XZ
0x1012d310:?GetBiasCloudIntensity@SkyController@@QAEMXZ
0x1012d070:?GetBiasFogColor@SkyController@@QAEXAAVVector@@@Z
0x1012d160:?GetBiasFogDistance@SkyController@@QAEMXZ
0x1012d100:?GetBiasFogIntensity@SkyController@@QAEMXZ
0x1012d1c0:?GetBiasFogStart@SkyController@@QAEMXZ
0x1012d220:?GetBiasLightColor@SkyController@@QAEXAAVVector@@@Z
0x1012d2b0:?GetBiasLightIntensity@SkyController@@QAEMXZ
0x10127e90:?GetBiasedLightPos@ShadowEngine@@IAE?AVVector@@PAVActor@@@Z
0x10017ad0:?GetBoneName@Mesh@@UAE?AV?$basic_string@DU?$char_traits@D@std@@V?$allocator@D@2@@std@@H@Z
0x1010a350:?GetBoneNodes@Precacher@@SAXPAVModel@@PAUBoneNodeInfo@1@AAV?$vector@V?$basic_string@DU?$char_traits@D@std@@V?$allocator@D@2@@std@@V?$allocator@V?$basic_string@DU?$char_traits@D@std@@V?$allocator@D@2@@std@@@2@@std@@@Z
0x10049910:?GetBool@XMLSystem@@QAE_NPAVDOMNode@xercesc_2_5@@_N@Z
0x1006a5b0:?GetBorder@CREListBox@@QBEHXZ
0x100a25f0:?GetBorderWidth@CREEditBox@@QAEHXZ
0x100db790:?GetBoundKeys@Input@@QAEXV?$basic_string@DU?$char_traits@D@std@@V?$allocator@D@2@@std@@AAV23@1@Z
0x10069e00:?GetBoundingBox@CREControl@@QAEABUtagRECT@@XZ
0x10016d30:?GetBrightness@RenderDevice@@UAEMXZ
0x1006abb0:?GetBuffer@CUniBuffer@CREEditBox@@QAEPB_WXZ
0x10019080:?GetBufferSize@CUniBuffer@CREEditBox@@QAEHXZ
0x10069680:?GetButton@CREDialog@@QAEPAVCREButton@@H@Z
0x1006a320:?GetButtonGroup@CRERadioButton@@QAEIXZ
0x1006b170:?GetButtonWidth@CRENumericEdit@@QAEHXZ
0x100369b0:?GetCamera@SubareaManager@@QAEPAVCamera@@XZ
0x1007ef40:?GetCameraSpeed@Editor@@QAEMXZ
0x10069850:?GetCaptionEnabled@CREDialog@@QAE_NXZ
0x100a2fc0:?GetCaptionFont@CREDialog@@QAEIXZ
0x10069840:?GetCaptionHeight@CREDialog@@QAEHXZ
0x10069780:?GetCaptionText@CREDialog@@QAE?AV?$basic_string@_WU?$char_traits@_W@std@@V?$allocator@_W@2@@std@@XZ
0x100a2fd0:?GetCaptionTextColor@CREDialog@@QAEKXZ
0x1006b1a0:?GetCaptionWidth@CRENumericEdit@@QAEHXZ
0x1006aab0:?GetCaretColor@CREEditBox@@QAEKXZ
0x10069690:?GetCheckBox@CREDialog@@QAEPAVCRECheckBox@@H@Z
0x1006a230:?GetChecked@CRECheckBox@@QAE_NXZ
0x10011f00:?GetClassMapActorClasses@Factory@@SA?AV?$vector@V?$basic_string@DU?$char_traits@D@std@@V?$allocator@D@2@@std@@V?$allocator@V?$basic_string@DU?$char_traits@D@std@@V?$allocator@D@2@@std@@@2@@std@@XZ
0x1000b4e0:?GetClassNameA@Factory@@SA?AV?$basic_string@DU?$char_traits@D@std@@V?$allocator@D@2@@std@@K@Z
0x10016cc0:?GetClearColor@RenderDevice@@UAEKXZ
0x10016ce0:?GetClearScreen@RenderDevice@@UAE_NXZ
0x10137540:?GetClipPlane@World@@QAEMXZ
0x1004dd50:?GetCollisionModel@Actor@@UAEPAVModel@@XZ
0x10049460:?GetColor@XMLSystem@@QAEKPAVDOMNode@xercesc_2_5@@_N@Z
0x100ae6f0:?GetColumnNum@CREListCtrl@@QAEHXZ
0x100696b0:?GetComboBox@CREDialog@@QAEPAVCREComboBox@@H@Z
0x100c3320:?GetComputedHeight@CMultiLineStatic@@QAEHXZ
0x10016d40:?GetContrast@RenderDevice@@UAEMXZ
0x101515f0:?GetControl@CControlBox@@QAEPAVCREControl@@H@Z
0x100a9b20:?GetControl@CREDialog@@QAEPAVCREControl@@H@Z
0x100a9b60:?GetControl@CREDialog@@QAEPAVCREControl@@HI@Z
0x100a9bb0:?GetControlAtIndex@CREDialog@@QAEPAVCREControl@@H@Z
0x100a99f0:?GetControlAtPoint@CREDialog@@QAEPAVCREControl@@UtagPOINT@@@Z
0x10152380:?GetControlBox@CControlBoxList@@QAEPAVCControlBox@@H@Z
0x101523e0:?GetControlBoxByData@CControlBoxList@@QAEPAVCControlBox@@K@Z
0x100ce7f0:?GetControlBoxCount@CControlBoxList@@QAEHXZ
0x100ac0a0:?GetControlByID@CREPropertiesList@@QAEPAVCREControl@@H@Z
0x101516c0:?GetControlByIndex@CControlBox@@QAEPAVCREControl@@H@Z
0x100ce7c0:?GetControlCount@CControlBox@@QAEJXZ
0x100b0210:?GetControlEnabled@CREDialog@@QAE_NH@Z
0x10075ee0:?GetControlFactory@GUISystem@@QAEPAVControlFactory@@XZ
0x100db530:?GetControlHandle@Input@@QAEHV?$basic_string@DU?$char_traits@D@std@@V?$allocator@D@2@@std@@@Z
0x100db4d0:?GetControlName@Input@@QAE?AV?$basic_string@DU?$char_traits@D@std@@V?$allocator@D@2@@std@@H@Z
0x10140ab0:?GetControllerContractActor@NxPhysics@@QAEPAVNxActor@@PAV2@@Z
0x1006c810:?GetControlsCount@CREDialog@@QAEHXZ
0x1006b610:?GetCurActor@C3DModel@@QAEPAVActor@@XZ
0x1006bc80:?GetCurCursorType@GUISystem@@QAE?AW4CURSOR_TYPE@@XZ
0x10069b00:?GetCurHWND@GUISystem@@QAEPAUHWND__@@XZ
0x100182e0:?GetCurItem@CItemHolder@@QAEPAUItemInfo@1@XZ
0x1006bc60:?GetCurMousePos@GUISystem@@QAEXAAUtagPOINT@@@Z
0x100a2ac0:?GetCurProg@CProgressBTN@@QAEMXZ
0x100a28f0:?GetCurProg@CProgressBar@@UAEMXZ
0x10069a70:?GetCurTransparency@CREDialog@@QAEMXZ
0x100a2f20:?GetCurVisibleModuleDlg@CDlgMgr@@QAEJXZ
0x100f29b0:?GetCurrentAnimation@Model@@QAEHXZ
0x101055c0:?GetCurrentDownScaled2xBuffer@PostProcess@@IAEPAUIDirect3DTexture9@@XZ
0x101055b0:?GetCurrentDownScaled4xBuffer@PostProcess@@IAEPAUIDirect3DTexture9@@XZ
0x101055a0:?GetCurrentDownScaled8xBuffer@PostProcess@@IAEPAUIDirect3DTexture9@@XZ
0x10009eb0:?GetCurrentState@Light@@QAEAAVLightState@@XZ
0x10016920:?GetCurrentTechnique@Shader@@QAEPBDXZ
0x10069e90:?GetCustomElement@CREControl@@QAEPAVCREElement@@H@Z
0x10019080:?GetCustomFlagForController@NxPhysics@@QAEIXZ
0x100c0990:?GetCustomPic@CPicCheckBox@@QAE_NHAAV?$basic_string@DU?$char_traits@D@std@@V?$allocator@D@2@@std@@AAUtagRECT@@@Z
0x10069ea0:?GetCustomized@CREControl@@QAE_NXZ
0x10069b00:?GetD3DDevice@CREDialogResourceManager@@QAEPAUIDirect3DDevice9@@XZ
0x100190c0:?GetDC@CUniBuffer@CREEditBox@@QAEPAUHDC__@@XZ
0x10017a30:?GetDXSet@AnimationSet@@QBEPAUID3DXAnimationSet@@XZ
0x100a25f0:?GetData2@CControlBox@@QAEKXZ
0x100a25d0:?GetData@CControlBox@@QAEKXZ
0x10054ee0:?GetDayTimeMinutes@SkyController@@QAEMXZ
0x10009880:?GetDefaultCameraDir@World@@QAEXAAVVector@@@Z
0x10009850:?GetDefaultCameraPos@World@@QAEXAAVVector@@@Z
0x100a9ad0:?GetDefaultElement@CREDialog@@QAEPAVCREElement@@II@Z
0x1006abb0:?GetDefaultMaterial@MaterialManager@@QAEPAVMaterial@@XZ
0x10149bc0:?GetDialog@CDlgMgr@@QAEPAVCTYDialog@@H@Z
0x10019050:?GetDisableLODs@ModelFrame@@QAE_NXZ
0x1006bc30:?GetDisplayGUI@GUISystem@@UAE_NXZ
0x10069a80:?GetDlgCorruptType@CREDialog@@QAE?AW4CorruptType@1@XZ
0x1006e120:?GetDlgFrontOfMe@CREDialog@@QAEXAAV?$vector@HV?$allocator@H@std@@@std@@@Z
0x10069970:?GetDlgID@CREDialog@@QAEHXZ
0x1006b6c0:?GetDlgName@CTYDialog@@QAE?AV?$basic_string@_WU?$char_traits@_W@std@@V?$allocator@_W@2@@std@@XZ
0x1006b6a0:?GetDlgType@CTYDialog@@QAEHXZ
0x100017a0:?GetDocument@XMLSystem@@QAEPAVDOMDocument@xercesc_2_5@@XZ
0x1006c810:?GetDownButton@CRENumericEdit@@QAEPAVCREButton@@XZ
0x1006ba80:?GetDrawRect@CHotZonePic@@QAEXAAUtagRECT@@@Z
0x100a2970:?GetDrawText@CProgressBar@@QAE_NXZ
0x1006a860:?GetDropHeight@CREComboBox@@QAEHXZ
0x10017a20:?GetDuration@AnimationSet@@QBEMXZ
0x100f2150:?GetDuration@Model@@QAEMH@Z
0x10016d00:?GetDynamicLights@RenderDevice@@UAE_NXZ
0x100696e0:?GetEditBox@CREDialog@@QAEPAVCREEditBox@@H@Z
0x1006b1d0:?GetEditBox@CRENumericEdit@@QAEPAVCREEditBox@@XZ
0x100011e0:?GetEditorMode@Editor@@QAE_NXZ
0x10018800:?GetEffect@Shader@@QAEPAUID3DXEffect@@XZ
0x1007e600:?GetElapsedTime@CRETimer@@QAENXZ
0x1006c840:?GetElement@CREControl@@QAEPAVCREElement@@I@Z
0x10036990:?GetEnable@SubareaManager@@QAE_NXZ
0x1006bbd0:?GetEnabled@CGUIWindow@@QAE_NXZ
0x10069d30:?GetEnabled@CREControl@@UAE_NXZ
0x1007e770:?GetError@DynLib@@IAE?AV?$basic_string@DU?$char_traits@D@std@@V?$allocator@D@2@@std@@XZ
0x10109d30:?GetErrorText@Precacher@@SA?AV?$basic_string@_WU?$char_traits@_W@std@@V?$allocator@_W@2@@std@@J@Z
0x1016f3e0:?GetEvent@EventAttemper@@QAEPAVEvent@@H@Z
0x10016d70:?GetFFP@RenderDevice@@UAE_NXZ
0x10159490:?GetFX@MaterialIntersect@@QAE?AV?$basic_string@DU?$char_traits@D@std@@V?$allocator@D@2@@std@@V23@0@Z
0x101598a0:?GetFX@MaterialIntersect@@QAE?AV?$basic_string@DU?$char_traits@D@std@@V?$allocator@D@2@@std@@V23@PAVMaterial@@@Z
0x1009ffe0:?GetFXSystemFromHash@FXManager@@QAEPAVFXSystem@@KPAV2@@Z
0x100182f0:?GetFileName@World@@QAEPBDXZ
0x10009e80:?GetFilename@Shader@@QAE?AV?$basic_string@DU?$char_traits@D@std@@V?$allocator@D@2@@std@@XZ
0x10118f10:?GetFloat@Script@@QAEMPAD@Z
0x10049860:?GetFloat@XMLSystem@@QAEMPAVDOMNode@xercesc_2_5@@_N@Z
0x1004a6e0:?GetFloatColor@XMLSystem@@QAE?AUFloatColor@@PAVDOMNode@xercesc_2_5@@_N@Z
0x1004d5b0:?GetFocusable@CGUIWindow@@QAE_NXZ
0x10009990:?GetFogColor@World@@QAE?AUFloatColor@@XZ
0x101374b0:?GetFogDistance@World@@QAEMXZ
0x101374f0:?GetFogExponent@World@@QAEMXZ
0x10137510:?GetFogStartDistance@World@@QAEMXZ
0x100b55d0:?GetFont@CREDialog@@QAEPAUREFontNode@@I@Z
0x10066a20:?GetFont@Canvas@@UAEXW4FONT_TYPE@@AAPAVCFont@RECanvas@@AA_NAAH3@Z
0x100d6ae0:?GetFontInfo@GUISystem@@QAEPAUFontInfo@@W4FONT_TYPE@@@Z
0x1006c820:?GetFontNode@CREDialogResourceManager@@QAEPAUREFontNode@@H@Z
0x100b4790:?GetFormatedLine@CMultiLineStatic@@QAE?AV?$basic_string@_WU?$char_traits@_W@std@@V?$allocator@_W@2@@std@@XZ
0x1001c6d0:?GetFrame@StaticModel@@QAEPAUModelFrame@@PAX@Z
0x100ef0a0:?GetFrameNearestToPoint@StaticModel@@QAEPAUModelFrame@@AAVVector@@@Z
0x100956b0:?GetGSeconds@@YAMXZ
0x1004ded0:?GetGUIDString@Actor@@QAE?AV?$basic_string@DU?$char_traits@D@std@@V?$allocator@D@2@@std@@XZ
0x10140b00:?GetGameVisualization@NxPhysics@@QAE_NXZ
0x10016d20:?GetGamma@RenderDevice@@UAEMXZ
0x100185e0:?GetHandle@ShaderVar@@QAEPBDXZ
0x1000b400:?GetHashKey@Factory@@SAKV?$basic_string@DU?$char_traits@D@std@@V?$allocator@D@2@@std@@@Z
0x10069800:?GetHeight@CREDialog@@QAEHXZ
0x10069d70:?GetHidden@CREControl@@UAE_NXZ
0x100af4a0:?GetHotZoneData@CHotZonePic@@QAE_NHAAK@Z
0x10069e20:?GetHotkey@CREControl@@QAEIXZ
0x100c6d50:?GetHoverPicsByType@CHotZonePic@@QAE_NHAAV?$vector@PAUHoverPicInfo@CHotZonePic@@V?$allocator@PAUHoverPicInfo@CHotZonePic@@@std@@@std@@@Z
0x10069da0:?GetID@CREControl@@QBEHXZ
0x10019080:?GetID@Event@@QBEIXZ
0x100696f0:?GetIMEEditBox@CREDialog@@QAEPAVCREIMEEditBox@@H@Z
0x100a7b40:?GetImeId@CMLIMEEditBox@@KAKI@Z
0x100a4610:?GetImeId@CREIMEEditBox@@KAKI@Z
0x100a2820:?GetIndex@CItemHolder@@QAEHHH@Z
0x1000e2d0:?GetIndex@Factory@@SAHV?$basic_string@DU?$char_traits@D@std@@V?$allocator@D@2@@std@@@Z
0x100ae9d0:?GetIndexByData@CREListCtrl@@QAEHK@Z
0x1009be80:?GetInfo@CVideoManager@@AAEPAUtShowInfo@1@H@Z
0x1006bc50:?GetInputControlFocused@GUISystem@@UAE_NXZ
0x10118f60:?GetInt@Script@@QAEJPAD@Z
0x100497b0:?GetInt@XMLSystem@@QAEHPAVDOMNode@xercesc_2_5@@_N@Z
0x10016a80:?GetInvertPitch@Input@@QAE_NXZ
0x1006b700:?GetIsInitOnStart@CTYDialog@@QAE_NXZ
0x101530b0:?GetItem@CItemHolder@@QAEPAUItemInfo@1@H@Z
0x1006c870:?GetItem@CREComboBox@@QAEPAUREComboBoxItem@@I@Z
0x100b0b50:?GetItem@CREListBox@@QAEPAUREListBoxItem@@H@Z
0x100b14e0:?GetItem@CREPropertiesList@@QAEPAUREPropListItem@@H@Z
0x10153100:?GetItemByData@CItemHolder@@QAEPAUItemInfo@1@K@Z
0x100ae950:?GetItemCount@CREListCtrl@@QAEHXZ
0x10153160:?GetItemData@CItemHolder@@QAEKH@Z
0x100b0970:?GetItemData@CREComboBox@@QAEPAXPB_W@Z
0x100ae980:?GetItemData@CREListCtrl@@QAE_NHAAK@Z
0x100a3a40:?GetItemFont@CREComboBox@@UAEIXZ
0x100a3a80:?GetItemFontColor@CREComboBox@@UAEKH@Z
0x100ae850:?GetItemText@CREListCtrl@@QAE_NHHAAV?$basic_string@_WU?$char_traits@_W@std@@V?$allocator@_W@2@@std@@@Z
0x1006aee0:?GetJoyIndex@CInputBox@@UAEHXZ
0x10016a70:?GetJoystickSensitivity@Input@@QAEMXZ
0x100daee0:?GetJoystickX@Input@@QAEMH@Z
0x100db020:?GetJoystickXRot@Input@@QAEMH@Z
0x100daf30:?GetJoystickY@Input@@QAEMH@Z
0x100db070:?GetJoystickYRot@Input@@QAEMH@Z
0x100daf80:?GetJoystickZ1@Input@@QAEMH@Z
0x100dafd0:?GetJoystickZ2@Input@@QAEMH@Z
0x10018380:?GetKey@AnimationSet@@QBEABV?$basic_string@DU?$char_traits@D@std@@V?$allocator@D@2@@std@@XZ
0x10018f60:?GetKeyFrameTime@Light@@QAEMXZ
0x100dad40:?GetKeyName@Input@@QAE?AV?$basic_string@DU?$char_traits@D@std@@V?$allocator@D@2@@std@@H@Z
0x1006aef0:?GetKeySet@CInputBox@@UAEHXZ
0x10016ad0:?GetKeyboardBuffer@Input@@QAE?AV?$basic_string@DU?$char_traits@D@std@@V?$allocator@D@2@@std@@XZ
0x10016b00:?GetKeyboardCmdBuffer@Input@@QAE?AV?$basic_string@DU?$char_traits@D@std@@V?$allocator@D@2@@std@@XZ
0x1006b8b0:?GetLanguage@CMLIMEEditBox@@KAGXZ
0x1006ad80:?GetLanguage@CREIMEEditBox@@KAGXZ
0x100958b0:?GetLanguageCharset@Engine@@QAEABV?$basic_string@_WU?$char_traits@_W@std@@V?$allocator@_W@2@@std@@XZ
0x1006ba40:?GetLastHotZone@CHotZonePic@@QAEHXZ
0x10054ef0:?GetLightningIntensity@SkyController@@QAEMXZ
0x1005b610:?GetLights@SkyController@@QAE?AV?$vector@PAVLight@@V?$allocator@PAVLight@@@std@@@std@@XZ
0x10069950:?GetLineCount@CMultiLineStatic@@QAEHXZ
0x10069700:?GetListBox@CREDialog@@QAEPAVCREListBox@@H@Z
0x1015c160:?GetLoadState@SubareaManager@@QAE?AW4SUBAREA_LOAD_STATE@@AAVVector@@0@Z
0x1011aa80:?GetLoader@Serializer@@AAEPAVILoad@@V?$basic_string@DU?$char_traits@D@std@@V?$allocator@D@2@@std@@@Z
0x100096d0:?GetLoadingScale@StaticModel@@QAEMXZ
0x100182e0:?GetLoadingTexture@World@@QAEPAVTexture@@XZ
0x100964e0:?GetLocalizedText@Engine@@QAE?AV?$basic_string@_WU?$char_traits@_W@std@@V?$allocator@_W@2@@std@@H@Z
0x1000ac10:?GetLocation@Gizmo@@QAE?AVVector@@XZ
0x10018220:?GetLogicCoordOffset@World@@QAEXAAVVector@@@Z
0x100d5bd0:?GetLogicMousePos@GUISystem@@QAEXAAUtagPOINT@@@Z
0x10019090:?GetMainID@Event@@QBEIXZ
0x10018480:?GetManagedIndex@Actor@@QAEHXZ
0x1006a5c0:?GetMargin@CREListBox@@QBEHXZ
0x100db400:?GetMask@Input@@QAE?AW4InputMaskState@@H@Z
0x1004de90:?GetMass@Actor@@QAEMXZ
0x10016920:?GetMatBase@ModelFrame@@QBEIXZ
0x100e79a0:?GetMaterial@MaterialLibrary@@QAEPAVMaterial@@H@Z
0x100e7ab0:?GetMaterial@MaterialLibrary@@QAEPAVMaterial@@U_GUID@@@Z
0x10138850:?GetMaterialList@World@@QAE?AV?$vector@PAVMaterial@@V?$allocator@PAVMaterial@@@std@@@std@@XZ
0x1015d010:?GetMaterialName@Terrain@@QAE?AV?$basic_string@DU?$char_traits@D@std@@V?$allocator@D@2@@std@@PAVVector@@@Z
0x1009f170:?GetMaterials@ModelFrame@@QAEXAAV?$vector@PAVMaterial@@V?$allocator@PAVMaterial@@@std@@@std@@@Z
0x1004add0:?GetMatrix@XMLSystem@@QAE?AVMatrix@@PAVDOMNode@xercesc_2_5@@_N@Z
0x1006a970:?GetMax@CRESlider@@QAEHXZ
0x100a2750:?GetMaxItem@CItemHolder@@QAEHXZ
0x10069a60:?GetMaxTransparency@CREDialog@@QAEMXZ
0x10171860:?GetMemCache@AsyncLoader@@QAE_NABV?$basic_string@DU?$char_traits@D@std@@V?$allocator@D@2@@std@@AAPAEAAI@Z
0x1009dd90:?GetMesh@ModelFrame@@QAEPAVMesh@@H@Z
0x1006a960:?GetMin@CRESlider@@QAEHXZ
0x10069880:?GetMinimizeEnabled@CREDialog@@QAE_NXZ
0x10054ed0:?GetMinutesPerGameSecond@SkyController@@QAEMXZ
0x100833b0:?GetModelFrameNamesFromGroup@Editor@@QAE?AV?$vector@V?$basic_string@DU?$char_traits@D@std@@V?$allocator@D@2@@std@@V?$allocator@V?$basic_string@DU?$char_traits@D@std@@V?$allocator@D@2@@std@@@2@@std@@PAD@Z
0x10095c40:?GetModuleName@Engine@@QAE?AV?$basic_string@DU?$char_traits@D@std@@V?$allocator@D@2@@std@@XZ
0x10016920:?GetMsgDlg@CDlgMgr@@QAEPAVCUIMessageDlg@@XZ
0x10016950:?GetName@AudioDevice@@UAE?AV?$basic_string@DU?$char_traits@D@std@@V?$allocator@D@2@@std@@XZ
0x1006c7f0:?GetName@DynLib@@QBEABV?$basic_string@DU?$char_traits@D@std@@V?$allocator@D@2@@std@@XZ
0x10049250:?GetName@XMLSystem@@QAE?AV?$basic_string@DU?$char_traits@D@std@@V?$allocator@D@2@@std@@PAVDOMNode@xercesc_2_5@@@Z
0x1005b520:?GetNewBatchItem@BatchRenderer@@QAEPAUBatchItem@@XZ
0x100a9be0:?GetNextControl@CREDialog@@SAPAVCREControl@@PAV2@@Z
0x100a5910:?GetNextItemPos@CUniBuffer@CREEditBox@@QAEXHPAH@Z
0x100ee5c0:?GetNodeHandle@StaticModel@@QAEPAXV?$basic_string@DU?$char_traits@D@std@@V?$allocator@D@2@@std@@PAUModelFrame@@@Z
0x100eec60:?GetNodeMatrix@StaticModel@@QAE?AVMatrix@@PAX@Z
0x100a3f20:?GetNormalFont@CREListBox@@QAEIXZ
0x100a3f40:?GetNormalFontColor@CREListBox@@QAEKXZ
0x1001b760:?GetNumAnimations@Model@@QAEHXZ
0x10017ab0:?GetNumBones@Mesh@@UAEHXZ
0x1006c860:?GetNumItems@CREComboBox@@QAEIXZ
0x1001c210:?GetNumKeyFrames@Light@@QAEHXZ
0x10017a30:?GetNumLODs@ModelFrame@@QAEHXZ
0x100ef210:?GetNumMeshes@StaticModel@@QAEHXZ
0x1001c1c0:?GetNumShaders@ShaderManager@@QAEHXZ
0x101208e0:?GetNumTechniques@Shader@@QAEHXZ
0x1007bc20:?GetNumTextures@CPRTMesh@@UAEHXZ
0x10118fa0:?GetObj@Script@@QAEPAXPAD@Z
0x10016c50:?GetOcclusionTesting@RenderDevice@@UAE_NXZ
0x10018800:?GetOwner@Event@@QBEIXZ
0x100645a0:?GetOwnerWorld@TextureCamera@@QAEPAVWorld@@XZ
0x10017aa0:?GetPRTMesh@Mesh@@UAEPAVCPRTMesh@@XZ
0x10171580:?GetPacket@AsyncLoader@@QAEPAUAsyncPacket@@ABV?$basic_string@DU?$char_traits@D@std@@V?$allocator@D@2@@std@@@Z
0x101724b0:?GetPacketForCost@AsyncLoader@@IAEIAAUASYNC_SUBMIT_THREAD@@@Z
0x101723f0:?GetPacketForProduce@AsyncLoader@@IAEXAAUASYNC_SUBMIT_THREAD@@@Z
0x1006a3c0:?GetPageSize@CREHScrollBar@@QAEHXZ
0x1006a3c0:?GetPageSize@CREScrollBar@@QAEHXZ
0x10018450:?GetParent@Actor@@QAEPAV1@XZ
0x1011b3a0:?GetParser@Serializer@@AAEPAVIParse@@V?$basic_string@DU?$char_traits@D@std@@V?$allocator@D@2@@std@@@Z
0x100a29b0:?GetPasteDist@CProgressBar@@QAEHXZ
0x100a93d0:?GetPicHeight@CHotZonePic@@QAEHXZ
0x1006b410:?GetPicHeight@CPicCheckBox@@QAEHXZ
0x100a93e0:?GetPicWidth@CHotZonePic@@QAEHXZ
0x1006b400:?GetPicWidth@CPicCheckBox@@QAEHXZ
0x100a2820:?GetPosByXY@CItemHolder@@QAEHHH@Z
0x100a9c30:?GetPrevControl@CREDialog@@SAPAVCREControl@@PAV2@@Z
0x1006b8c0:?GetPrimaryLanguage@CMLIMEEditBox@@KAGXZ
0x1006ad90:?GetPrimaryLanguage@CREIMEEditBox@@KAGXZ
0x100a5870:?GetPriorItemPos@CUniBuffer@CREEditBox@@QAEXHPAH@Z
0x100a8400:?GetPrivateReadingString@CMLIMEEditBox@@KAXXZ
0x100a4d40:?GetPrivateReadingString@CREIMEEditBox@@KAXXZ
0x100696d0:?GetProgressBar@CREDialog@@QAEPAVCProgressBar@@H@Z
0x1006b1d0:?GetProgressBarColor@CProgressBar@@QAEKXZ
0x10150430:?GetProgressBarRect@CProgressBar@@QAE?AUtagRECT@@XZ
0x10150470:?GetProgressPic@CProgressBar@@QAE?AV?$basic_string@_WU?$char_traits@_W@std@@V?$allocator@_W@2@@std@@XZ
0x101504c0:?GetProgressPicRect@CProgressBar@@QAE?AUtagRECT@@XZ
0x100dd990:?GetProjection@Light@@QAE?AVMatrix@@XZ
0x100696a0:?GetRadioButton@CREDialog@@QAEPAVCRERadioButton@@H@Z
0x100a28c0:?GetRange@CProgressBar@@QAEXAAM0@Z
0x100a82e0:?GetReadingWindowOrientation@CMLIMEEditBox@@KAXK@Z
0x100a4c20:?GetReadingWindowOrientation@CREIMEEditBox@@KAXK@Z
0x100a9340:?GetRealPoint@CHotZonePic@@QAE?AUtagPOINT@@ABU2@@Z
0x1001c530:?GetRefAct@Event@@QAE?AV?$Smart_Ptr@VRef_Object@Utility@Outpop@@@Utility@Outpop@@XZ
0x100f21a0:?GetRemaining@Model@@QAEMH@Z
0x1006b5d0:?GetRenderAll@C3DModel@@QAE_NXZ
0x100645c0:?GetRenderAll@TextureCamera@@QAE_NXZ
0x1001c4d0:?GetRequestMessage@Event@@QAE?AV?$Smart_Ptr@VMessage@1Outpop@@@Utility@Outpop@@XZ
0x100a29c0:?GetReverse@CProgressBar@@QAE_NXZ
0x10095c70:?GetRootPath@Engine@@QAE?AV?$basic_string@DU?$char_traits@D@std@@V?$allocator@D@2@@std@@XZ
0x1000ac40:?GetRotation@Gizmo@@QAE?AVMatrix@@XZ
0x10069710:?GetSControlFocused@CREDialog@@SAPAVCREControl@@XZ
0x10069a20:?GetSControlLast@CREDialog@@SAPAVCREControl@@XZ
0x10069a30:?GetSControlPressed@CREDialog@@SAPAVCREControl@@XZ
0x10016d10:?GetSRGB@RenderDevice@@UAE_NXZ
0x10064580:?GetSampling@TextureCamera@@QAEMXZ
0x1011abe0:?GetSaver@Serializer@@AAEPAVISave@@V?$basic_string@DU?$char_traits@D@std@@V?$allocator@D@2@@std@@@Z
0x10092020:?GetScale@Gizmo@@IAEMXZ
0x10001040:?GetScaling@Gizmo@@QAE?AVMatrix@@XZ
0x100190c0:?GetScene@NxPhysics@@QAEPAVNxScene@@XZ
0x100182b0:?GetSceneName@World@@QAE?AV?$basic_string@DU?$char_traits@D@std@@V?$allocator@D@2@@std@@XZ
0x1000abd0:?GetScreenMatrix@Gizmo@@QAE?AVMatrix@@XZ
0x1006a890:?GetScrollBarWidth@CREComboBox@@QAEHXZ
0x1006a5a0:?GetScrollBarWidth@CREListBox@@QBEHXZ
0x10069e80:?GetSelected@CREControl@@QBE_NXZ
0x1006aa90:?GetSelectedBackColor@CREEditBox@@QAEKXZ
0x100aa730:?GetSelectedData@CREComboBox@@QAEPAXXZ
0x100a3f30:?GetSelectedFont@CREListBox@@QAEIXZ
0x100a3f50:?GetSelectedFontColor@CREListBox@@QAEKXZ
0x1006a8a0:?GetSelectedIndex@CREComboBox@@QAEHXZ
0x100ab620:?GetSelectedIndex@CREListBox@@QAEHH@Z
0x100a41c0:?GetSelectedIndex@CREPropertiesList@@QAEHH@Z
0x100aa750:?GetSelectedItem@CREComboBox@@QAEPAUREComboBoxItem@@XZ
0x1006a5d0:?GetSelectedItem@CREListBox@@QAEPAUREListBoxItem@@H@Z
0x1006a6b0:?GetSelectedItem@CREPropertiesList@@QAEPAUREPropListItem@@H@Z
0x100a3ab0:?GetSelectedItemFont@CREComboBox@@UAEIXZ
0x100a3af0:?GetSelectedItemFontColor@CREComboBox@@UAEKH@Z
0x1006c810:?GetSelectedTextColor@CREEditBox@@QAEKXZ
0x10016a60:?GetSensitivity@Input@@QAEMXZ
0x10120cb0:?GetShader@ShaderManager@@QAEPAVShader@@AAV?$basic_string@DU?$char_traits@D@std@@V?$allocator@D@2@@std@@@Z
0x1001c1e0:?GetShader@ShaderManager@@QAEPAVShader@@H@Z
0x1006ae50:?GetShadowEnable@CPictureLabel@@QAE_NXZ
0x10016c80:?GetShadows@RenderDevice@@UAE_NXZ
0x100a2a00:?GetShowRenderDefaultBG@CProgressBar@@QAE_NXZ
0x1006b9b0:?GetShowType@CMultiLineStatic@@QAEHXZ
0x100a2990:?GetShowType@CProgressBar@@QAE?AW4PicType@1@XZ
0x1006aee0:?GetSize@CREListBox@@QBEHXZ
0x1006c850:?GetSize@CREPropertiesList@@QBEHXZ
0x10054f00:?GetSkyBGTexture@SkyController@@QAEPAVTexture@@H@Z
0x10054f20:?GetSkyMaterial@SkyController@@QAEPAVMaterial@@XZ
0x100696c0:?GetSlider@CREDialog@@QAEPAVCRESlider@@H@Z
0x10159690:?GetSound@MaterialIntersect@@QAE?AV?$basic_string@DU?$char_traits@D@std@@V?$allocator@D@2@@std@@V23@0@Z
0x101599b0:?GetSound@MaterialIntersect@@QAE?AV?$basic_string@DU?$char_traits@D@std@@V?$allocator@D@2@@std@@V23@PAVMaterial@@@Z
0x10016920:?GetSoundActiveCount@AudioDevice@@QBEKXZ
0x10018800:?GetSoundCount@AudioDevice@@QBEKXZ
0x10150540:?GetSoundFileName@CProgressBar@@QAE?AV?$basic_string@DU?$char_traits@D@std@@V?$allocator@D@2@@std@@XZ
0x1006ab00:?GetSpacing@CREEditBox@@QAEHXZ
0x1006c860:?GetState@TextureCamera@@QAE?AW4TCAM_STATE@@XZ
0x10069670:?GetStatic@CREDialog@@QAEPAVCREStatic@@H@Z
0x10069710:?GetStaticControlFocus@CREDialog@@SAPAVCREControl@@XZ
0x10069a20:?GetStaticControlLast@CREDialog@@SAPAVCREControl@@XZ
0x10069a30:?GetStaticControlPressed@CREDialog@@SAPAVCREControl@@XZ
0x10001be0:?GetStats@Profiler@@QAE?AV?$basic_string@DU?$char_traits@D@std@@V?$allocator@D@2@@std@@XZ
0x100190e0:?GetStream@Event@@QAEAAVBinStream@@XZ
0x10118ed0:?GetString@Script@@QAEPADPAD@Z
0x101208a0:?GetString@Shader@@QAE?AV?$basic_string@DU?$char_traits@D@std@@V?$allocator@D@2@@std@@PBD@Z
0x100492d0:?GetString@XMLSystem@@QAE?AV?$basic_string@DU?$char_traits@D@std@@V?$allocator@D@2@@std@@PAVDOMNode@xercesc_2_5@@_N@Z
0x100493a0:?GetStringW@XMLSystem@@QAE?AV?$basic_string@_WU?$char_traits@_W@std@@V?$allocator@_W@2@@std@@PAVDOMNode@xercesc_2_5@@_N@Z
0x1006a560:?GetStyle@CREListBox@@QBEKXZ
0x1006a560:?GetStyle@CREPropertiesList@@QBEKXZ
0x100190a0:?GetSubID@Event@@QBEIXZ
0x1006b8d0:?GetSubLanguage@CMLIMEEditBox@@KAGXZ
0x1006ada0:?GetSubLanguage@CREIMEEditBox@@KAGXZ
0x10018250:?GetSubareaSizeX@World@@QAEMXZ
0x10018260:?GetSubareaSizeZ@World@@QAEMXZ
0x10018270:?GetSubareaUnitX@World@@QAEMXZ
0x10018280:?GetSubareaUnitZ@World@@QAEMXZ
0x1007e750:?GetSymbol@DynLib@@QBEPAXABV?$basic_string@DU?$char_traits@D@std@@V?$allocator@D@2@@std@@@Z
0x1000aa30:?GetSystem@FXManager@@ABEPAVFXSystem@@H@Z
0x100abac0:?GetTabPage@CRETabPages@@QAEPAUREPage@@H@Z
0x100e31f0:?GetTechnique@Material@@QAEPAUTechnique@@V?$basic_string@DU?$char_traits@D@std@@V?$allocator@D@2@@std@@@Z
0x100e3150:?GetTechnique@Material@@QAEPAUTechnique@@W4LightType@@_N11@Z
0x101203c0:?GetTechnique@Shader@@QAEPBDV?$basic_string@DU?$char_traits@D@std@@V?$allocator@D@2@@std@@@Z
0x10016d60:?GetTexFilter@RenderDevice@@UAEKXZ
0x1006c880:?GetText@CREEditBox@@QAEPB_WXZ
0x10069f90:?GetText@CREStatic@@QAEPB_WXZ
0x1010acb0:?GetText@Precacher@@SA?AV?$basic_string@_WU?$char_traits@_W@std@@V?$allocator@_W@2@@std@@ABV23@@Z
0x100a3760:?GetTextColor@CREButton@@UAEKHH@Z
0x1006b1e0:?GetTextColor@CREEditBox@@QAEKXZ
0x100a3350:?GetTextColor@CREStatic@@UAEKHH@Z
0x100a41f0:?GetTextCopy@CREEditBox@@QAEJPA_WI@Z
0x100a3260:?GetTextCopy@CREStatic@@QAEJPA_WI@Z
0x100a41e0:?GetTextFont@CREEditBox@@QAEIXZ
0x100a3310:?GetTextFont@CREStatic@@UAEIXZ
0x100ab6e0:?GetTextFormat@CREListBox@@UAEKXZ
0x100aa100:?GetTextFormat@CREStatic@@UAEKXZ
0x100a3f80:?GetTextHeight@CREListBox@@QAEHXZ
0x1006a960:?GetTextLength@CREEditBox@@QAEHXZ
0x1006aba0:?GetTextSize@CUniBuffer@CREEditBox@@QAEHXZ
0x100658a0:?GetTextSize@Canvas@@QAA?AUtagSIZE@@W4FONT_TYPE@@PBDZZ
0x10065960:?GetTextSize@Canvas@@QAA?AUtagSIZE@@W4FONT_TYPE@@PB_WZZ
0x100b5820:?GetTexture@CREDialog@@QAEPAURETextureNode@@I@Z
0x10136140:?GetTexture@Texture@@QAEPAUIDirect3DTexture9@@XZ
0x10064540:?GetTexture@TextureCamera@@QAEPAPAUIDirect3DTexture9@@XZ
0x100a6140:?GetTextureFilename@CPictureLabel@@QAE?AV?$basic_string@_WU?$char_traits@_W@std@@V?$allocator@_W@2@@std@@XZ
0x1006c830:?GetTextureNode@CREDialogResourceManager@@QAEPAURETextureNode@@H@Z
0x10064550:?GetTextureSize@TextureCamera@@QAEXAAH0@Z
0x1007e5a0:?GetTime@CRETimer@@QAENXZ
0x1004b830:?GetTime@XMLSystem@@QAE?AU_SYSTEMTIME@@PAVDOMNode@xercesc_2_5@@_N@Z
0x10016a60:?GetTimeStamp@Event@@QBEMXZ
0x100d5e60:?GetTopWindow@GUISystem@@UAEPAVCGUIWindow@@_N@Z
0x10001ae0:?GetTotalMS@Profiler@@QAEMXZ
0x1006a4c0:?GetTrackEnd@CREHScrollBar@@QAEHXZ
0x1006a4c0:?GetTrackEnd@CREScrollBar@@QAEHXZ
0x1006a460:?GetTrackPos@CREHScrollBar@@QAEHXZ
0x1006a460:?GetTrackPos@CREScrollBar@@QAEHXZ
0x1006a4b0:?GetTrackStart@CREHScrollBar@@QAEHXZ
0x1006a4b0:?GetTrackStart@CREScrollBar@@QAEHXZ
0x10069f10:?GetTransparency@CREControl@@QAEMXZ
0x1006bcb0:?GetTransparency@GUISystem@@QAEMXZ
0x10069d90:?GetType@CREControl@@QBEIXZ
0x100e3020:?GetType@MaterialManager@@QAE?AV?$basic_string@DU?$char_traits@D@std@@V?$allocator@D@2@@std@@V23@@Z
0x10085cc0:?GetUnderMouse@Editor@@IAEPAVActor@@PAVWorld@@AAVVector@@1_N@Z
0x1006b1e0:?GetUpButton@CRENumericEdit@@QAEPAVCREButton@@XZ
0x10069e60:?GetUserData2@CREControl@@QBEPAXXZ
0x10069e40:?GetUserData@CREControl@@QBEPAXXZ
0x10069950:?GetUserData@CREDialog@@QAEPAXXZ
0x1006a930:?GetValue@CRESlider@@QAEHXZ
0x10049c70:?GetVector2@XMLSystem@@QAE?AVVector2@@PAVDOMNode@xercesc_2_5@@_N@Z
0x10049e00:?GetVector4@XMLSystem@@QAE?AVVector4@@PAVDOMNode@xercesc_2_5@@_N@Z
0x10049a00:?GetVector@XMLSystem@@QAE?AVVector@@PAVDOMNode@xercesc_2_5@@_N@Z
0x100191e0:?GetVersion@Engine@@QAE?AV?$basic_string@DU?$char_traits@D@std@@V?$allocator@D@2@@std@@XZ
0x1015d490:?GetVertexCodeComplete@TerrainNode@@SAHHH@Z
0x1015d430:?GetVertexCodeReduce@TerrainNode@@SAHHH@Z
0x100a2960:?GetVertical@CProgressBar@@QAE_NXZ
0x100ddae0:?GetView@Light@@QAE?AVMatrix@@XZ
0x10127eb0:?GetView@ShadowEngine@@IAE?AUD3DXMATRIX@@PAVActor@@@Z
0x1001cbe0:?GetViewProjection@Light@@QAE?AVMatrix@@XZ
0x100d5750:?GetVisible@CGUIWindow@@QAE_NXZ
0x10069d50:?GetVisible@CREControl@@UAE_NXZ
0x100a78a0:?GetVisible@CTYDialog@@QAE_NXZ
0x10018290:?GetVisibleDistanceBias@World@@QBEMXZ
0x1006b720:?GetVisibleOnStart@CTYDialog@@QAE_NXZ
0x10016940:?GetVolume@AudioDevice@@QAEMXZ
0x100a2940:?GetVolume@CProgressBar@@QAEMXZ
0x1009c0c0:?GetVolume@CVideoManager@@QAEHH@Z
0x1004a5a0:?GetWalker@XMLSystem@@QAEPAVDOMTreeWalker@xercesc_2_5@@XZ
0x100697f0:?GetWidth@CREDialog@@QAEHXZ
0x1000ab20:?GetWorldBBox@FXSystem@@UAE?AVBBox@@XZ
0x1009f270:?GetWorldBBox@ModelFrame@@QAE?AVBBox@@_N@Z
0x100ee930:?GetWorldBBox@StaticModel@@QAE?AVBBox@@XZ
0x10137560:?GetWorldBBox@World@@QAE_NAAVBBox@@@Z
0x10018c70:?GetWorldWarp@ShaderManager@@QAE?AVMatrix@@XZ
0x10069810:?GetX@CREDialog@@QAEHXZ
0x100d5760:?GetX@GUISystem@@UAEHPAVCGUIWindow@@@Z
0x100369d0:?GetXMLLoader@SubareaManager@@QAEPAVSubareaXMLLoad@@XZ
0x1014ff70:?GetXYByPos@CItemHolder@@QAE_NHAAH0@Z
0x10069820:?GetY@CREDialog@@QAEHXZ
0x100d5770:?GetY@GUISystem@@UAEHPAVCGUIWindow@@@Z
0x10069ef0:?GetZOrder@CREControl@@QAEHXZ
0x10082fb0:?GrabAngles@Editor@@QAEXAAM00@Z
0x100a5410:?Grow@CUniBuffer@CREEditBox@@AAE_NXZ
0x100a0e10:?HDRrender@FXManager@@UAEXPAVWorld@@AAVCamera@@@Z
0x100a65b0:?HandleKeyboard@CInputBox@@UAE_NIIJ@Z
0x100c5fd0:?HandleKeyboard@CMultiLineEB@@UAE_NIIJ@Z
0x100a3440:?HandleKeyboard@CREButton@@UAE_NIIJ@Z
0x100a37f0:?HandleKeyboard@CRECheckBox@@UAE_NIIJ@Z
0x100aa4c0:?HandleKeyboard@CREComboBox@@UAE_NIIJ@Z
0x10069c10:?HandleKeyboard@CREControl@@UAE_NIIJ@Z
0x100ac530:?HandleKeyboard@CREEditBox@@UAE_NIIJ@Z
0x100a3eb0:?HandleKeyboard@CREHScrollBar@@UAE_NIIJ@Z
0x100b0c30:?HandleKeyboard@CREListBox@@UAE_NIIJ@Z
0x100b1510:?HandleKeyboard@CREPropertiesList@@UAE_NIIJ@Z
0x100aa220:?HandleKeyboard@CRERadioButton@@UAE_NIIJ@Z
0x100a3d30:?HandleKeyboard@CREScrollBar@@UAE_NIIJ@Z
0x100aaa10:?HandleKeyboard@CRESlider@@UAE_NIIJ@Z
0x100af560:?HandleKeyboard@CTYChatIME@@UAE_NIIJ@Z
0x10095bf0:?HandleMessages@Engine@@QAEJPAUHWND__@@IIJ@Z
0x10151d00:?HandleMouse@CControlBox@@UAE_NIUtagPOINT@@IJ@Z
0x101522c0:?HandleMouse@CControlBoxList@@UAE_NIUtagPOINT@@IJ@Z
0x100c46c0:?HandleMouse@CHotZonePic@@UAE_NIUtagPOINT@@IJ@Z
0x100a6620:?HandleMouse@CInputBox@@UAE_NIUtagPOINT@@IJ@Z
0x10153480:?HandleMouse@CItemHolder@@UAE_NIUtagPOINT@@IJ@Z
0x100c21a0:?HandleMouse@CMLIMEEditBox@@UAE_NIUtagPOINT@@IJ@Z
0x100ae570:?HandleMouse@CMultiLineEB@@UAE_NIUtagPOINT@@IJ@Z
0x100a7200:?HandleMouse@CPasswordEB@@UAE_NIUtagPOINT@@IJ@Z
0x100a6190:?HandleMouse@CPictureLabel@@UAE_NIUtagPOINT@@IJ@Z
0x100a34c0:?HandleMouse@CREButton@@UAE_NIUtagPOINT@@IJ@Z
0x100a3860:?HandleMouse@CRECheckBox@@UAE_NIUtagPOINT@@IJ@Z
0x100b03f0:?HandleMouse@CREComboBox@@UAE_NIUtagPOINT@@IJ@Z
0x10069c20:?HandleMouse@CREControl@@UAE_NIUtagPOINT@@IJ@Z
0x100ac790:?HandleMouse@CREEditBox@@UAE_NIUtagPOINT@@IJ@Z
0x100ab2b0:?HandleMouse@CREHScrollBar@@UAE_NIUtagPOINT@@IJ@Z
0x100be440:?HandleMouse@CREIMEEditBox@@UAE_NIUtagPOINT@@IJ@Z
0x100b0e50:?HandleMouse@CREListBox@@UAE_NIUtagPOINT@@IJ@Z
0x100aea60:?HandleMouse@CREListCtrl@@UAE_NIUtagPOINT@@IJ@Z
0x100a6880:?HandleMouse@CRENumericButton@@UAE_NIUtagPOINT@@IJ@Z
0x100a6cd0:?HandleMouse@CRENumericEdit@@UAE_NIUtagPOINT@@IJ@Z
0x100b1760:?HandleMouse@CREPropertiesList@@UAE_NIUtagPOINT@@IJ@Z
0x100aa2c0:?HandleMouse@CRERadioButton@@UAE_NIUtagPOINT@@IJ@Z
0x100aae30:?HandleMouse@CREScrollBar@@UAE_NIUtagPOINT@@IJ@Z
0x100aaac0:?HandleMouse@CRESlider@@UAE_NIUtagPOINT@@IJ@Z
0x1008c3e0:?HandleSelections@Editor@@QAEXXZ
0x1007f770:?HandleTerrainEdit@Editor@@QAEXXZ
0x100a2720:?HasAudioSystem@Engine@@QAE_NXZ
0x100a2ed0:?HasDlgCorruptAct@CDlgMgr@@QAE_NXZ
0x100ddab0:?HasExclusionList@Light@@QAE_NXZ
0x10001060:?HasFocus@Gizmo@@QAE_NXZ
0x10118ce0:?HasFunction@Script@@QAE_NPAD@Z
0x100a2720:?HasInputSystem@Engine@@QAE_NXZ
0x100a2f10:?HasModuleDlgVisible@CDlgMgr@@QAE_NXZ
0x1004ea90:?HasOnOcclusionList@Actor@@QAE_NPAV1@@Z
0x100a2720:?HasRenderSystem@Engine@@QAE_NXZ
0x10017a60:?HasSkinning@Model@@UAE_NXZ
0x1006af90:?HasSkinning@StaticModel@@UAE_NXZ
0x10018340:?HasTicked@World@@QAE_NXZ
0x100a2ec0:?HasUINeedInput@CDlgMgr@@QAE_NXZ
0x10285890:?HashKeys@Factory@@0V?$vector@UHashKey@@V?$allocator@UHashKey@@@std@@@std@@A
0x1008c0e0:?HideActors@Editor@@QAEXV?$vector@PAVActor@@V?$allocator@PAVActor@@@std@@@std@@@Z
0x101499c0:?HideAllUI@CDlgMgr@@QAEXXZ
0x10149bb0:?HideCombatUI@CDlgMgr@@QAEXXZ
0x10083100:?HideFreezeHelper@Editor@@AAE?AV?$vector@PAVActor@@V?$allocator@PAVActor@@@std@@@std@@V23@_N1@Z
0x10149ba0:?HideNotCombatUI@CDlgMgr@@QAEXXZ
0x10149930:?HideUIByType@CDlgMgr@@QAEXH@Z
0x100af3e0:?HighLight@CHotZonePic@@QAE_NH_N@Z
0x10018f30:?IgnoreKeyframes@Light@@QAEXXZ
0x1004ef90:?ImportFromFile@Actor@@SAPAV1@AAV?$basic_string@DU?$char_traits@D@std@@V?$allocator@D@2@@std@@PAVWorld@@@Z
0x100ef9b0:?ImportModel@StaticModel@@QAE?AV?$vector@PAV?$basic_string@DU?$char_traits@D@std@@V?$allocator@D@2@@std@@V?$allocator@PAV?$basic_string@DU?$char_traits@D@std@@V?$allocator@D@2@@std@@@2@@std@@PBD_N@Z
0x1006cb60:?IndexOfControl@CREDialog@@QAEHPAVCREControl@@@Z
0x11240be4:?IndoorVolumes@IndoorVolume@@2V?$vector@PAVIndoorVolume@@V?$allocator@PAVIndoorVolume@@@std@@@std@@A
0x100aec90:?Init@C3DModel@@QAE_NXZ
0x100e2270:?Init@EngineLog@@QAEXPAD@Z
0x100a5d90:?Init@REBlendColor@@QAEXKKK@Z
0x1015c750:?Init@SubareaManager@@QAE_NPAVWorld@@PAVCamera@@V?$basic_string@DU?$char_traits@D@std@@V?$allocator@D@2@@std@@@Z
0x1016db80:?Init@TextureCamera@@QAEXVVector@@0M_NUFloatColor@@MH@Z
0x100f1af0:?InitAfterLoad@Model@@UAEXXZ
0x100ef930:?InitAfterLoad@StaticModel@@UAEXXZ
0x10151740:?InitAllControl@CControlBox@@QAEXPAVCREDialog@@@Z
0x10152370:?InitAllControlInControlBox@CControlBoxList@@QAEXPAVCControlBox@@@Z
0x1014de70:?InitAllUI@CDlgMgr@@QAEXXZ
0x100b3480:?InitControl@CREDialog@@QAEJPAVCREControl@@@Z
0x100b7400:?InitDefaultElements@CREDialog@@IAEXXZ
0x10064620:?InitDeviceObjects@Canvas@@UAEXXZ
0x100d6e70:?InitFont@GUISystem@@IAEXXZ
0x1007f170:?InitInput@Editor@@QAEXXZ
0x10068200:?InitLine3D@Canvas@@UAEXXZ
0x10118ff0:?InitProp@Script@@QAEXPAD0@Z
0x10159c30:?Initalize@MaterialIntersect@@QAE_NV?$basic_string@DU?$char_traits@D@std@@V?$allocator@D@2@@std@@@Z
0x1004f700:?Initialize@Actor@@AAEXPAVWorld@@_N@Z
0x10172f00:?Initialize@AsyncLoader@@QAE_NXZ
0x10055500:?Initialize@BatchRenderer@@UAEXXZ
0x10076e80:?Initialize@ClothSimulator@@QAEXXZ
0x10097ea0:?Initialize@Engine@@QAEXAAVConfigFile@@PAUHWND__@@1PAUHINSTANCE__@@PBDV?$basic_string@DU?$char_traits@D@std@@V?$allocator@D@2@@std@@_N4@Z
0x1016ed40:?Initialize@EventAttemper@@UAE_NXZ
0x100d77a0:?Initialize@GUISystem@@UAEXXZ
0x10091db0:?Initialize@Gizmo@@IAEXXZ
0x100dbc90:?Initialize@Input@@UAEXAAVConfigFile@@PAUHWND__@@_N@Z
0x100e1dc0:?Initialize@LODManager@@QAEXXZ
0x100de140:?Initialize@Light@@IAEXXZ
0x100e68a0:?Initialize@Material@@QAE_NPBD0_N@Z
0x100e7390:?Initialize@MaterialManager@@QAEXXZ
0x10145800:?Initialize@NxPhysics@@QAEXXZ
0x10118d20:?Initialize@Script@@QAEXPAVActor@@PAVWorld@@AAVMatrix@@@Z
0x10126010:?Initialize@ShaderManager@@QAEXXZ
0x100f1b70:?InitializeAnimationSystem@Model@@IAEXPAUID3DXAnimationController@@@Z
0x100a89f0:?InitializeImm@CMLIMEEditBox@@CAXXZ
0x100a5a00:?InitializeImm@CREIMEEditBox@@CAXXZ
0x10138380:?InitializeScripts@World@@AAEXXZ
0x100a52e0:?InitializeUniscribe@CUniBuffer@CREEditBox@@CAHXZ
0x100a5620:?InsertChar@CUniBuffer@CREEditBox@@QAE_NH_W@Z
0x100c99c0:?InsertColumn@CREListCtrl@@QAEXHPB_WHK@Z
0x100b3670:?InsertControl@CREDialog@@QAEJHPAVCREControl@@@Z
0x101573a0:?InsertControlBox@CControlBoxList@@QAEXPAVCControlBox@@H@Z
0x100c6b30:?InsertHoverPic@CHotZonePic@@QAEHHABV?$basic_string@DU?$char_traits@D@std@@V?$allocator@D@2@@std@@AAUtagRECT@@_NPAU4@KKM@Z
0x10152870:?InsertItem@CItemHolder@@QAE_NHHABV?$basic_string@_WU?$char_traits@_W@std@@V?$allocator@_W@2@@std@@KPAUtagRECT@@K0@Z
0x100b0ac0:?InsertItem@CREListBox@@QAEJHPB_WPAX@Z
0x100cdb80:?InsertItem@CREListCtrl@@QAEXHPB_WKKK@Z
0x100b1450:?InsertItem@CREPropertiesList@@QAEJHPB_WPAX@Z
0x10009bc0:?Instance@AsyncLoader@@SAPAV1@XZ
0x10054c00:?Instance@AudioDevice@@SAPAV1@XZ
0x10055320:?Instance@BatchRenderer@@SAPAV1@XZ
0x1014a3e0:?Instance@CDlgMgr@@SAPAV1@XZ
0x11241778:?Instance@CPRTSimulator@@2PAV1@A
0x1009c1c0:?Instance@CVideoManager@@SAPAV1@XZ
0x10064610:?Instance@Canvas@@SAPAV1@XZ
0x1028581c:?Instance@DialogManager@@2PAV1@A
0x1007ec70:?Instance@Editor@@SAPAV1@XZ
0x100971c0:?Instance@Engine@@SAPAV1@XZ
0x100e23a0:?Instance@EngineLog@@SAPAV1@XZ
0x1016ed30:?Instance@EventAttemper@@SAPAV1@XZ
0x100a01c0:?Instance@FXManager@@SAPAV1@XZ
0x100d6d20:?Instance@GUISystem@@SAPAV1@XZ
0x100dad30:?Instance@Input@@SAPAV1@XZ
0x100dd6c0:?Instance@LCDDevice@@SAPAV1@XZ
0x100e1d90:?Instance@LODManager@@SAPAV1@XZ
0x10159bd0:?Instance@MaterialIntersect@@SAPAV1@XZ
0x100e3ef0:?Instance@MaterialManager@@SAPAV1@XZ
0x11240d88:?Instance@MeshOps@@2PAV1@A
0x10143fd0:?Instance@NxPhysics@@SAPAV1@XZ
0x10147860:?Instance@NxPhysicsContactReport@@SAPAV1@XZ
0x10054c10:?Instance@OggPlayer@@SAPAV1@XZ
0x10106b20:?Instance@PostProcess@@SAPAV1@XZ
0x10118a00:?Instance@RenderCallbackManager@@SAPAV1@XZ
0x101189f0:?Instance@RenderDevice@@SAPAV1@XZ
0x100109c0:?Instance@Serializer@@SAPAV1@XZ
0x10122da0:?Instance@ShaderManager@@SAPAV1@XZ
0x10127d20:?Instance@ShadowEngine@@SAPAV1@XZ
0x11241a2c:?Instance@SkyController@@2PAV1@A
0x10036980:?Instance@SubareaManager@@SAPAV1@XZ
0x10137000:?Instance@TextureManager@@SAPAV1@XZ
0x100e8cd0:?Instance@VertexManager@@SAPAV1@XZ
0x10137040:?Instance@WaterManager@@SAPAV1@XZ
0x11241a34:?InteriorVolumes@SkyController@@0V?$vector@VBBox@@V?$allocator@VBBox@@@std@@@std@@A
0x1007ef60:?Intialize@Editor@@QAEXXZ
0x10131750:?IntitializeNewSky@SkyController@@SAXPAVWorld@@AAVSkySettings@@@Z
0x100552c0:?InvalidateDeviceObjects@BatchRenderer@@QAEXXZ
0x10064650:?InvalidateDeviceObjects@Canvas@@UAEXXZ
0x1007ec80:?IsActor@Editor@@QAE_NPAVActor@@@Z
0x10018cd0:?IsAnimated@Texture@@QAE_NXZ
0x1009bd60:?IsAnyPlaying@CVideoManager@@QAE_NXZ
0x10153890:?IsCellSelected@CItemHolder@@QAE_NHH@Z
0x10083340:?IsClassInsertable@Editor@@QAE_NV?$basic_string@DU?$char_traits@D@std@@V?$allocator@D@2@@std@@@Z
0x1011aff0:?IsCompatibleWithModule@Serializer@@SA_NAAV?$basic_string@DU?$char_traits@D@std@@V?$allocator@D@2@@std@@0@Z
0x112417b0:?IsConverting@ISave@@2_NA
0x10001220:?IsCursorVisible@Editor@@QAE_NXZ
0x10019230:?IsDedicated@Engine@@QAE_NXZ
0x100cff80:?IsDlgFrontOfMe@CREDialog@@QAE_NH@Z
0x10018f90:?IsDynamic@Light@@QAE_NXZ
0x100dda20:?IsExcluded@Light@@QAE_NPAVActor@@@Z
0x100a6a80:?IsFloatNumber@CRENumericEditBox@@MAE_NIPA_W0@Z
0x1006c890:?IsHighLight@CHotZonePic@@QAE_NH@Z
0x1006b810:?IsInMotion@CTYDialog@@QAE_NH@Z
0x1006bcd0:?IsInUIEditorMode@GUISystem@@QAE_NXZ
0x100da030:?IsInVolumeType@IndoorVolume@@SA_NPAVWorld@@AAVVector@@H@Z
0x100d9f80:?IsIndoors@IndoorVolume@@SA_NPAVWorld@@AAVVector@@@Z
0x1000e1b0:?IsInsertable@Factory@@SA_NV?$basic_string@DU?$char_traits@D@std@@V?$allocator@D@2@@std@@@Z
0x100d9db0:?IsInsideThisVolume@IndoorVolume@@QAE_NAAVVector@@@Z
0x1006bce0:?IsLButtonDown@GUISystem@@QAE_NXZ
0x1006af90:?IsLight@Actor@@UAE_NXZ
0x100a2720:?IsLight@Light@@UAE_NXZ
0x10019050:?IsLoaded@Material@@QAE_NXZ
0x100179a0:?IsLoaded@StaticModel@@QAE_NXZ
0x10018cc0:?IsLoaded@Texture@@QAE_NXZ
0x10018320:?IsLoading@World@@QAE_NXZ
0x10017a10:?IsLoop@AnimationSet@@QBE_NXZ
0x100f2210:?IsLooping@Model@@QAE_NH@Z
0x10069830:?IsMinimized@CREDialog@@QAE_NXZ
0x10105580:?IsMotionBlurUsed@PostProcess@@QAE_NXZ
0x100ce810:?IsMsgDlgVisible@CDlgMgr@@QAE_NXZ
0x100a6a40:?IsNumber@CRENumericEditBox@@MAE_NI@Z
0x1006a230:?IsPassword@CPasswordEB@@QAE_NXZ
0x1009bf50:?IsPlaying@CVideoManager@@QAE_NH@Z
0x100f25c0:?IsPlaying@Model@@QAE_NH@Z
0x100f29a0:?IsPlaying@Model@@QAE_NXZ
0x1006a110:?IsPressed@CREButton@@UAE_NXZ
0x10018470:?IsScriptActor@Actor@@QAE_NXZ
0x1007ecf0:?IsSelected@Editor@@QAE_NPAVActor@@@Z
0x10018550:?IsSettingOpacity@Prefab@@QAE_NXZ
0x1012c450:?IsSkyVisible@SkyController@@AAE_NPAVCamera@@@Z
0x1007e660:?IsStopped@CRETimer@@QAE_NXZ
0x10018310:?IsUnloading@World@@QAE_NXZ
0x10019230:?IsUpdatingNxScene@NxPhysics@@QAE_NXZ
0x1006b3f0:?IsUsingCustomPic@CPicCheckBox@@QAE_NXZ
0x100a6540:?IsValid@CPictureLabel@@QAE_NXZ
0x10018cb0:?IsValid@Texture@@QAE_NXZ
0x100dd790:?IsVisible@Light@@QAE_NXZ
0x101531c0:?ItemOnPoint@CItemHolder@@IAEHAAUtagPOINT@@@Z
0x1008de00:?LandDown@Editor@@QAEXXZ
0x1001be20:?Landed@Actor@@UAEXAAVVector@@@Z
0x10066970:?Line3D@Canvas@@UAEXAAVVector@@0K@Z
0x10065a20:?Line@Canvas@@UAEXKHHHHHW4BlendMode@@0@Z
0x1010ae70:?Load@ActorGroup@@QAE_NV?$basic_string@DU?$char_traits@D@std@@V?$allocator@D@2@@std@@PAVWorld@@@Z
0x100f4ca0:?Load@AnimationSet@@QAE_NABV?$basic_string@DU?$char_traits@D@std@@V?$allocator@D@2@@std@@0_NPAV?$vector@V?$basic_string@DU?$char_traits@D@std@@V?$allocator@D@2@@std@@V?$allocator@V?$basic_string@DU?$char_traits@D@std@@V?$allocator@D@2@@std@@@2@@3@1@Z
0x1009ca90:?Load@CVideoManager@@QAEHPBDHHHH@Z
0x1007e7c0:?Load@DynLib@@QAEXXZ
0x100e6db0:?Load@Material@@QAE_NPBD@Z
0x100e2820:?Load@MaterialLibrary@@QAE_NV?$basic_string@DU?$char_traits@D@std@@V?$allocator@D@2@@std@@@Z
0x10043050:?Load@MaterialSerializer@@QAE_NV?$basic_string@DU?$char_traits@D@std@@V?$allocator@D@2@@std@@PAVMaterialLibrary@@@Z
0x10125a30:?Load@Shader@@QAE_NPBD@Z
0x100efd60:?Load@StaticModel@@QAEXPBD_N@Z
0x10136530:?Load@Texture@@QAE_NV?$basic_string@DU?$char_traits@D@std@@V?$allocator@D@2@@std@@W4TextureType@@MMMMM_N@Z
0x1013e2e0:?Load@World@@QAE_NV?$basic_string@DU?$char_traits@D@std@@V?$allocator@D@2@@std@@H@Z
0x1004b190:?Load@XMLSystem@@QAE_NPBEIAAV?$basic_string@DU?$char_traits@D@std@@V?$allocator@D@2@@std@@@Z
0x1004ae30:?Load@XMLSystem@@QAE_NV?$basic_string@DU?$char_traits@D@std@@V?$allocator@D@2@@std@@@Z
0x10121d10:?LoadAllShaders@ShaderManager@@UAEJXZ
0x100f4f50:?LoadAnimation@Model@@QAEHV?$basic_string@DU?$char_traits@D@std@@V?$allocator@D@2@@std@@_NPAV?$vector@V?$basic_string@DU?$char_traits@D@std@@V?$allocator@D@2@@std@@V?$allocator@V?$basic_string@DU?$char_traits@D@std@@V?$allocator@D@2@@std@@@2@@3@1@Z
0x10095720:?LoadCharset@Engine@@IAEXV?$basic_string@DU?$char_traits@D@std@@V?$allocator@D@2@@std@@@Z
0x1010b240:?LoadErrorTextResource@Precacher@@SA_NV?$basic_string@DU?$char_traits@D@std@@V?$allocator@D@2@@std@@@Z
0x1010a6c0:?LoadFromFile@ActorGroup@@QAE_NV?$basic_string@DU?$char_traits@D@std@@V?$allocator@D@2@@std@@PAVWorld@@@Z
0x10096e60:?LoadGameTexts@Engine@@IAEXV?$basic_string@DU?$char_traits@D@std@@V?$allocator@D@2@@std@@@Z
0x10016930:?LoadInMemoryWaveBank@AudioDevice@@UAEPAVWaveBank@@V?$basic_string@DU?$char_traits@D@std@@V?$allocator@D@2@@std@@@Z
0x100dcbd0:?LoadInputConfig@Input@@QAEXAAVConfigFile@@@Z
0x100019f0:?LoadModel@ILoad@@UAE_NV?$basic_string@DU?$char_traits@D@std@@V?$allocator@D@2@@std@@PAVStaticModel@@@Z
0x10035930:?LoadModel@OBJLoad@@UAE_NV?$basic_string@DU?$char_traits@D@std@@V?$allocator@D@2@@std@@PAVStaticModel@@@Z
0x10116820:?LoadModel@PrefabInstance@@QAEXV?$basic_string@DU?$char_traits@D@std@@V?$allocator@D@2@@std@@@Z
0x1011b080:?LoadModel@Serializer@@QAE_NV?$basic_string@DU?$char_traits@D@std@@V?$allocator@D@2@@std@@PAVStaticModel@@@Z
0x1003dda0:?LoadModel@XFileLoad@@UAE_NV?$basic_string@DU?$char_traits@D@std@@V?$allocator@D@2@@std@@PAVStaticModel@@@Z
0x1014dc70:?LoadOldFile@CDlgMgr@@QAE_NABV?$basic_string@DU?$char_traits@D@std@@V?$allocator@D@2@@std@@PAM@Z
0x10161f10:?LoadPatterns@Terrain@@QAE_NXZ
0x10096b90:?LoadPlugins@Engine@@IAEXXZ
0x10117840:?LoadSHProbe@World@@QAEHV?$basic_string@DU?$char_traits@D@std@@V?$allocator@D@2@@std@@@Z
0x10016930:?LoadSoundBank@AudioDevice@@UAEPAVSoundBank@@V?$basic_string@DU?$char_traits@D@std@@V?$allocator@D@2@@std@@@Z
0x10016930:?LoadStreamingWaveBank@AudioDevice@@UAEPAVWaveBank@@V?$basic_string@DU?$char_traits@D@std@@V?$allocator@D@2@@std@@@Z
0x1010b030:?LoadTextResource@Precacher@@SA_NV?$basic_string@DU?$char_traits@D@std@@V?$allocator@D@2@@std@@@Z
0x1014da70:?LoadUIXML@CDlgMgr@@QAE_NABV?$basic_string@DU?$char_traits@D@std@@V?$allocator@D@2@@std@@PAM@Z
0x100019a0:?LoadWorld@ILoad@@UAE_NV?$basic_string@DU?$char_traits@D@std@@V?$allocator@D@2@@std@@PAVWorld@@@Z
0x1011acf0:?LoadWorld@Serializer@@QAE_NV?$basic_string@DU?$char_traits@D@std@@V?$allocator@D@2@@std@@PAVWorld@@@Z
0x10016b30:?LockMouseInput@Input@@QAEXXZ
0x10019080:?LogLevel@Engine@@QAE?AW40@XZ
0x100e2400:?LogPopPrefix@@YAXXZ
0x100e2550:?LogPrintf@@YAXPBDZZ
0x100e26b0:?LogPrintf@@YAXW4LogLevel@@PBDZZ
0x100e2410:?LogPushPrefix@@YAXPBD@Z
0x10001070:?LostFocus@Gizmo@@QAEXXZ
0x1007eb80:?MakeNameUnique@Editor@@QAEXPAVActor@@@Z
0x10120920:?MapTables@Shader@@IAEXXZ
0x100df070:?MarkLitItems@Light@@QAEXXZ
0x100debd0:?MarkStaticItems@Light@@QAEXXZ
0x100eaad0:?Mend@MeshOps@@UAE_NPAVMesh@@_NMM11@Z
0x10084dd0:?MergeModels@Editor@@QAEXAAV?$vector@V?$basic_string@DU?$char_traits@D@std@@V?$allocator@D@2@@std@@V?$allocator@V?$basic_string@DU?$char_traits@D@std@@V?$allocator@D@2@@std@@@2@@std@@@Z
0x100846a0:?MergePrefabs@Editor@@QAEXXZ
0x10087570:?MergeScene@Editor@@QAEXPBD@Z
0x10087a10:?MergeSceneUsingCam@Editor@@QAEXV?$basic_string@DU?$char_traits@D@std@@V?$allocator@D@2@@std@@@Z
0x10088400:?MergeSceneUsingPosAndRotMat@Editor@@QAEXV?$basic_string@DU?$char_traits@D@std@@V?$allocator@D@2@@std@@AAVVector@@AAVMatrix@@@Z
0x10082810:?MeshOpSelected@Editor@@QAEXW4Op@MeshOps@@@Z
0x10141230:?MoveController@NxPhysics@@QAEXPAVNxActor@@AAVVector@@@Z
0x100af0a0:?MoveNestedDialog@CTYDialog@@IAEXXZ
0x100a66f0:?MsgProc@CInputBox@@UAE_NIIJ@Z
0x1014ffb0:?MsgProc@CItemHolder@@UAE_NIIJ@Z
0x100ca110:?MsgProc@CMLIMEEditBox@@UAE_NIIJ@Z
0x100c95f0:?MsgProc@CMultiLineEB@@UAE_NIIJ@Z
0x10069c10:?MsgProc@CREControl@@UAE_NIIJ@Z
0x100afae0:?MsgProc@CREDialog@@UAE_NPAUHWND__@@IIJ@Z
0x100ac9a0:?MsgProc@CREEditBox@@UAE_NIIJ@Z
0x100acec0:?MsgProc@CREIMEEditBox@@UAE_NIIJ@Z
0x100adae0:?MsgProc@CRENumericEditBox@@UAE_NIIJ@Z
0x101548e0:?MsgProc@CTYMenu@@UAE_NPAUHWND__@@IIJ@Z
0x100d64b0:?MsgProc@GUISystem@@QAEJPAUHWND__@@IIJ@Z
0x100dada0:?MsgProc@Input@@QAEXPAUHWND__@@IIJ@Z
0x1004d5b0:?NeedPrintStats@NxPhysics@@QBE_NXZ
0x100c9fa0:?NestToDialog@CTYDialog@@QAEXH@Z
0x100c9ff0:?NestToDialog@CTYDialog@@QAEXHHH@Z
0x100b2a80:?NestToEdge@CTYDialog@@QAEXK@Z
0x100b2b30:?NestToEdgeByDist@CTYDialog@@QAEXKJ@Z
0x1013df10:?NewWorld@World@@QAEXXZ
0x1001cc20:?OnActorGroup@AsyncLoaderReport@@UAEXXZ
0x1001cdc0:?OnAnimation@AsyncLoaderReport@@UAEXHPAVAnimationSet@@@Z
0x10069b60:?OnBegin@EventObserver@@UAEXAAVEvent@@@Z
0x100af790:?OnCreateDevice@CREDialogResourceManager@@IAEJPAUIDirect3DDevice9@@@Z
0x1001cc20:?OnCreateDevice@RenderBase@@UAEXXZ
0x10124f00:?OnCreateDevice@ShaderManager@@UAEXXZ
0x100a9d20:?OnCycleFocus@CREDialog@@IAEX_N@Z
0x100a98f0:?OnDestroyDevice@CREDialogResourceManager@@IAEXXZ
0x10107ee0:?OnDestroyDevice@PostProcess@@QAEXXZ
0x1001cc20:?OnDestroyDevice@RenderBase@@UAEXXZ
0x10120c00:?OnDestroyDevice@ShaderManager@@UAEXXZ
0x1001cc20:?OnDestroyDevice@World@@MAEXXZ
0x10069b60:?OnEnd@EventObserver@@UAEXAAVEvent@@@Z
0x100a66c0:?OnFocusIn@CInputBox@@UAEXXZ
0x100af1f0:?OnFocusIn@CMLIMEEditBox@@UAEXXZ
0x10069c30:?OnFocusIn@CREControl@@UAEXXZ
0x100ac960:?OnFocusIn@CREEditBox@@UAEXXZ
0x100acd90:?OnFocusIn@CREIMEEditBox@@UAEXXZ
0x100a66e0:?OnFocusOut@CInputBox@@UAEXXZ
0x100a89a0:?OnFocusOut@CMLIMEEditBox@@UAEXXZ
0x100a3b00:?OnFocusOut@CREComboBox@@UAEXXZ
0x10069c40:?OnFocusOut@CREControl@@UAEXXZ
0x100a4490:?OnFocusOut@CREEditBox@@UAEXXZ
0x100ace50:?OnFocusOut@CREIMEEditBox@@UAEXXZ
0x100adac0:?OnFocusOut@CRENumericEditBox@@UAEXXZ
0x1001cc20:?OnHotkey@CInputBox@@UAEXXZ
0x1006a080:?OnHotkey@CREButton@@UAEXXZ
0x1006a210:?OnHotkey@CRECheckBox@@UAEXXZ
0x100aa6d0:?OnHotkey@CREComboBox@@UAEXXZ
0x1001cc20:?OnHotkey@CREControl@@UAEXXZ
0x1006a2d0:?OnHotkey@CRERadioButton@@UAEXXZ
0x1014fcc0:?OnInit@CControlBoxList@@UAEJXZ
0x100b36f0:?OnInit@CREComboBox@@UAEJXZ
0x10069b30:?OnInit@CREControl@@UAEJXZ
0x100b1d00:?OnInit@CREEditBox@@UAEJXZ
0x100b37d0:?OnInit@CREListBox@@UAEJXZ
0x100b3f50:?OnInit@CRENumericEdit@@UAEJXZ
0x1006a660:?OnInit@CREPropertiesList@@UAEJXZ
0x100a3240:?OnInit@CREStatic@@UAEJXZ
0x100a9890:?OnLostDevice@CREDialogResourceManager@@IAEXXZ
0x10016b60:?OnLostDevice@OcclusionQuery@@UAEXXZ
0x10107ef0:?OnLostDevice@PostProcess@@QAEXXZ
0x1001cc20:?OnLostDevice@RenderBase@@UAEXXZ
0x10120b80:?OnLostDevice@ShaderManager@@UAEXXZ
0x10127fb0:?OnLostDevice@ShadowEngine@@MAEXXZ
0x10137170:?OnLostDevice@World@@MAEXXZ
0x1001cdc0:?OnMenuHovered@CTYMenuHandler@@UAEXPAVCTYMenu@@H@Z
0x1001cdc0:?OnMenuSelect@CTYMenuHandler@@UAEXPAVCTYMenu@@H@Z
0x1001cdc0:?OnModel@AsyncLoaderReport@@UAEXHPAVModel@@@Z
0x10069cd0:?OnMouseClick@CREControl@@UAEXXZ
0x10069c50:?OnMouseEnter@CREControl@@UAEXXZ
0x100a3140:?OnMouseEnter@CREDialog@@IAEXPAVCREControl@@@Z
0x10069c90:?OnMouseLeave@CREControl@@UAEXXZ
0x100a3150:?OnMouseLeave@CREDialog@@IAEXPAVCREControl@@@Z
0x100a9a80:?OnMouseMove@CREDialog@@IAEXUtagPOINT@@@Z
0x100a3040:?OnMouseUp@CREDialog@@IAEXUtagPOINT@@@Z
0x10154f60:?OnPropertyChange@CPaster@@UAEXABV?$basic_string@DU?$char_traits@D@std@@V?$allocator@D@2@@std@@@Z
0x100bfdc0:?OnPropertyChange@CPictureLabel@@UAEXABV?$basic_string@DU?$char_traits@D@std@@V?$allocator@D@2@@std@@@Z
0x100bc020:?OnPropertyChange@CREButton@@UAEXABV?$basic_string@DU?$char_traits@D@std@@V?$allocator@D@2@@std@@@Z
0x100a31e0:?OnPropertyChange@CREControl@@UAEXABV?$basic_string@DU?$char_traits@D@std@@V?$allocator@D@2@@std@@@Z
0x100b09a0:?OnPropertyChange@CRESlider@@UAEXABV?$basic_string@DU?$char_traits@D@std@@V?$allocator@D@2@@std@@@Z
0x100a3360:?OnPropertyChange@CREStatic@@UAEXABV?$basic_string@DU?$char_traits@D@std@@V?$allocator@D@2@@std@@@Z
0x100c2130:?OnPropertyChange@CTYDialog@@UAEXABV?$basic_string@DU?$char_traits@D@std@@V?$allocator@D@2@@std@@@Z
0x10069b60:?OnRender@Actor@@UAEXPAVCamera@@@Z
0x100c4d20:?OnRender@CREDialog@@UAEJM@Z
0x100c54e0:?OnRender@CTYDialog@@UAEJM@Z
0x101543d0:?OnRender@CTYMenu@@UAEJM@Z
0x10094d10:?OnRender@Gizmo@@QAEXXZ
0x100a9800:?OnResetDevice@CREDialogResourceManager@@IAEJXZ
0x100010f0:?OnResetDevice@Editor@@UAEJXZ
0x10016b50:?OnResetDevice@OcclusionQuery@@UAEJXZ
0x101087e0:?OnResetDevice@PostProcess@@QAEJXZ
0x10069b30:?OnResetDevice@RenderBase@@UAEJXZ
0x10121df0:?OnResetDevice@ShaderManager@@UAEJXZ
0x10128810:?OnResetDevice@ShadowEngine@@MAEJXZ
0x10069b30:?OnResetDevice@World@@MAEJXZ
0x100d5d50:?OnResize@GUISystem@@UAEXXZ
0x1001cc20:?OnResolutionChange@CREDialog@@UAEXXZ
0x1001cc20:?OnSound@AsyncLoaderReport@@UAEXXZ
0x10069b60:?OnSubmit@EventObserver@@UAEXAAVEvent@@@Z
0x1001cdc0:?OnTexture@AsyncLoaderReport@@UAEXHABV?$basic_string@DU?$char_traits@D@std@@V?$allocator@D@2@@std@@@Z
0x10094190:?OnUpdate@Gizmo@@QAEX_NVVector2@@AAVCamera@@AAVMatrix@@@Z
0x1001cdc0:?OnUpdateParam@Actor@@UAEXABV?$basic_string@DU?$char_traits@D@std@@V?$allocator@D@2@@std@@PBX@Z
0x10069b60:?OnWorldNode@AsyncLoaderReport@@UAEXH@Z
0x100e2470:?Out@EngineLog@@QAAXPBDZZ
0x100187f0:?OverridesEngineMultipass@Shader@@QAE_NXZ
0x101bb2d0:?PHYS_NOT_AFFECTED_BY_GRAVITY@Actor@@2HB
0x101bb2ec:?PHYS_NX_TOUCH_RE@Actor@@2HB
0x101bb2e8:?PHYS_NX_USE_RE@Actor@@2HB
0x101bb2e0:?PHYS_ONBLOCK_BOUNCE@Actor@@2HB
0x101bb2dc:?PHYS_ONBLOCK_CLIMBORSLIDE@Actor@@2HB
0x101bb2e4:?PHYS_ONBLOCK_PUSH@Actor@@2HB
0x101bb2d8:?PHYS_ONBLOCK_SLIDE@Actor@@2HB
0x101bb2d4:?PHYS_ONBLOCK_STOP@Actor@@2HB
0x101bb2cc:?PHYS_PUSHABLE@Actor@@2HB
0x100e1440:?PRTToStatic@MeshOps@@UAE_NPAVMesh@@V?$basic_string@DU?$char_traits@D@std@@V?$allocator@D@2@@std@@PAVWorld@@@Z
0x10001950:?Parse@IParse@@UAE_NV?$basic_string@DU?$char_traits@D@std@@V?$allocator@D@2@@std@@PAUAsyncPacket@@@Z
0x1011b490:?Parse@Serializer@@QAE_NV?$basic_string@DU?$char_traits@D@std@@V?$allocator@D@2@@std@@PAUAsyncPacket@@@Z
0x100a44c0:?ParseFloatArray@CREEditBox@@QAEXPAMH@Z
0x10150db0:?ParseText@CFormatedStatic@@IAEXXZ
0x100ac480:?PasteFromClipboard@CREEditBox@@MAEXXZ
0x100ad9a0:?PasteFromClipboard@CRENumericEditBox@@MAEXXZ
0x1009bfe0:?Pause@CVideoManager@@QAE_NH@Z
0x10017a40:?Pause@Model@@QAEXXZ
0x100a6fb0:?PlaceCaret@CPasswordEB@@IAEXH@Z
0x100ac120:?PlaceCaret@CREEditBox@@IAEXH@Z
0x1009bf00:?Play@CVideoManager@@QAE_NH@Z
0x10149510:?PopMessage@CDlgMgr@@QAEXABV?$basic_string@_WU?$char_traits@_W@std@@V?$allocator@_W@2@@std@@_NMPAVCMsgDlgHandler@@@Z
0x100e22f0:?PopPrefix@EngineLog@@QAEXXZ
0x1008f350:?PopRedo@Editor@@QAE_NXZ
0x1008f330:?PopUndo@Editor@@QAE_NXZ
0x1008e470:?PopUndoRedo@Editor@@QAE_NPAV?$list@UUndo@Editor@@V?$allocator@UUndo@Editor@@@std@@@std@@0@Z
0x1014fd50:?PosOnPoint@CItemHolder@@QAE_NAAUtagPOINT@@AAH1@Z
0x10149eb0:?PostMessageA@CDlgMgr@@QAE_NHHHPAVCREControl@@@Z
0x11240ff8:?PostProcessEffect_Permanent_Infos@PostProcessEffect_Permanent@@2V?$vector@UPostProcessEffect_Permanent_Info@PostProcessEffect_Permanent@@V?$allocator@UPostProcessEffect_Permanent_Info@PostProcessEffect_Permanent@@@std@@@std@@A
0x1004dd10:?PostRender@Actor@@UAEXPAVCamera@@@Z
0x100a0d00:?PostRender@FXManager@@QAEXAAVCamera@@_N@Z
0x10069b60:?PostRender@FXSystem@@UAEXAAVCamera@@@Z
0x100da280:?PostRender@IndoorVolume@@UAEXPAVCamera@@@Z
0x10145a20:?PostRender@NxPhysics@@QAEXXZ
0x10106760:?PostRender@PostProcess@@QAEXXZ
0x1012f5d0:?PostRender@SkyController@@UAEXPAVCamera@@@Z
0x10169d00:?PostRender@Terrain@@UAEXPAVCamera@@@Z
0x1016da60:?PostRender@TextureCamera@@UAEXPAVCamera@@@Z
0x101396e0:?PostRender@World@@QAEXPAVCamera@@@Z
0x101385a0:?PostRenderCollisionFace@World@@IAEXXZ
0x101063a0:?PostRenderFunc@PostProcess@@IAEXXZ
0x10106720:?PostRenderHDR@PostProcess@@QAEXXZ
0x10137580:?PostRenderSubarea@World@@IAEXXZ
0x100e6600:?PreDestroy@Material@@QAEXXZ
0x1009f850:?PreDestroy@ModelFrame@@QAEXXZ
0x100ee880:?PreDestroy@StaticModel@@QAEXXZ
0x100e34c0:?PreLoad@Material@@QAEXXZ
0x1009e630:?PreLoad@ModelFrame@@QAEXPAVXMLLoad@@@Z
0x1004eb00:?PreLoad@Prefab@@QAEXXZ
0x100ef520:?PreLoad@StaticModel@@QAEXABV?$vector@PAVMaterial@@V?$allocator@PAVMaterial@@@std@@@std@@@Z
0x100e3ae0:?PreLoadTexture@Material@@QAEXHABV?$basic_string@DU?$char_traits@D@std@@V?$allocator@D@2@@std@@@Z
0x1004dd00:?PreRender@Actor@@UAEXPAVCamera@@@Z
0x1004e610:?PreRender@Prefab@@UAEXPAVCamera@@@Z
0x10116af0:?PreRender@PrefabInstance@@UAEXPAVCamera@@@Z
0x1015e9b0:?PreRender@Terrain@@UAEXPAVCamera@@@Z
0x1015d420:?PreRender@TerrainNode@@UAEXPAVCamera@@@Z
0x1016e310:?PreRender@TextureCamera@@UAEXPAVCamera@@@Z
0x1010a1c0:?PrecacheActorGroup@Precacher@@SAXV?$basic_string@DU?$char_traits@D@std@@V?$allocator@D@2@@std@@H@Z
0x1010a300:?PrecacheMaterial@Precacher@@SAXV?$basic_string@DU?$char_traits@D@std@@V?$allocator@D@2@@std@@H@Z
0x1010e120:?PrecacheModel@Precacher@@SAXV?$basic_string@DU?$char_traits@D@std@@V?$allocator@D@2@@std@@PAV?$vector@UAnimInfo@Precacher@@V?$allocator@UAnimInfo@Precacher@@@std@@@3@PAV?$vector@UBoneNodeInfo@Precacher@@V?$allocator@UBoneNodeInfo@Precacher@@@std@@@3@H@Z
0x1010a260:?PrecacheSound2D@Precacher@@SAXV?$basic_string@DU?$char_traits@D@std@@V?$allocator@D@2@@std@@H@Z
0x1010a210:?PrecacheSound@Precacher@@SAXV?$basic_string@DU?$char_traits@D@std@@V?$allocator@D@2@@std@@H@Z
0x1010a2b0:?PrecacheTexture@Precacher@@SAXV?$basic_string@DU?$char_traits@D@std@@V?$allocator@D@2@@std@@H@Z
0x101361a0:?Preload@Texture@@QAEXXZ
0x10055360:?PrepareQueuedBatches@BatchRenderer@@QAEXPAVCamera@@PAVWorld@@@Z
0x1000b390:?PrintHashKeys@Factory@@SAXXZ
0x10064f50:?PrintStat@Canvas@@UAEXV?$basic_string@DU?$char_traits@D@std@@V?$allocator@D@2@@std@@HH_N@Z
0x101279c0:?ProcessGlobals@Shader@@IAEXXZ
0x1007f480:?Project@Editor@@QAE?AVVector@@V2@@Z
0x100698a0:?PtInDialog@CREDialog@@QAE_NABUtagPOINT@@@Z
0x100a8920:?PumpMessage@CMLIMEEditBox@@QAEXXZ
0x100a5260:?PumpMessage@CREIMEEditBox@@QAEXXZ
0x10109e10:?PurgeActorGroup@Precacher@@SAXAAPAVActorGroup@@@Z
0x1010d330:?PurgeCache@Precacher@@SAXXZ
0x1010a130:?PurgeMaterial@Precacher@@SAXAAPAVMaterial@@@Z
0x1010a090:?PurgeModel@Precacher@@SAXAAPAVModel@@@Z
0x1010ad30:?PurgeModelTMP@Precacher@@SAXV?$basic_string@DU?$char_traits@D@std@@V?$allocator@D@2@@std@@@Z
0x10109f50:?PurgeSound2D@Precacher@@SAXAAPAVSound@@@Z
0x10109eb0:?PurgeSound@Precacher@@SAXAAPAVSound@@@Z
0x10109ff0:?PurgeTexture@Precacher@@SAXAAPAVTexture@@@Z
0x10157340:?PushControlBox@CControlBoxList@@QAEHPAVCControlBox@@@Z
0x100e22a0:?PushPrefix@EngineLog@@QAEXPAD@Z
0x1008c0a0:?PushRedo@Editor@@QAEXAAUUndo@1@@Z
0x1008bd00:?PushUndo@Editor@@QAEXAAUUndo@1@@Z
0x10055de0:?QueueBatchItem@BatchRenderer@@AAEXPAUBatchItem@@PAVSortTree@@1@Z
0x10056930:?QueueBatchItem@BatchRenderer@@QAEXPAUBatchItem@@@Z
0x100b5280:?REGetGlobalDialogResourceManager@@YAPAVCREDialogResourceManager@@XZ
0x1007e670:?REGetGlobalTimer@@YAPAVCRETimer@@XZ
0x10143c20:?RayCast@NxPhysics@@QAE_NABV?$vector@JV?$allocator@J@std@@@std@@ABVVector@@1W4NxShapesType@@AAUCollisionInfo@@I@Z
0x10143e00:?RayCast@NxPhysics@@QAE_NABVVector@@0W4NxShapesType@@AAUCollisionInfo@@I@Z
0x10144670:?RayCastAll@NxPhysics@@QAEHABVVector@@0W4NxShapesType@@AAV?$vector@UCollisionInfo@@V?$allocator@UCollisionInfo@@@std@@@std@@I@Z
0x1015cfb0:?RayCheck@Terrain@@QAE_NMMAAMAAVVector@@@Z
0x1008b740:?ReCacheTexture@Editor@@QAEXXZ
0x100dcba0:?ReMapping@Input@@QAEXAAVConfigFile@@PAUHWND__@@_N@Z
0x100ab960:?RePosPrevPages@CRETabPages@@IAEXXZ
0x10042bf0:?ReadMaterial@MaterialSerializer@@AAEXPAVDOMElement@xercesc_2_5@@@Z
0x1011ef20:?ReadMeshBinary@ILoad@@QAE_NV?$basic_string@DU?$char_traits@D@std@@V?$allocator@D@2@@std@@AAPAUModelFrame@@H@Z
0x1011ed60:?ReadMeshBinary_Mem@ILoad@@QAE_NAAPAEAAPAUModelFrame@@H@Z
0x1011d270:?ReadMeshPart@ILoad@@QAE_NPAVMesh@@PAU_iobuf@@HHPAUCollisionMesh@@@Z
0x1011b870:?ReadMeshPart_Mem@ILoad@@QAE_NPAVMesh@@AAPAEHHPAUCollisionMesh@@@Z
0x1004bcb0:?ReadParameter@XMLSystem@@QAEXHPAVDOMNode@xercesc_2_5@@@Z
0x1004a8d0:?ReadParameter@XMLSystem@@QAE_NAAW4Type@EditorVar@@PAEPAVDOMNode@xercesc_2_5@@AAHAAV?$basic_string@DU?$char_traits@D@std@@V?$allocator@D@2@@std@@@Z
0x101bb304:?ReadsColorBuffer@Shader@@2HB
0x101bb308:?ReadsGlobalColorBuffer@Shader@@2HB
0x1007fb70:?ReadyRightClickContextMenu@Editor@@QAE_NXZ
0x1004d5d0:?RebuildCollisionTriangleMesh@Prefab@@QAEXXZ
0x10168a40:?RebuildMaterialBlock@Terrain@@QAEXXZ
0x10137b60:?RebuildOcTree@World@@QAEXXZ
0x10097e80:?RebuildSearchPaths@@YAXXZ
0x10160e00:?RebuildTriangle@TerrainNode@@QAE_NABV?$vector@GV?$allocator@G@std@@@std@@0@Z
0x100b2510:?RecalcPos@C3DModel@@QAEXMM@Z
0x100aa0d0:?Refresh@CREControl@@UAEXXZ
0x100af820:?Refresh@CREDialog@@QAEXXZ
0x100a6050:?Refresh@CREElement@@QAEXXZ
0x100e6870:?Refresh@Material@@QAEXXZ
0x100c5b70:?RefreshControlByZOrder@CREDialog@@QAEXXZ
0x10138180:?RefreshLightExclusionLists@World@@QAEXXZ
0x1001c240:?RefreshMaterials@MaterialManager@@QAEXXZ
0x1001c290:?RefreshMaterialsSimple@MaterialManager@@QAEXXZ
0x1004d720:?RefreshOptions@Actor@@UAEXXZ
0x100e3c20:?RefreshSimple@Material@@QAEXXZ
0x10137180:?RefreshSkySettings@World@@UAEXXZ
0x101372f0:?RegenerateOcclusionTree@World@@QAEXXZ
0x100f5510:?Regist@AnimationSet@@SA_NPAV1@@Z
0x10167810:?RegistNode@Terrain@@QAEXPAVTerrainNode@@HH_N@Z
0x10080010:?Register@@YGXP6AXXZ@Z
0x1009dc90:?Register@ModelFrame@@QAEXPAUID3DXAnimationController@@@Z
0x1015c790:?Register@SubareaManager@@QAE_NV?$basic_string@DU?$char_traits@D@std@@V?$allocator@D@2@@std@@AAVVector@@1PAVActor@@@Z
0x100d7510:?RegisterAsWindow@GUISystem@@UAEPAVCGUIWindow@@PAVCREDialog@@@Z
0x1002d1c0:?RegisterCallback@RenderCallbackManager@@QAEXPAVRenderBase@@@Z
0x10013960:?RegisterHash@Factory@@SAXV?$basic_string@DU?$char_traits@D@std@@V?$allocator@D@2@@std@@@Z
0x10124e50:?RegisterSharedTexture@ShaderManager@@QAEXPADPAVTexture@@@Z
0x1009f6b0:?RegisterSkinMatrices@ModelFrame@@QAEXPAU1@@Z
0x10001020:?RegisterWithHash@FXSystem@@QAEXXZ
0x100e6830:?Release@Material@@QAEKXZ
0x10107f00:?Release@PostProcessEffect_Permanent@@QAEXXZ
0x10124ed0:?Release@Shader@@QAEKXZ
0x10140ac0:?ReleaseMaterial@NxPhysics@@QAEXH@Z
0x10140fc0:?ReleaseTriangleMesh@NxPhysics@@QAEXPAVNxTriangleMesh@@@Z
0x1011fbb0:?Reload@Shader@@QAE_NXZ
0x10108250:?ReloadPermanentEffects@PostProcessEffect_Permanent@@SAXXZ
0x1011fb80:?ReloadShaders@ShaderManager@@QAEXXZ
0x100e3840:?ReloadTechniques@Material@@AAEXXZ
0x101381e0:?RemoveActor@World@@QAE_NPAVActor@@@Z
0x1016e4c0:?RemoveActorToList@TextureCamera@@QAEXPAVActor@@@Z
0x100b33e0:?RemoveAllControls@CREDialog@@QAEXXZ
0x10106b80:?RemoveAllEffects@PostProcess@@QAEXXZ
0x100b5100:?RemoveAllHotZone@CHotZonePic@@QAEXXZ
0x100b51c0:?RemoveAllHoverPic@CHotZonePic@@QAEXXZ
0x100b3710:?RemoveAllItems@CREComboBox@@QAEXXZ
0x100b3800:?RemoveAllItems@CREListBox@@QAEXXZ
0x100b38b0:?RemoveAllItems@CREPropertiesList@@QAEXXZ
0x100c54a0:?RemoveAllNestedDialog@CTYDialog@@QAEXXZ
0x100b5760:?RemoveAllTexture@CREDialog@@QAEXXZ
0x100a9750:?RemoveAt@CREDialog@@QAEXH@Z
0x1001f570:?RemoveCallback@RenderCallbackManager@@QAEXPAVRenderBase@@@Z
0x100a5680:?RemoveChar@CUniBuffer@CREEditBox@@QAE_NH@Z
0x100c53c0:?RemoveColumn@CREListCtrl@@QAEXH@Z
0x101558e0:?RemoveControl@CControlBox@@QAE_NPAVCREControl@@@Z
0x100a9590:?RemoveControl@CREDialog@@QAEXH@Z
0x100a9670:?RemoveControl@CREDialog@@QAEXPAVCREControl@@@Z
0x10155480:?RemoveControlBox@CControlBoxList@@QAE_NH@Z
0x10155530:?RemoveControlBoxByData@CControlBoxList@@QAEXK@Z
0x10149af0:?RemoveDialog@CDlgMgr@@QAEPAVCTYDialog@@H@Z
0x100cfee0:?RemoveDlgFrontOfMe@CREDialog@@QAEXH@Z
0x1004ed10:?RemoveDropShadowPartner@Actor@@QAEXPAV1@@Z
0x1016f340:?RemoveEvent@EventAttemper@@QAE_NH@Z
0x1001fd50:?RemoveExclusionListHandle@Light@@QAEXPAVActor@@@Z
0x1004f1c0:?RemoveFromExcludeList@Actor@@QAEXPBD@Z
0x1004edb0:?RemoveFromOcclusionList@Actor@@QAEXV?$basic_string@DU?$char_traits@D@std@@V?$allocator@D@2@@std@@@Z
0x1004d7b0:?RemoveFromRigidBodySimulation@Actor@@UAEXXZ
0x100b4e90:?RemoveHotZone@CHotZonePic@@QAE_NH@Z
0x100b4fc0:?RemoveHoverPic@CHotZonePic@@QAEXHK@Z
0x10028fa0:?RemoveInBlockers@PRTSettings@@QAEXAAV?$vector@V?$basic_string@DU?$char_traits@D@std@@V?$allocator@D@2@@std@@V?$allocator@V?$basic_string@DU?$char_traits@D@std@@V?$allocator@D@2@@std@@@2@@std@@@Z
0x100b08c0:?RemoveItem@CREComboBox@@QAEXI@Z
0x100ab540:?RemoveItem@CREListBox@@QAEXH@Z
0x100abf40:?RemoveItem@CREPropertiesList@@QAEXH@Z
0x100ab5d0:?RemoveItemByData@CREListBox@@QAEXPAX@Z
0x100a41b0:?RemoveItemByData@CREPropertiesList@@QAEXPAX@Z
0x100a3f10:?RemoveItemByText@CREListBox@@QAEXPA_W@Z
0x100a41a0:?RemoveItemByText@CREPropertiesList@@QAEXPA_W@Z
0x100c2040:?RemoveNestedDialog@CTYDialog@@IAEXH@Z
0x1016f260:?RemoveObserver@EventAttemper@@QAE_NH_N@Z
0x100290f0:?RemoveOutBlockers@PRTSettings@@QAEXAAV?$vector@V?$basic_string@DU?$char_traits@D@std@@V?$allocator@D@2@@std@@V?$allocator@V?$basic_string@DU?$char_traits@D@std@@V?$allocator@D@2@@std@@@2@@std@@@Z
0x10106a90:?RemovePostProcessEffect@PostProcess@@QAEXPAVPostProcessEffect@@@Z
0x1009e8c0:?RemoveSceneOffset@ModelFrame@@QAEXXZ
0x100ee2e0:?RemoveSceneOffset@StaticModel@@QAEXXZ
0x100a0120:?RemoveSystem@FXManager@@AAEXPAVFXSystem@@@Z
0x100b5710:?RemoveTexture@CREDialog@@QAEXI@Z
0x100a9980:?RemoveTexture@CREDialogResourceManager@@QAEXH@Z
0x100e3980:?RemoveUnusedParams@Material@@AAEXXZ
0x100d6b20:?RemoveWindow@GUISystem@@UAEXPAVCGUIWindow@@@Z
0x100d6be0:?RemoveWindow@GUISystem@@UAEXPAVCREDialog@@@Z
0x100c1ce0:?Render@C3DModel@@UAEXPAUIDirect3DDevice9@@M@Z
0x101517d0:?Render@CControlBox@@UAEXPAUIDirect3DDevice9@@M@Z
0x10151b90:?Render@CControlBox@@UAEXPAUIDirect3DDevice9@@MUtagRECT@@@Z
0x10151f50:?Render@CControlBoxList@@UAEXPAUIDirect3DDevice9@@M@Z
0x10154c10:?Render@CFormatedStatic@@UAEXPAUIDirect3DDevice9@@M@Z
0x100c3c90:?Render@CHotZonePic@@UAEXPAUIDirect3DDevice9@@M@Z
0x100bfe60:?Render@CInputBox@@UAEXPAUIDirect3DDevice9@@M@Z
0x10156140:?Render@CItemHolder@@UAEXPAUIDirect3DDevice9@@M@Z
0x100c3250:?Render@CMLIMEEditBox@@UAEXPAUIDirect3DDevice9@@M@Z
0x100c0c50:?Render@CMultiLineEB@@UAEXPAUIDirect3DDevice9@@M@Z
0x100c33b0:?Render@CMultiLineStatic@@UAEXPAUIDirect3DDevice9@@M@Z
0x100c0490:?Render@CPasswordEB@@UAEXPAUIDirect3DDevice9@@M@Z
0x10150e90:?Render@CPaster@@UAEXPAUIDirect3DDevice9@@M@Z
0x100c0ad0:?Render@CPicCheckBox@@UAEXPAUIDirect3DDevice9@@M@Z
0x100bf9b0:?Render@CPictureLabel@@UAEXPAUIDirect3DDevice9@@M@Z
0x100a62c0:?Render@CPictureLabel@@UAEXPAUIDirect3DDevice9@@MABUtagRECT@@@Z
0x10153f50:?Render@CProgressBTN@@UAEXPAUIDirect3DDevice9@@M@Z
0x10155030:?Render@CProgressBar@@UAEXPAUIDirect3DDevice9@@M@Z
0x100bb510:?Render@CREButton@@UAEXPAUIDirect3DDevice9@@M@Z
0x100bbba0:?Render@CREButton@@UAEXPAUIDirect3DDevice9@@MUtagRECT@@@Z
0x100a36c0:?Render@CREButton@@UAEXPAUIDirect3DDevice9@@MUtagRECT@@H@Z
0x100bc320:?Render@CRECheckBox@@UAEXPAUIDirect3DDevice9@@M@Z
0x100bc680:?Render@CREComboBox@@UAEXPAUIDirect3DDevice9@@M@Z
0x1001cdc0:?Render@CREControl@@UAEXPAUIDirect3DDevice9@@M@Z
0x10069b40:?Render@CREControl@@UAEXPAUIDirect3DDevice9@@MUtagRECT@@@Z
0x100bdfc0:?Render@CREEditBox@@UAEXPAUIDirect3DDevice9@@M@Z
0x100bd160:?Render@CREHScrollBar@@UAEXPAUIDirect3DDevice9@@M@Z
0x100bf520:?Render@CREIMEEditBox@@UAEXPAUIDirect3DDevice9@@M@Z
0x100bd450:?Render@CREListBox@@UAEXPAUIDirect3DDevice9@@M@Z
0x100c14d0:?Render@CREListCtrl@@UAEXPAUIDirect3DDevice9@@M@Z
0x100c02d0:?Render@CRENumericButton@@UAEXPAUIDirect3DDevice9@@M@Z
0x100c03b0:?Render@CRENumericEdit@@UAEXPAUIDirect3DDevice9@@M@Z
0x100bc1e0:?Render@CREPictureButton@@UAEXPAUIDirect3DDevice9@@M@Z
0x100bdb80:?Render@CREPropertiesList@@UAEXPAUIDirect3DDevice9@@M@Z
0x100bcdf0:?Render@CREScrollBar@@UAEXPAUIDirect3DDevice9@@M@Z
0x100bca20:?Render@CRESlider@@UAEXPAUIDirect3DDevice9@@M@Z
0x100bb2f0:?Render@CREStatic@@UAEXPAUIDirect3DDevice9@@M@Z
0x100a3250:?Render@CREStatic@@UAEXPAUIDirect3DDevice9@@MUtagRECT@@@Z
0x100bd9b0:?Render@CRETabPages@@UAEXPAUIDirect3DDevice9@@M@Z
0x100c0020:?Render@CRETextBox@@UAEXPAUIDirect3DDevice9@@M@Z
0x10154190:?Render@CSeperateLine@@UAEXPAUIDirect3DDevice9@@M@Z
0x100c4b70:?Render@CTYChatIME@@UAEXPAUIDirect3DDevice9@@M@Z
0x10154210:?Render@CTYVStatic@@UAEXPAUIDirect3DDevice9@@M@Z
0x10088cd0:?Render@Editor@@QAEXPAVWorld@@@Z
0x100d5f50:?Render@GUISystem@@UAEXXZ
0x10139890:?Render@World@@QAEXPAVCamera@@@Z
0x1001cdc0:?RenderAfter@Actor@@UAEXPAVShader@@PAVMaterial@@@Z
0x10153a50:?RenderBG@CProgressBar@@IAEXPAUIDirect3DDevice9@@M@Z
0x1001cdc0:?RenderBefore@Actor@@UAEXPAVShader@@PAVMaterial@@@Z
0x100c2500:?RenderCandidateReadingWindow@CMLIMEEditBox@@UAEXPAUIDirect3DDevice9@@M_N@Z
0x100be7e0:?RenderCandidateReadingWindow@CREIMEEditBox@@UAEXPAUIDirect3DDevice9@@M_N@Z
0x10150820:?RenderColor@CProgressBar@@QAEXPAUIDirect3DDevice9@@MMAAUtagRECT@@@Z
0x100c2cc0:?RenderComposition@CMLIMEEditBox@@UAEXPAUIDirect3DDevice9@@M@Z
0x100befd0:?RenderComposition@CREIMEEditBox@@UAEXPAUIDirect3DDevice9@@M@Z
0x101507a0:?RenderCut@CProgressBar@@QAEXPAUIDirect3DDevice9@@MMAAUtagRECT@@@Z
0x10128c50:?RenderDropShadows@ShadowEngine@@QAEXPAVWorld@@PAVCamera@@AAV?$vector@PAVActor@@V?$allocator@PAVActor@@@std@@@std@@@Z
0x101077c0:?RenderEffect@PostProcessEffect@@UAEXXZ
0x10055300:?RenderFinalShaders@BatchRenderer@@AAEXXZ
0x100c30e0:?RenderIndicator@CMLIMEEditBox@@UAEXPAUIDirect3DDevice9@@M@Z
0x100bf3d0:?RenderIndicator@CREIMEEditBox@@UAEXPAUIDirect3DDevice9@@M@Z
0x10055310:?RenderLDR@BatchRenderer@@QAEXXZ
0x10139150:?RenderMotionBlur@World@@IAEXPAVCamera@@@Z
0x1016dcd0:?RenderNow@TextureCamera@@QAEPAPAUIDirect3DTexture9@@XZ
0x10150600:?RenderPaste@CProgressBar@@QAEXPAUIDirect3DDevice9@@MMAAUtagRECT@@@Z
0x10082b00:?RenderPerformanceView@Editor@@IAEXPAVWorld@@@Z
0x100562d0:?RenderQueuedBatches@BatchRenderer@@QAEXPAVWorld@@@Z
0x101280a0:?RenderShadowItem@ShadowEngine@@IAEXPAUModelFrame@@PAVShader@@@Z
0x101282d0:?RenderShadowMap@ShadowEngine@@IAEXPAVLight@@PAVCamera@@@Z
0x101286c0:?RenderShadowMaps@ShadowEngine@@QAEXPAVWorld@@PAVCamera@@@Z
0x10150580:?RenderStretch@CProgressBar@@QAEXPAUIDirect3DDevice9@@MMAAUtagRECT@@@Z
0x100a3050:?RequestFocus@CREDialog@@QAEXPAVCREControl@@@Z
0x1007e410:?Reset@CRETimer@@QAEXXZ
0x1008f6f0:?Reset@Editor@@QAEXXZ
0x100a0e00:?Reset@FXManager@@QAEXPAVWorld@@@Z
0x10144910:?Reset@NxPhysics@@QAEXXZ
0x10116f50:?Reset@Profiler@@QAEXXZ
0x100185d0:?Reset@ShaderVar@@QAEXXZ
0x10137300:?Reset@SkySettings@@QAEXXZ
0x1015c6f0:?Reset@SubareaManager@@QAEXXZ
0x10018f70:?ResetAnimation@Light@@QAEXXZ
0x100a59e0:?ResetCaretBlink@CREEditBox@@IAEXXZ
0x100a8020:?ResetCompositionString@CMLIMEEditBox@@KAXXZ
0x100acc90:?ResetCompositionString@CREIMEEditBox@@KAXXZ
0x100b0330:?ResetFont@CREDialogResourceManager@@QAEXHM@Z
0x100c5220:?ResetFonts@CREDialog@@QAEXM@Z
0x100553c0:?ResetPasses@BatchRenderer@@QAEXXZ
0x100ae7d0:?ResetScrollBar@CREListCtrl@@IAEXXZ
0x1012c140:?ResetSkyState@SkyController@@QAEXXZ
0x100abb30:?ResetToFirstTab@CRETabPages@@UAEXXZ
0x10141500:?ResizeController@NxPhysics@@QAE_NPAVNxActor@@ABVVector@@@Z
0x10069d80:?ResolutionChanged@CREControl@@UAEXNNNN@Z
0x1006ab10:?ResolutionChanged@CREEditBox@@UAEXNNNN@Z
0x1006b270:?ResolutionChanged@CRENumericEdit@@UAEXNNNN@Z
0x1006afa0:?ResolutionChanged@CRETextBox@@UAEXNNNN@Z
0x1009c040:?Restart@CVideoManager@@QAE_NH@Z
0x100e33d0:?RestoreAlphaBlend@Material@@QAEXXZ
0x10068c50:?RestoreDeviceObjects@Canvas@@UAEXXZ
0x1007f750:?RestoreEditor@Editor@@QAEXXZ
0x100958a0:?ReturnAllLocalizedTexts@Engine@@QAEABV?$vector@V?$basic_string@_WU?$char_traits@_W@std@@V?$allocator@_W@2@@std@@V?$allocator@V?$basic_string@_WU?$char_traits@_W@std@@V?$allocator@_W@2@@std@@@2@@std@@XZ
0x10067d40:?RotatedBillBoard@Canvas@@UAEXAAVVector@@0MMKPAVTexture@@W4BlendMode@@2@Z
0x10066220:?RotatedBox@Canvas@@UAEXKHHHHMAAVVector@@PAVTexture@@W4BlendMode@@2@Z
0x100a6b20:?Round@CRENumericEdit@@MAEMABMH@Z
0x101404f0:?RunPhysics@World@@QAEXPAVActor@@@Z
0x101bb2fc:?STATE_ONGROUND@Actor@@2HB
0x101bb300:?STATE_ONWALL@Actor@@2HB
0x10051160:?SafeSetPointer@Actor@@QAEXPAPAV1@0@Z
0x1011f5d0:?Save@ISave@@UAE_NV?$basic_string@DU?$char_traits@D@std@@V?$allocator@D@2@@std@@AAV?$vector@PAVActor@@V?$allocator@PAVActor@@@std@@@3@@Z
0x100e2c10:?Save@Material@@QAE_NV?$basic_string@DU?$char_traits@D@std@@V?$allocator@D@2@@std@@@Z
0x100e28d0:?Save@MaterialLibrary@@QAE_NV?$basic_string@DU?$char_traits@D@std@@V?$allocator@D@2@@std@@@Z
0x100407f0:?Save@MaterialSerializer@@QAE_NV?$basic_string@DU?$char_traits@D@std@@V?$allocator@D@2@@std@@PAVMaterialLibrary@@@Z
0x10034690:?Save@OBJSave@@UAE_NV?$basic_string@DU?$char_traits@D@std@@V?$allocator@D@2@@std@@AAV?$vector@PAVActor@@V?$allocator@PAVActor@@@std@@@3@@Z
0x1011b2a0:?Save@Serializer@@QAE_NV?$basic_string@DU?$char_traits@D@std@@V?$allocator@D@2@@std@@AAV?$vector@PAVActor@@V?$allocator@PAVActor@@@std@@@3@@Z
0x1004b530:?Save@XMLSystem@@QAE_NV?$basic_string@DU?$char_traits@D@std@@V?$allocator@D@2@@std@@@Z
0x10149850:?SaveAttrib@CDlgMgr@@QAEXABV?$basic_string@_WU?$char_traits@_W@std@@V?$allocator@_W@2@@std@@0PAVXMLSystem@@PAVDOMNode@xercesc_2_5@@@Z
0x1014d940:?SaveDialog@CDlgMgr@@QAE_NPAVCTYDialog@@ABV?$basic_string@DU?$char_traits@D@std@@V?$allocator@D@2@@std@@@Z
0x100db940:?SaveInputConfig@Input@@QAEXXZ
0x1004d710:?SaveMapAfter@Actor@@UAEXXZ
0x101613e0:?SaveMapAfter@Terrain@@UAEXXZ
0x10160a60:?SaveMapAfter@TerrainNode@@UAEXXZ
0x1004d700:?SaveMapBefore@Actor@@UAEXXZ
0x10169640:?SaveMapBefore@Terrain@@UAEXXZ
0x10033d30:?SaveMesh@OBJSave@@AAEXAAV?$basic_ofstream@_WU?$char_traits@_W@std@@@std@@PAVMesh@@V?$basic_string@DU?$char_traits@D@std@@V?$allocator@D@2@@3@AAVMatrix@@AAH@Z
0x10001a90:?SaveModel@ISave@@UAE_NV?$basic_string@DU?$char_traits@D@std@@V?$allocator@D@2@@std@@PAVStaticModel@@@Z
0x10034920:?SaveModel@OBJSave@@UAE_NV?$basic_string@DU?$char_traits@D@std@@V?$allocator@D@2@@std@@PAVStaticModel@@@Z
0x1011b1a0:?SaveModel@Serializer@@QAE_NV?$basic_string@DU?$char_traits@D@std@@V?$allocator@D@2@@std@@PAVStaticModel@@@Z
0x10083770:?SaveScene@Editor@@QAE_NPBD@Z
0x10083680:?SaveSelected@Editor@@QAE_NPBD@Z
0x10001a40:?SaveWorld@ISave@@UAE_NV?$basic_string@DU?$char_traits@D@std@@V?$allocator@D@2@@std@@PAVWorld@@@Z
0x1011b780:?SaveWorld@Serializer@@QAE_NV?$basic_string@DU?$char_traits@D@std@@V?$allocator@D@2@@std@@PAVWorld@@@Z
0x1009e6e0:?Scale@ModelFrame@@QAEXAAVVector@@@Z
0x100ee2c0:?Scale@StaticModel@@QAEXVVector@@@Z
0x100ab250:?Scroll@CREHScrollBar@@QAEXH@Z
0x100aadd0:?Scroll@CREScrollBar@@QAEXH@Z
0x10084120:?SelectActor@Editor@@QAEXPAVActor@@@Z
0x101538f0:?SelectCell@CItemHolder@@QAEXHH@Z
0x100b0b80:?SelectItem@CREListBox@@QAEXH@Z
0x100abff0:?SelectItem@CREPropertiesList@@QAEXH@Z
0x100abe30:?SelectTab@CRETabPages@@QAEXH@Z
0x10001200:?SelectionChanged@Editor@@QAE_NXZ
0x100a8190:?SendCompString@CMLIMEEditBox@@IAEXXZ
0x100a4c10:?SendCompString@CREIMEEditBox@@IAEXXZ
0x100a2ff0:?SendEvent@CREDialog@@QAEXI_NPAVCREControl@@IJ@Z
0x100a7aa0:?SendKey@CMLIMEEditBox@@KAXE@Z
0x100a4590:?SendKey@CREIMEEditBox@@KAXE@Z
0x100a7a30:?SendMessageW@CTYDialog@@QAEXHHPAVCREControl@@IJ@Z
0x100977a0:?SeriousWarning@@YAXPBDZZ
0x10118e70:?Set@Script@@QAEXPAD0@Z
0x10118fc0:?Set@Script@@QAEXPADH@Z
0x10118e00:?Set@Script@@QAEXPADJ@Z
0x10118e30:?Set@Script@@QAEXPADN@Z
0x10118ea0:?Set@Script@@QAEXPADPAX@Z
0x1001bed0:?Set@ShaderVar@@QAEXV?$basic_string@DU?$char_traits@D@std@@V?$allocator@D@2@@std@@H@Z
0x1001bf60:?Set@ShaderVar@@QAEXV?$basic_string@DU?$char_traits@D@std@@V?$allocator@D@2@@std@@M@Z
0x10009dd0:?Set@ShaderVar@@QAEXV?$basic_string@DU?$char_traits@D@std@@V?$allocator@D@2@@std@@PAVTexture@@@Z
0x1001bff0:?Set@ShaderVar@@QAEXV?$basic_string@DU?$char_traits@D@std@@V?$allocator@D@2@@std@@VMatrix@@@Z
0x1001c120:?Set@ShaderVar@@QAEXV?$basic_string@DU?$char_traits@D@std@@V?$allocator@D@2@@std@@VVector4@@@Z
0x1001c080:?Set@ShaderVar@@QAEXV?$basic_string@DU?$char_traits@D@std@@V?$allocator@D@2@@std@@VVector@@@Z
0x1011faf0:?Set@ShaderVar@@QAEXV?$basic_string@DU?$char_traits@D@std@@V?$allocator@D@2@@std@@W4Type@EditorVar@@W4DeleteType@1@PAX@Z
0x1001be40:?Set@ShaderVar@@QAEXV?$basic_string@DU?$char_traits@D@std@@V?$allocator@D@2@@std@@_N@Z
0x10136210:?Set@Texture@@QAEXH@Z
0x10019210:?SetAbsTimeDiff@Engine@@QAEXN@Z
0x1001c470:?SetAckMessage@Event@@QAEXAAV?$Smart_Ptr@VMessage@1Outpop@@@Utility@Outpop@@@Z
0x1001c4a0:?SetAct@Event@@QAEXAAV?$Smart_Ptr@VRef_Object@Utility@Outpop@@@Utility@Outpop@@@Z
0x1006abd0:?SetAction@Event@@QAEXW4EVENT_ACTION_TYPE@@@Z
0x10140eb0:?SetActorCollisionGroup@NxPhysics@@QAEXPAVNxActor@@W4PhysicsGroup@@@Z
0x10069ec0:?SetAdditionalData@CREControl@@QAEXK@Z
0x100a6550:?SetAdditionalRenderRect@CPictureLabel@@QAEXPAUtagRECT@@@Z
0x100abc20:?SetAllChildrenLocation@CRETabPages@@QAEXHH@Z
0x100f2850:?SetAnimPosition@Model@@QAEXHM@Z
0x100f26e0:?SetAnimationSpeed@Model@@QAEXHM@Z
0x100f1cf0:?SetAnimationWeight@Model@@QAEXHMM@Z
0x100ee350:?SetAutoBBox@StaticModel@@QAEXXZ
0x1006bca0:?SetAutoResize@GUISystem@@QAEX_N@Z
0x10001030:?SetBBoxCulling@FXSystem@@QAEX_N@Z
0x1006a0a0:?SetBGDisplay@CREButton@@QAEX_N@Z
0x10069860:?SetBGDisplay@CREDialog@@QAEX_N@Z
0x1014fcd0:?SetBGPic@CItemHolder@@QAEXABV?$basic_string@_WU?$char_traits@_W@std@@V?$allocator@_W@2@@std@@PAUtagRECT@@@Z
0x10150c40:?SetBGPic@CTYMenu@@QAEXABV?$basic_string@_WU?$char_traits@_W@std@@V?$allocator@_W@2@@std@@PAUtagRECT@@@Z
0x100c3b20:?SetBackGround@CHotZonePic@@QAEXABV?$basic_string@DU?$char_traits@D@std@@V?$allocator@D@2@@std@@PAUtagRECT@@@Z
0x100a8d90:?SetBackGround@CMultiLineStatic@@QAEXABV?$basic_string@DU?$char_traits@D@std@@V?$allocator@D@2@@std@@@Z
0x100bf870:?SetBackGround@CPictureLabel@@QAE_NV?$basic_string@_WU?$char_traits@_W@std@@V?$allocator@_W@2@@std@@PAUtagRECT@@@Z
0x10150190:?SetBackGround@CProgressBar@@QAEXABV?$basic_string@DU?$char_traits@D@std@@V?$allocator@D@2@@std@@PAUtagRECT@@@Z
0x10150b20:?SetBackGround@CSeperateLine@@QAEXABV?$basic_string@_WU?$char_traits@_W@std@@V?$allocator@_W@2@@std@@PAUtagRECT@@@Z
0x1006ae20:?SetBackGroundColor@CPictureLabel@@QAEXK@Z
0x100a29e0:?SetBackGroundColor@CProgressBar@@QAEXABK@Z
0x10150ba0:?SetBackGroundColor@CSeperateLine@@QAEXK@Z
0x100baf70:?SetBackGroundPic@CREDialog@@QAEXABV?$basic_string@_WU?$char_traits@_W@std@@V?$allocator@_W@2@@std@@PAUtagRECT@@@Z
0x10069720:?SetBackgroundColors@CREDialog@@QAEXK@Z
0x100a30a0:?SetBackgroundColors@CREDialog@@QAEXKKKK@Z
0x1006b500:?SetBeginLine@CREListCtrl@@QAEXH@Z
0x1006b770:?SetBeginLoc@CTYDialog@@QAEXHH@Z
0x1006b7b0:?SetBeginSize@CTYDialog@@QAEXHH@Z
0x1006ae30:?SetBlendColor@CPictureLabel@@QAEXK@Z
0x1006a670:?SetBorder@CREListBox@@QAEXHH@Z
0x1006a670:?SetBorder@CREPropertiesList@@QAEXHH@Z
0x1006aac0:?SetBorderWidth@CREEditBox@@QAEXH@Z
0x100a2600:?SetBoxDistance@CControlBoxList@@QAEXH@Z
0x100a2680:?SetBoxSize@CControlBoxList@@QAEXHH@Z
0x100a5570:?SetBufferSize@CUniBuffer@CREEditBox@@QAE_NH@Z
0x1006a310:?SetButtonGroup@CRERadioButton@@QAEXI@Z
0x1006b150:?SetButtonWidth@CRENumericEdit@@QAEXH@Z
0x10069900:?SetCallback@CREDialog@@QAEXP6GXPAV1@IHPAVCREControl@@IJ@Z@Z
0x100011d0:?SetCamSpeed@Editor@@QAEXM@Z
0x100369c0:?SetCamera@SubareaManager@@QAEXPAVCamera@@@Z
0x100a2fb0:?SetCaptionFont@CREDialog@@QAEXI@Z
0x10069740:?SetCaptionHeight@CREDialog@@QAEXH@Z
0x10069750:?SetCaptionText@CREDialog@@QAEXPB_W@Z
0x100a9560:?SetCaptionTextColor@CREDialog@@QAEXK@Z
0x1006b180:?SetCaptionWidth@CRENumericEdit@@QAEXH@Z
0x1006aaa0:?SetCaretColor@CREEditBox@@QAEXK@Z
0x100a2810:?SetCellSelectEnable@CItemHolder@@QAEX_N@Z
0x1006a240:?SetChecked@CRECheckBox@@QAEX_N@Z
0x1006a2f0:?SetChecked@CRERadioButton@@QAEX_N0@Z
0x100a3940:?SetCheckedInternal@CRECheckBox@@MAEX_N0@Z
0x100aa3c0:?SetCheckedInternal@CRERadioButton@@MAEX_N00@Z
0x10016cb0:?SetClearColor@RenderDevice@@UAEXK@Z
0x10016cd0:?SetClearScreen@RenderDevice@@UAEX_N@Z
0x1006a0f0:?SetClickDist@CREButton@@QAEXJJ@Z
0x10137530:?SetClipPlane@World@@QAEXH@Z
0x10018460:?SetCollisionModel@Actor@@UAEXPAVModel@@@Z
0x100dd740:?SetColor@Light@@QAEXAAUFloatColor@@@Z
0x10121a70:?SetColorBuffer@Shader@@QAEXPAX@Z
0x100ae720:?SetColumn@CREListCtrl@@QAE_NHPB_WHK@Z
0x101213d0:?SetCommonShaderConstants@Shader@@QAEXXZ
0x10001150:?SetCompiling@Editor@@QAEX_NV?$basic_string@DU?$char_traits@D@std@@V?$allocator@D@2@@std@@1@Z
0x10016c30:?SetCompressPRTMaps@RenderDevice@@UAEX_N@Z
0x100b0240:?SetControlEnabled@CREDialog@@QAEXH_N@Z
0x10069b70:?SetControlSoundVolume@CREControl@@UAEXM@Z
0x100a7990:?SetCorruptAct@CTYDialog@@QAEX_N@Z
0x100a2740:?SetCurItem@CItemHolder@@QAEXH@Z
0x100a2ab0:?SetCurProg@CProgressBTN@@QAEXM@Z
0x100a28e0:?SetCurProg@CProgressBar@@UAEXM@Z
0x10069a50:?SetCurTransparency@CREDialog@@QAEXM@Z
0x10018f40:?SetCurrentState@Light@@QAEXAAVLightState@@@Z
0x100d5c90:?SetCursor@GUISystem@@QAEXW4CURSOR_TYPE@@@Z
0x100a3160:?SetCustomElement@CREControl@@QAEXHPAVCREElement@@@Z
0x1006bc10:?SetCustomFlagForController@NxPhysics@@QAEXI@Z
0x100bb130:?SetCustomPic@CREControl@@QAEXABV?$basic_string@_WU?$char_traits@_W@std@@V?$allocator@_W@2@@std@@AAUtagRECT@@H@Z
0x100a35e0:?SetCustomText@CREButton@@QAEXPB_W@Z
0x10069eb0:?SetCustomized@CREControl@@QAEX_N@Z
0x1006abd0:?SetDC@CUniBuffer@CREEditBox@@QAEXPAUHDC__@@@Z
0x100a2600:?SetData2@CControlBox@@QAEXK@Z
0x100a25e0:?SetData@CControlBox@@QAEXK@Z
0x1012de10:?SetDayTime@SkyController@@QAEXM@Z
0x10009960:?SetDefaultCameraDir@World@@QAEXABVVector@@@Z
0x100098b0:?SetDefaultCameraPos@World@@QAEXABVVector@@@Z
0x100b0270:?SetDefaultElement@CREDialog@@QAEJIIPAVCREElement@@@Z
0x10150cc0:?SetDefaultMenuItemBG@CTYMenu@@QAEXABV?$basic_string@_WU?$char_traits@_W@std@@V?$allocator@_W@2@@std@@PAUtagRECT@@@Z
0x10069b60:?SetDeselectedSound@CREControl@@UAEXPAVSound@@@Z
0x10069b60:?SetDeselectedSound@CREControl@@UAEXPBD@Z
0x1009dbf0:?SetDisableLODs@ModelFrame@@QAEX_N@Z
0x1006b970:?SetDisappearTime@CMultiLineStatic@@QAEXM@Z
0x1006b960:?SetDispTime@CMultiLineStatic@@QAEXM@Z
0x1006bc20:?SetDisplayGUI@GUISystem@@UAEX_N@Z
0x10069a90:?SetDlgCorruptType@CREDialog@@QAEXW4CorruptType@1@@Z
0x10069960:?SetDlgID@CREDialog@@QAEXH@Z
0x1006b6b0:?SetDlgName@CTYDialog@@QAEXABV?$basic_string@_WU?$char_traits@_W@std@@V?$allocator@_W@2@@std@@@Z
0x10149fd0:?SetDlgPos@CDlgMgr@@QAE_NHHH@Z
0x10149f50:?SetDlgSize@CDlgMgr@@QAE_NHHH@Z
0x1006b690:?SetDlgType@CTYDialog@@QAEXH@Z
0x100a27d0:?SetDragEnable@CItemHolder@@QAEX_N@Z
0x100a8f60:?SetDrawRect@CHotZonePic@@QAEXPAUtagRECT@@@Z
0x1006b980:?SetDrawText@CProgressBar@@QAEX_N@Z
0x100a2a10:?SetDriftAngle@CProgressBar@@QAEX_N@Z
0x1006a820:?SetDropDownSound@CREComboBox@@UAEXPAVSound@@@Z
0x1006a7e0:?SetDropDownSound@CREComboBox@@UAEXPBD@Z
0x10069b60:?SetDropDownSound@CREControl@@UAEXPAVSound@@@Z
0x10069b60:?SetDropDownSound@CREControl@@UAEXPBD@Z
0x100a27e0:?SetDropEnable@CItemHolder@@QAEX_N@Z
0x1006a840:?SetDropHeight@CREComboBox@@QAEXI@Z
0x10018fa0:?SetDynamic@Light@@QAEX_N@Z
0x10016cf0:?SetDynamicLights@RenderDevice@@UAEX_N@Z
0x100a4580:?SetEditable@CREEditBox@@QAEX_N@Z
0x100011f0:?SetEditorMode@Editor@@QAEX_N@Z
0x100e4800:?SetEditorVars@Material@@QAEXXZ
0x100b0350:?SetElement@CREControl@@QAEJIPAVCREElement@@@Z
0x10120ed0:?SetEmissive@Shader@@QAEXXZ
0x100369a0:?SetEnable@SubareaManager@@QAEX_N@Z
0x1006ae60:?SetEnableBackGroundColor@CPictureLabel@@QAEX_N@Z
0x1006bbc0:?SetEnabled@CGUIWindow@@QAEX_N@Z
0x100ad7e0:?SetEnabled@CREContainer@@UAEX_N@Z
0x10069d20:?SetEnabled@CREControl@@UAEX_N@Z
0x1006b790:?SetEndLoc@CTYDialog@@QAEXHH@Z
0x100b50b0:?SetExternalBGTexture@CRETextBox@@UAEXPAVTexture@@@Z
0x100a64e0:?SetExternalTexture@CPictureLabel@@QAEXPAVTexture@@@Z
0x10151200:?SetFirstPic@CPaster@@QAEXABV?$basic_string@_WU?$char_traits@_W@std@@V?$allocator@_W@2@@std@@PAUtagRECT@@@Z
0x1006bab0:?SetFixedRect@CHotZonePic@@QAEX_N@Z
0x100c4990:?SetFixedText@CTYChatIME@@QAEXABV?$basic_string@_WU?$char_traits@_W@std@@V?$allocator@_W@2@@std@@@Z
0x100a3f60:?SetFixedTextHeight@CREListBox@@QAEX_NH@Z
0x101066f0:?SetFloatVar@PostProcessEffect@@QAEXAAV?$basic_string@DU?$char_traits@D@std@@V?$allocator@D@2@@std@@M@Z
0x10001210:?SetFocus@Editor@@QAEX_N@Z
0x1006bbe0:?SetFocusable@CGUIWindow@@QAEX_N@Z
0x101210f0:?SetFog@Shader@@QAEXMUFloatColor@@MM@Z
0x101372b0:?SetFog@World@@QAEXUFloatColor@@MMM@Z
0x100b5470:?SetFont@CREDialog@@QAEJIPB_WJJ@Z
0x100a5f80:?SetFont@CREElement@@QAEXIKK@Z
0x100a2ee0:?SetForceMouseVisible@CDlgMgr@@QAEX_N@Z
0x10154b80:?SetFormatedText@CFormatedStatic@@QAEXABV?$basic_string@_WU?$char_traits@_W@std@@V?$allocator@_W@2@@std@@@Z
0x10140b10:?SetGameVisualization@NxPhysics@@QAEX_N@Z
0x100a7790:?SetGridHeight@CREListCtrl@@QAEXH@Z
0x100a27b0:?SetGridSize@CItemHolder@@QAEXHH@Z
0x10121930:?SetHDR@Shader@@QAEX_N00@Z
0x100a7900:?SetHasInput@CTYDialog@@QAEX_N@Z
0x100a7780:?SetHeadHeight@CREListCtrl@@QAEXH@Z
0x100ad8d0:?SetHidden@CREContainer@@UAEX_N@Z
0x10069d60:?SetHidden@CREControl@@UAEX_N@Z
0x1006a0c0:?SetHighLight@CREButton@@QAEX_N@Z
0x10069e10:?SetHotkey@CREControl@@QAEXI@Z
0x1006a0d0:?SetHoverDist@CREButton@@QAEXJJ@Z
0x10150bc0:?SetHoverPic@CTYMenu@@QAEXABV?$basic_string@_WU?$char_traits@_W@std@@V?$allocator@_W@2@@std@@PAUtagRECT@@@Z
0x100c6a80:?SetHoverPicTypeEnabled@CHotZonePic@@QAEXH_N@Z
0x10069db0:?SetID@CREControl@@QAEXH@Z
0x1006bc10:?SetID@Event@@QAEXI@Z
0x101364b0:?SetID@Texture@@AAEXH@Z
0x1006bcc0:?SetInUIEditorMode@GUISystem@@QAEX_N@Z
0x1015e150:?SetIndexCode@SurfaceNode@@QAEXHH@Z
0x1006bc40:?SetInputControlFocused@GUISystem@@UAEX_N@Z
0x101217d0:?SetInstancesData@Shader@@QAEXHPAUD3DXMATRIX@@@Z
0x100dd780:?SetIntensity@Light@@QAEXM@Z
0x10016a90:?SetInvertPitch@Input@@QAEX_N@Z
0x1006b6f0:?SetIsInitOnStart@CTYDialog@@QAEX_N@Z
0x1006b360:?SetIsPassword@CPasswordEB@@QAEX_N@Z
0x10152c10:?SetItem@CItemHolder@@QAE_NHHPAUItemInfo@1@@Z
0x101533f0:?SetItemBlendColor@CItemHolder@@QAE_NHHK@Z
0x100a27f0:?SetItemChangeEnable@CItemHolder@@QAEX_N@Z
0x1006ae20:?SetItemDistanceX@CItemHolder@@QAEXH@Z
0x100a2760:?SetItemDistanceY@CItemHolder@@QAEXH@Z
0x100a3a20:?SetItemFont@CREComboBox@@UAEXI@Z
0x100a3a50:?SetItemFontColor@CREComboBox@@UAEXHK@Z
0x10153020:?SetItemHoverPic@CItemHolder@@QAE_NHHV?$basic_string@_WU?$char_traits@_W@std@@V?$allocator@_W@2@@std@@PAUtagRECT@@ABU4@@Z
0x10152de0:?SetItemHoverPic@CItemHolder@@QAE_NHV?$basic_string@_WU?$char_traits@_W@std@@V?$allocator@_W@2@@std@@PAUtagRECT@@ABU4@@Z
0x1014fe10:?SetItemOnHand@CItemHolder@@QAE_NABV?$basic_string@_WU?$char_traits@_W@std@@V?$allocator@_W@2@@std@@K0@Z
0x10153240:?SetItemOnHand@CItemHolder@@QAE_NH@Z
0x1014ff20:?SetItemOnHand@CItemHolder@@QAE_NPAUItemInfo@1@@Z
0x100a2790:?SetItemRect@CItemHolder@@QAEXHH@Z
0x100c9af0:?SetItemText@CREListCtrl@@QAE_NHHPB_WKK@Z
0x100b40c0:?SetItemTextColor@CREListCtrl@@QAEXHHK@Z
0x100a6740:?SetJoyIndex@CInputBox@@UAEXH@Z
0x100db0d0:?SetJoystickSensitivity@Input@@QAEXM@Z
0x10069b60:?SetKeyPressSound@CREControl@@UAEXPAVSound@@@Z
0x10069b60:?SetKeyPressSound@CREControl@@UAEXPBD@Z
0x100a6750:?SetKeySet@CInputBox@@UAEXH@Z
0x1002ff40:?SetLOD@ModelFrame@@QAEXPAVMesh@@H@Z
0x1006a690:?SetLabelWidth@CREPropertiesList@@QAEXH@Z
0x10151350:?SetLastPic@CPaster@@QAEXABV?$basic_string@_WU?$char_traits@_W@std@@V?$allocator@_W@2@@std@@PAUtagRECT@@@Z
0x101220b0:?SetLightShaderConstants@Shader@@QAEXAAV?$vector@PAVLight@@V?$allocator@PAVLight@@@std@@@std@@@Z
0x100a2980:?SetLineDist@CMultiLineStatic@@QAEXH@Z
0x100096c0:?SetLoadingScale@StaticModel@@QAEXM@Z
0x10018330:?SetLoadingState@World@@QAEX_N@Z
0x100ae1d0:?SetLocation@CMultiLineEB@@UAEXHH@Z
0x100af310:?SetLocation@CMultiLineStatic@@UAEXHH@Z
0x100a6590:?SetLocation@CREContainer@@UAEXHH@Z
0x10069dc0:?SetLocation@CREControl@@UAEXHH@Z
0x100697b0:?SetLocation@CREDialog@@QAEXHH@Z
0x1006b730:?SetLocation@CTYDialog@@QAEXHH@Z
0x10140d40:?SetLocation@NxPhysics@@QAEXPAVNxActor@@ABVVector@@@Z
0x101216e0:?SetMBSkinning@Shader@@QAEXHHPAUD3DXMATRIX@@0@Z
0x10121380:?SetMBVP@Shader@@QAEXABVMatrix@@0@Z
0x100184d0:?SetManagedClassName@Actor@@QAEXAAV?$basic_string@DU?$char_traits@D@std@@V?$allocator@D@2@@std@@@Z
0x100184c0:?SetManagedIndex@Actor@@QAEXH@Z
0x1006b600:?SetMannulControlSpeed@C3DModel@@QAEXM@Z
0x100a2770:?SetMarginX@CItemHolder@@QAEXH@Z
0x100a2780:?SetMarginY@CItemHolder@@QAEXH@Z
0x1006af70:?SetMargins@CRETextBox@@QAEXHH@Z
0x100db3e0:?SetMask@Input@@QAEXHW4InputMaskState@@@Z
0x100db420:?SetMaskAll@Input@@QAEXW4InputMaskState@@@Z
0x100db480:?SetMaskKeyboard@Input@@QAEXW4InputMaskState@@@Z
0x100db440:?SetMaskMouse@Input@@QAEXW4InputMaskState@@@Z
0x1004de50:?SetMass@Actor@@QAEXM@Z
0x100096b0:?SetMatBase@ModelFrame@@QAEXI@Z
0x1009e520:?SetMaterial@ModelFrame@@QAEXHPAVMaterial@@@Z
0x10138500:?SetMaterialList@World@@QAEXABV?$vector@PAVMaterial@@V?$allocator@PAVMaterial@@@std@@@std@@@Z
0x101447f0:?SetMaterialProperties@NxPhysics@@QAEXHMM@Z
0x10144860:?SetMaterialProperties@NxPhysics@@QAEXHMMM@Z
0x1009e270:?SetMaterials@ModelFrame@@QAEXAAV?$vector@PAVMaterial@@V?$allocator@PAVMaterial@@@std@@@std@@AAH@Z
0x1006ab50:?SetMaxChar@CREEditBox@@QAEXH@Z
0x1006a950:?SetMaxCustomText@CRESlider@@QAEXABV?$basic_string@_WU?$char_traits@_W@std@@V?$allocator@_W@2@@std@@@Z
0x10155d30:?SetMaxItem@CItemHolder@@QAEXH@Z
0x100a8d80:?SetMaxLine@CMultiLineStatic@@QAEXH@Z
0x10069a40:?SetMaxTransparency@CREDialog@@QAEXM@Z
0x100a2d20:?SetMenuHandler@CTYMenu@@QAEXPAVCTYMenuHandler@@@Z
0x100a2d60:?SetMenuItemHeight@CTYMenu@@QAEXH@Z
0x1009ed40:?SetMesh@ModelFrame@@QAEXPAVMesh@@_N@Z
0x101218c0:?SetMeshParams@Shader@@QAEX_N00@Z
0x1015d320:?SetMeshState@TerrainNode@@QAEXH@Z
0x1006abd0:?SetMessageBoxWindow@GUISystem@@QAEXPAVCGUIWindow@@@Z
0x101494f0:?SetMessageSize@CDlgMgr@@QAEXHH@Z
0x101514a0:?SetMiddlePic@CPaster@@QAEXABV?$basic_string@_WU?$char_traits@_W@std@@V?$allocator@_W@2@@std@@PAUtagRECT@@@Z
0x100a2be0:?SetMiddlePoint@CTYVStatic@@QAEXHH@Z
0x1006a940:?SetMinCustomText@CRESlider@@QAEXABV?$basic_string@_WU?$char_traits@_W@std@@V?$allocator@_W@2@@std@@@Z
0x1012e260:?SetMinutesPerGameSecond@SkyController@@QAEXM@Z
0x100b2990:?SetModelRotation@C3DModel@@QAEXM@Z
0x1006b750:?SetMotion@CTYDialog@@QAEXH@Z
0x1006b7f0:?SetMotionSpeed@CTYDialog@@QAEXM@Z
0x1006b7d0:?SetMotionTime@CTYDialog@@QAEXM@Z
0x10069b60:?SetMouseEnterSound@CREControl@@UAEXPAVSound@@@Z
0x10069b60:?SetMouseEnterSound@CREControl@@UAEXPBD@Z
0x10069b60:?SetMouseLeaveSound@CREControl@@UAEXPAVSound@@@Z
0x10069b60:?SetMouseLeaveSound@CREControl@@UAEXPBD@Z
0x1006b980:?SetMove@CMultiLineStatic@@QAEX_N@Z
0x1006b990:?SetMoveSpeed@CMultiLineStatic@@QAEXM@Z
0x10050740:?SetNULLOnDeath@Actor@@QAEXPAV1@PAPAV1@@Z
0x100a30d0:?SetNextDialog@CREDialog@@QAEXPAV1@@Z
0x100ee650:?SetNodeInfluence@StaticModel@@QAEXPAXAAVMatrix@@M@Z
0x10120930:?SetNonInstancedData@Shader@@QAEXPAUD3DXMATRIX@@@Z
0x100b1340:?SetNormalFont@CREListBox@@QAEXI@Z
0x100b1380:?SetNormalFontColor@CREListBox@@QAEXK@Z
0x100a6870:?SetNumericEdit@CRENumericButton@@UAEXPAVCREControl@@@Z
0x100a6a30:?SetNumericEdit@CRENumericEditBox@@UAEXPAVCREControl@@@Z
0x10016c60:?SetOcclusionTesting@RenderDevice@@UAEX_N@Z
0x10121350:?SetOldWVP@Shader@@QAEXABVMatrix@@@Z
0x100190d0:?SetOwner@Event@@QAEXI@Z
0x1006a490:?SetPageSize@CREHScrollBar@@QAEXH@Z
0x1006a3d0:?SetPageSize@CREScrollBar@@QAEXH@Z
0x100507a0:?SetParent@Actor@@QAEXPAV1@@Z
0x100a2d10:?SetParentDlg@CTYMenu@@QAEXPAVCTYDialog@@@Z
0x1006bb20:?SetParentUI@CTYChatIME@@QAEXPAVCTYDialog@@@Z
0x10018360:?SetPartitionHeight@World@@QAEXM@Z
0x100a29a0:?SetPasteDist@CProgressBar@@QAEXH@Z
0x100c3910:?SetPic@CHotZonePic@@QAEXABV?$basic_string@DU?$char_traits@D@std@@V?$allocator@D@2@@std@@PAUtagRECT@@@Z
0x10157970:?SetPlaySound@CProgressBar@@QAEX_N@Z
0x10018f80:?SetPlaysKeyFrames@Light@@QAEX_N@Z
0x1006bbe0:?SetPrintStats@NxPhysics@@QAEX_N@Z
0x100a29d0:?SetProgressBarColor@CProgressBar@@QAEXABK@Z
0x101503c0:?SetProgressBarRect@CProgressBar@@QAEXPBUtagRECT@@@Z
0x10150a30:?SetProgressPic@CProgressBTN@@QAEXABV?$basic_string@DU?$char_traits@D@std@@V?$allocator@D@2@@std@@PAUtagRECT@@@Z
0x101502f0:?SetProgressPic@CProgressBar@@QAEXABV?$basic_string@DU?$char_traits@D@std@@V?$allocator@D@2@@std@@PAUtagRECT@@@Z
0x100a2a90:?SetRange@CProgressBTN@@QAEXMM@Z
0x100a28a0:?SetRange@CProgressBar@@QAEXMM@Z
0x100aac90:?SetRange@CRESlider@@QAEXHH@Z
0x100dd770:?SetRange@Light@@QAEXM@Z
0x100a2ad0:?SetRateColor@CProgressBTN@@QAEXABUD3DXCOLOR@@@Z
0x100a2900:?SetRateColor@CProgressBar@@QAEXABUD3DXCOLOR@@@Z
0x100698f0:?SetRefreshTime@CREDialog@@SAXM@Z
0x100a2800:?SetRemoveOnPickup@CItemHolder@@QAEX_N@Z
0x1006b5b0:?SetRenderAll@C3DModel@@QAEX_N@Z
0x100645b0:?SetRenderAll@TextureCamera@@QAEX_N@Z
0x100a25c0:?SetRenderBorder@CControlBox@@QAEX_N@Z
0x1006bc10:?SetRenderCallback@RenderDevice@@UAEXP6GXXZ@Z
0x10121b80:?SetRenderTarget@Shader@@QAEXPAX@Z
0x1001c440:?SetRequestMessage@Event@@QAEXAAV?$Smart_Ptr@VMessage@1Outpop@@@Utility@Outpop@@@Z
0x1006bc10:?SetResizeCallback@GUISystem@@UAEXP6AXHH@Z@Z
0x100a3610:?SetRespondRect@CREButton@@QAEXPAUtagRECT@@@Z
0x100a2950:?SetReverse@CMultiLineStatic@@QAEX_N@Z
0x1006b950:?SetReverse@CProgressBar@@QAEX_N@Z
0x100a6040:?SetRotate@CREElement@@QAEXM@Z
0x1006b5a0:?SetRotation@C3DModel@@QAEX_N@Z
0x10140e30:?SetRotation@NxPhysics@@QAEXPAVNxActor@@ABVMatrix@@@Z
0x1006b590:?SetRotationSpeed@C3DModel@@QAEXM@Z
0x10064680:?SetScaling@Canvas@@UAEXMM@Z
0x1006ae30:?SetScrollBar@CControlBoxList@@QAEXPAVCREScrollBar@@@Z
0x100a8e70:?SetScrollBar@CMultiLineStatic@@QAEXPAVCREScrollBar@@@Z
0x10069740:?SetScrollBar@CREListCtrl@@QAEXPAVCREScrollBar@@@Z
0x1006a870:?SetScrollBarWidth@CREComboBox@@QAEXH@Z
0x1006a580:?SetScrollBarWidth@CREListBox@@QAEXH@Z
0x1006a580:?SetScrollBarWidth@CREPropertiesList@@QAEXH@Z
0x1006ae20:?SetScrollStep@CControlBoxList@@QAEXH@Z
0x100a26a0:?SetScrollType@CControlBoxList@@QAEXW4SCROLL_TYPE@1@@Z
0x100ae290:?SetSelRange@CMultiLineEB@@IAEXHHHH@Z
0x10069e70:?SetSelected@CREControl@@QAEX_N@Z
0x1006aa80:?SetSelectedBackColor@CREEditBox@@QAEXK@Z
0x100aa8b0:?SetSelectedByData@CREComboBox@@QAEJPAX@Z
0x100aa7f0:?SetSelectedByIndex@CREComboBox@@QAEJI@Z
0x100aa840:?SetSelectedByText@CREComboBox@@QAEJPB_W@Z
0x100b1360:?SetSelectedFont@CREListBox@@QAEXI@Z
0x100b13a0:?SetSelectedFontColor@CREListBox@@QAEXK@Z
0x100a3a90:?SetSelectedItemFont@CREComboBox@@UAEXI@Z
0x100a3ac0:?SetSelectedItemFontColor@CREComboBox@@UAEXHK@Z
0x10069b60:?SetSelectedSound@CREControl@@UAEXPAVSound@@@Z
0x10069b60:?SetSelectedSound@CREControl@@UAEXPBD@Z
0x1006aa70:?SetSelectedTextColor@CREEditBox@@QAEXK@Z
0x100db0c0:?SetSensitivity@Input@@QAEXM@Z
0x100a26a0:?SetShadowColor@CPictureLabel@@QAEXK@Z
0x1006ae40:?SetShadowEnable@CPictureLabel@@QAEX_N@Z
0x10016c70:?SetShadows@RenderDevice@@UAEX_N@Z
0x101209d0:?SetSharedBool@ShaderManager@@QAEXV?$basic_string@DU?$char_traits@D@std@@V?$allocator@D@2@@std@@_N@Z
0x10120ab0:?SetSharedInt@ShaderManager@@QAEXV?$basic_string@DU?$char_traits@D@std@@V?$allocator@D@2@@std@@H@Z
0x100a29f0:?SetShowRenderDefaultBG@CProgressBar@@QAEX_N@Z
0x1006b9a0:?SetShowType@CMultiLineStatic@@QAEXH@Z
0x100a2980:?SetShowType@CProgressBar@@QAEXW4PicType@1@@Z
0x100ae200:?SetSize@CMultiLineEB@@UAEXHH@Z
0x100af340:?SetSize@CMultiLineStatic@@UAEXHH@Z
0x10069de0:?SetSize@CREControl@@UAEXHH@Z
0x100697d0:?SetSize@CREDialog@@QAEXHH@Z
0x101215e0:?SetSkinning@Shader@@QAEXHHPAUD3DXMATRIX@@@Z
0x10064590:?SetSmapling@TextureCamera@@QAEXM@Z
0x10150500:?SetSound@CProgressBar@@QAEXABV?$basic_string@DU?$char_traits@D@std@@V?$allocator@D@2@@std@@@Z
0x100a2930:?SetSound@CProgressBar@@QAEXPAVSound@@@Z
0x1006aae0:?SetSpacing@CREEditBox@@QAEXH@Z
0x10064570:?SetState@TextureCamera@@QAEXW4TCAM_STATE@@@Z
0x100699f0:?SetStaticControlFocus@CREDialog@@SAXPAVCREControl@@@Z
0x10069a00:?SetStaticControlLast@CREDialog@@SAXPAVCREControl@@@Z
0x10069a10:?SetStaticControlPressed@CREDialog@@SAXPAVCREControl@@@Z
0x1006a570:?SetStyle@CREListBox@@QAEXK@Z
0x1006a570:?SetStyle@CREPropertiesList@@QAEXK@Z
0x100aba50:?SetTab@CRETabPages@@UAEXHPB_WHH@Z
0x100aba10:?SetTabPageHeadPic@CRETabPages@@UAEXHABV?$basic_string@DU?$char_traits@D@std@@V?$allocator@D@2@@std@@PAUtagRECT@@@Z
0x100ab9d0:?SetTabPagePic@CRETabPages@@UAEXHABV?$basic_string@DU?$char_traits@D@std@@V?$allocator@D@2@@std@@PAUtagRECT@@@Z
0x100e5360:?SetTechnique@Material@@QAEXV?$basic_string@DU?$char_traits@D@std@@V?$allocator@D@2@@std@@@Z
0x101206e0:?SetTechnique@Shader@@QAEXQBD@Z
0x10018780:?SetTechnique@Shader@@QAEXV?$basic_string@DU?$char_traits@D@std@@V?$allocator@D@2@@std@@@Z
0x100e5d70:?SetTechniqueSimple@Material@@QAEXV?$basic_string@DU?$char_traits@D@std@@V?$allocator@D@2@@std@@@Z
0x1015e170:?SetTerrain@SurfaceNode@@QAEXABV?$basic_string@DU?$char_traits@D@std@@V?$allocator@D@2@@std@@@Z
0x100ac3a0:?SetText@CREEditBox@@QAEXPB_W_N@Z
0x100a32c0:?SetText@CREStatic@@QAEJPB_W@Z
0x100a56d0:?SetText@CUniBuffer@CREEditBox@@QAE_NPB_W@Z
0x100a3720:?SetTextColor@CREButton@@UAEXHKH@Z
0x1006aa60:?SetTextColor@CREEditBox@@QAEXK@Z
0x100a3320:?SetTextColor@CREStatic@@UAEXHKH@Z
0x100acbe0:?SetTextFloatArray@CREEditBox@@QAEXPBMH@Z
0x100ac100:?SetTextFont@CREEditBox@@QAEXI@Z
0x100c14a0:?SetTextFont@CREListCtrl@@QAEXPB_WH_N@Z
0x100a32f0:?SetTextFont@CREStatic@@UAEXI@Z
0x100bb370:?SetTextFont@CREStatic@@UAEXPB_WJ_N@Z
0x100ab700:?SetTextFormat@CREListBox@@UAEXK@Z
0x100aa120:?SetTextFormat@CREStatic@@UAEXK@Z
0x1006b950:?SetTextRightAlignment@CMultiLineStatic@@QAEX_N@Z
0x100b5600:?SetTexture@CREDialog@@QAEJIPB_W@Z
0x100a5f30:?SetTexture@CREElement@@QAEXIPBUtagRECT@@K@Z
0x100a3790:?SetTexture@CREPictureButton@@UAEXHPAVTexture@@PAUtagRECT@@@Z
0x100a37d0:?SetTextureColor@CREPictureButton@@UAEXHK@Z
0x100a64f0:?SetTextureRect@CPictureLabel@@QAEXUtagRECT@@@Z
0x100190b0:?SetTimeStamp@Event@@QAEXM@Z
0x100a7a00:?SetToBottom@CTYDialog@@QAEXXZ
0x100d6d80:?SetToBottom@GUISystem@@UAEXPAVCGUIWindow@@@Z
0x1006a470:?SetTrackPos@CREHScrollBar@@QAEXH@Z
0x1006a3a0:?SetTrackPos@CREScrollBar@@QAEXH@Z
0x100ab4e0:?SetTrackRange@CREHScrollBar@@QAEXHH@Z
0x100ab130:?SetTrackRange@CREScrollBar@@QAEXHH@Z
0x100645f0:?SetTransfom@Canvas@@UAEXAAVMatrix@@@Z
0x1004dd80:?SetTransform@Actor@@UAEXABVMatrix@@@Z
0x1004ddb0:?SetTransform@Actor@@UAEXABVMatrix@@ABVVector@@@Z
0x10109ab0:?SetTransform@ActorGroup@@QAEXPAVVector@@PAVMatrix@@@Z
0x100f1b10:?SetTransform@Model@@UAEXAAVMatrix@@AAVVector@@@Z
0x100f1b00:?SetTransform@Model@@UAEXABVMatrix@@@Z
0x100ee2f0:?SetTransform@StaticModel@@UAEXAAVMatrix@@AAVVector@@@Z
0x100eee60:?SetTransform@StaticModel@@UAEXABVMatrix@@@Z
0x1004df10:?SetTransformation@Prefab@@QAEXAAVMatrix@@@Z
0x10069f00:?SetTransparency@CREControl@@QAEXM@Z
0x10120e60:?SetUnEmissive@Shader@@QAEXXZ
0x1006b1b0:?SetUnitScaleFloat@CRENumericEdit@@QAEXM@Z
0x10121c90:?SetUnlit@Shader@@QAEXXZ
0x10018fc0:?SetUpVector@Light@@QAEXAAVVector@@@Z
0x100a2b60:?SetUseColor@CSeperateLine@@QAEX_N@Z
0x101211e0:?SetUsedTextures@ShaderManager@@IAEXK@Z
0x100ee980:?SetUserBBox@StaticModel@@QAEXABVBBox@@@Z
0x10069e50:?SetUserData2@CREControl@@QAEXPAX@Z
0x10069e30:?SetUserData@CREControl@@QAEXPAX@Z
0x10069940:?SetUserData@CREDialog@@QAEXPAX@Z
0x1006a920:?SetValue@CRESlider@@QAEXH@Z
0x100ade20:?SetValueFloat@CRENumericEdit@@UAEXM@Z
0x100add90:?SetValueInt@CRENumericEdit@@UAEXH@Z
0x100a3bc0:?SetValueInternal@CRESlider@@IAEXH_N@Z
0x10120f40:?SetVar@Shader@@QAEXAAUShaderVar@@@Z
0x10121330:?SetVar@Shader@@QAEXAAUShaderVar@@PAX@Z
0x100191d0:?SetVersion@Engine@@QAEXABV?$basic_string@DU?$char_traits@D@std@@V?$allocator@D@2@@std@@@Z
0x100a2e40:?SetVertical@CPaster@@QAEX_N@Z
0x100a2950:?SetVertical@CProgressBar@@QAEX_N@Z
0x1006ad70:?SetVerticalCand@CREIMEEditBox@@QAEX_N@Z
0x10109a30:?SetVisible@ActorGroup@@QAEX_N@Z
0x100d5710:?SetVisible@CGUIWindow@@QAEX_N@Z
0x100ad860:?SetVisible@CREContainer@@UAEX_N@Z
0x10069d40:?SetVisible@CREControl@@UAEX_N@Z
0x100182a0:?SetVisibleDistanceBias@World@@QAEXM@Z
0x1006b710:?SetVisibleOnStart@CTYDialog@@QAEX_N@Z
0x1006b970:?SetVolume@CProgressBar@@QAEXM@Z
0x1009c0e0:?SetVolume@CVideoManager@@QAEXHH@Z
0x100a2c00:?SetWordDist@CTYVStatic@@QAEXH@Z
0x1004e860:?SetWorld@Actor@@UAEXPAVWorld@@@Z
0x10124d90:?SetWorld@Shader@@QAEXABVMatrix@@@Z
0x10018c50:?SetWorldWarp@ShaderManager@@QAEXAAVMatrix@@@Z
0x10069ee0:?SetZOrder@CREControl@@QAEXH@Z
0x100a9030:?SetZoneRect@CHotZonePic@@IAE_NAAUtagRECT@@00PAU2@1_N@Z
0x100a7f90:?SetupImeApi@CMLIMEEditBox@@KAXXZ
0x100a4a40:?SetupImeApi@CREIMEEditBox@@KAXXZ
0x100a2730:?ShowBG@CItemHolder@@QAEX_N@Z
0x10149d00:?ShowDialog@CDlgMgr@@QAE_NH_N0M@Z
0x100aef10:?ShowDialog@CTYDialog@@QAE_N_NM@Z
0x1006ab40:?ShowEdge@CREEditBox@@QAEX_N@Z
0x100af500:?ShowHoverPic@CHotZonePic@@QAE_NH_N@Z
0x100a3e60:?ShowItem@CREHScrollBar@@QAEXH@Z
0x100a3ce0:?ShowItem@CREScrollBar@@QAEXH@Z
0x10150d40:?ShowMenu@CTYMenu@@QAEXHH@Z
0x10018350:?ShowPartition@World@@QAEX_N@Z
0x100a8e90:?ShowScroll@CMultiLineStatic@@QAEX_N@Z
0x10056620:?ShutDown@BatchRenderer@@QAEXXZ
0x10171b80:?Shutdown@AsyncLoader@@QAE_NXZ
0x1007f2e0:?Shutdown@Editor@@QAEXXZ
0x10096550:?Shutdown@Engine@@QAEXXZ
0x1016f6c0:?Shutdown@EventAttemper@@UAE_NXZ
0x100d6440:?Shutdown@GUISystem@@UAEXXZ
0x100dca50:?Shutdown@Input@@UAEXXZ
0x100e78e0:?Shutdown@MaterialManager@@QAEXXZ
0x101459a0:?Shutdown@NxPhysics@@QAEXXZ
0x10121da0:?Shutdown@ShaderManager@@QAEXXZ
0x100647a0:?SimpleFanObject@Canvas@@UAEXHPAXH@Z
0x10064990:?SimpleObject@Canvas@@UAEXHPAXH0H_N11@Z
0x10064690:?SimpleObject@Canvas@@UAEXHPAXH_N@Z
0x10064880:?SimpleObject_Shaded@Canvas@@UAEXHPAXH_N11@Z
0x10067240:?SphereWireframe@Canvas@@UAEXAAVVector@@MK@Z
0x100eb8b0:?Split@MeshOps@@UAE_NPAVMesh@@HHH@Z
0x1009fc50:?SplitFacesByBox@FXManager@@SAXAAVBBox@@AAV?$vector@UFace@@V?$allocator@UFace@@@std@@@std@@1@Z
0x10080a00:?SplitFrame@Editor@@QAEXPAUModelFrame@@@Z
0x10082490:?SplitModelFrames@Editor@@QAEXXZ
0x1007e460:?Start@CRETimer@@QAEXXZ
0x1007e380:?StartMiniTimer@CRETimer@@QAEXXZ
0x102857c8:?StaticLightsRendered@@3HA
0x10172700:?StaticLoaderProc@AsyncLoader@@SGIPAX@Z
0x100b4480:?StaticMsgProc@CMLIMEEditBox@@SA_NIIJ@Z
0x100b3960:?StaticMsgProc@CREIMEEditBox@@SA_NIIJ@Z
0x100a7ad0:?StaticOnCreateDevice@CMLIMEEditBox@@SAJXZ
0x100a45c0:?StaticOnCreateDevice@CREIMEEditBox@@SAJXZ
0x1007e4c0:?Stop@CRETimer@@QAEXXZ
0x1009c010:?Stop@CVideoManager@@QAE_NH@Z
0x1009c140:?StopAll@CVideoManager@@QAEXXZ
0x1007e3d0:?StopMiniTimer@CRETimer@@QAEMXZ
0x100b2be0:?StopMotion@CTYDialog@@UAEXH@Z
0x1009ee30:?StripLODs@ModelFrame@@QAEXH@Z
0x10171570:?SubmitLoadActorGroup@AsyncLoader@@QAEHABV?$basic_string@DU?$char_traits@D@std@@V?$allocator@D@2@@std@@PAVAsyncLoaderReport@@@Z
0x10175180:?SubmitLoadAnimation@AsyncLoader@@QAEHABV?$basic_string@DU?$char_traits@D@std@@V?$allocator@D@2@@std@@0_NPAV?$vector@V?$basic_string@DU?$char_traits@D@std@@V?$allocator@D@2@@std@@V?$allocator@V?$basic_string@DU?$char_traits@D@std@@V?$allocator@D@2@@std@@@2@@3@PAVAsyncLoaderReport@@@Z
0x10174d80:?SubmitLoadModel@AsyncLoader@@QAEHABV?$basic_string@DU?$char_traits@D@std@@V?$allocator@D@2@@std@@PAVAsyncLoaderReport@@@Z
0x10171560:?SubmitLoadSound@AsyncLoader@@QAEHABV?$basic_string@DU?$char_traits@D@std@@V?$allocator@D@2@@std@@PAVAsyncLoaderReport@@@Z
0x10175470:?SubmitLoadTexture@AsyncLoader@@QAEHABV?$basic_string@DU?$char_traits@D@std@@V?$allocator@D@2@@std@@PAVAsyncLoaderReport@@@Z
0x10172570:?SubmitLoadWorldNode@AsyncLoader@@QAEHABV?$basic_string@DU?$char_traits@D@std@@V?$allocator@D@2@@std@@PAVAsyncLoaderReport@@@Z
0x10016c90:?Supports3DC@RenderDevice@@UAE_NXZ
0x10016ca0:?SupportsPRT@RenderDevice@@UAE_NXZ
0x100abd10:?TabPressed@CRETabPages@@UAEXPAVCREab@@@Z
0x1000ac80:?TestLine@Gizmo@@QAE_NAAVVector@@0@Z
0x100654b0:?TextCenteredf@Canvas@@UAAXW4FONT_TYPE@@KHHHHPBDZZ
0x100656a0:?TextCenteredf@Canvas@@UAAXW4FONT_TYPE@@KHHHHPB_WZZ
0x10065100:?Textf@Canvas@@UAAXW4FONT_TYPE@@KMMPBDZZ
0x100652d0:?Textf@Canvas@@UAAXW4FONT_TYPE@@KMMPB_WZZ
0x1004d7e0:?Tick@Actor@@UAEXXZ
0x100546d0:?Tick@ActorInstancer@@UAEXXZ
0x100b27b0:?Tick@C3DModel@@UAEXXZ
0x10151db0:?Tick@CControlBox@@UAEXXZ
0x10151e30:?Tick@CControlBoxList@@UAEXXZ
0x100ae420:?Tick@CMultiLineEB@@UAEXXZ
0x100a8f50:?Tick@CMultiLineStatic@@UAEXXZ
0x10150b00:?Tick@CProgressBTN@@UAEXXZ
0x101509e0:?Tick@CProgressBar@@UAEXXZ
0x1001cc20:?Tick@CREControl@@UAEXXZ
0x100a2fe0:?Tick@CREDialog@@UAEXM@Z
0x100a7a60:?Tick@CTYDialog@@UAEXM@Z
0x10076580:?Tick@ClothSimulator@@QAEXPAVCamera@@@Z
0x1009fbd0:?Tick@FXManager@@QAEXPAVFXSystem@@@Z
0x1009fdd0:?Tick@FXManager@@QAEXPAVWorld@@@Z
0x1000aad0:?Tick@FXSystem@@UAEXXZ
0x100da0e0:?Tick@IndoorVolume@@UAEXXZ
0x100df7d0:?Tick@Light@@UAEXXZ
0x1004e070:?Tick@Prefab@@UAEXXZ
0x10116a40:?Tick@PrefabInstance@@UAEXXZ
0x10118dc0:?Tick@Script@@QAEXXZ
0x1011fb60:?Tick@ShaderManager@@QAEXXZ
0x1012e1d0:?Tick@SkyController@@UAEXXZ
0x1015c210:?Tick@SubareaManager@@QAEXXZ
0x10169700:?Tick@Terrain@@UAEXXZ
0x1015d3e0:?Tick@TerrainNode@@UAEXXZ
0x10138880:?Tick@World@@QAEXXZ
0x10091d50:?To2D@Gizmo@@QAE?AVVector@@AAV2@@Z
0x10091d80:?To2DFixedFov@Gizmo@@QAE?AVVector@@AAV2@@Z
0x10101040:?ToMatrix@NxHelper@@SA?AVMatrix@@ABVNxMat33@@@Z
0x10101160:?ToMatrix@NxHelper@@SA?AVMatrix@@ABVNxMat34@@@Z
0x10100b90:?ToNxMat33@NxHelper@@SA?AVNxMat33@@ABVMatrix@@@Z
0x10100c20:?ToNxMat34@NxHelper@@SA?AVNxMat34@@ABVMatrix@@@Z
0x10100df0:?ToNxQuat@NxHelper@@SA?AVNxQuat@@ABVNxVec3@@@Z
0x10100f20:?ToNxQuat@NxHelper@@SA?AVNxQuat@@ABVVector@@@Z
0x10100cc0:?ToNxVec3@NxHelper@@SA?AVNxVec3@@ABVNxQuat@@@Z
0x10100b70:?ToNxVec3@NxHelper@@SA?AVNxVec3@@ABVVector@@@Z
0x10016e20:?ToString@EditorVar@@SA?AV?$basic_string@DU?$char_traits@D@std@@V?$allocator@D@2@@std@@W4Type@1@@Z
0x10100dc0:?ToVector@NxHelper@@SA?AVVector@@ABVNxQuat@@@Z
0x10100ca0:?ToVector@NxHelper@@SA?AVVector@@ABVNxVec3@@@Z
0x101539b0:?ToggleSelectCell@CItemHolder@@QAEXHH@Z
0x100a78d0:?ToggleVisible@CTYDialog@@QAEXXZ
0x1004d790:?Touched@Actor@@UAEXPAV1@PAUCollisionInfo@@@Z
0x100f2260:?TransitionToAnimation@Model@@QAEMHMMMM@Z
0x100a8050:?TruncateCompString@CMLIMEEditBox@@IAEX_NH@Z
0x100a4ad0:?TruncateCompString@CREIMEEditBox@@IAEX_NH@Z
0x100e2980:?Tweakable@Material@@AAE_NPBD@Z
0x1008c320:?UnFreezeActors@Editor@@QAEXV?$vector@PAVActor@@V?$allocator@PAVActor@@@std@@@std@@@Z
0x1008c260:?UnHideActors@Editor@@QAEXV?$vector@PAVActor@@V?$allocator@PAVActor@@@std@@@std@@@Z
0x100af440:?UnHighLightAllHotZone@CHotZonePic@@QAEXXZ
0x1013e1c0:?UnLoad@World@@QAEXXZ
0x1013db50:?UnLoadWorld@World@@AAEXXZ
0x100c5470:?UnNestToDialog@CTYDialog@@QAEXH@Z
0x10017a50:?UnPause@Model@@QAEXXZ
0x100f5230:?UnRegist@AnimationSet@@SA_NPAV1@@Z
0x10082740:?UnSelectActor@Editor@@QAEXPAVActor@@@Z
0x10082690:?UnSelectAll@Editor@@QAEXXZ
0x10153950:?UnSelectCell@CItemHolder@@QAEXHH@Z
0x10136110:?UnSet@Texture@@QAEXH@Z
0x1004d7a0:?UnTouched@Actor@@UAEXPAV1@@Z
0x101218a0:?UnbindHDRTarget@Shader@@QAEXXZ
0x100a8c30:?UninitializeImm@CMLIMEEditBox@@CAXXZ
0x100a5c40:?UninitializeImm@CREIMEEditBox@@CAXXZ
0x100a53a0:?UninitializeUniscribe@CUniBuffer@CREEditBox@@CAHXZ
0x1009c230:?Unload@CVideoManager@@QAEXH@Z
0x1007e880:?Unload@DynLib@@QAEXXZ
0x1009c680:?UnloadAll@CVideoManager@@QAEXXZ
0x100f29d0:?UnloadAllAnimations@Model@@QAEXXZ
0x10016b40:?UnlockMouseInput@Input@@QAEXXZ
0x1007f3a0:?Unproject@Editor@@QAE?AVVector@@V2@@Z
0x10054c20:?Update3DParameters@SoundEmitter@@UAEXAAVVector@@0M@Z
0x10173030:?Update@AsyncLoader@@QAEXM@Z
0x10063980:?Update@Camera@@QAEXXZ
0x1008ce00:?Update@Editor@@QAEXPAVWorld@@@Z
0x100958f0:?Update@Engine@@QAEXPAVCamera@@@Z
0x1016ed50:?Update@EventAttemper@@UAEXM@Z
0x100dae10:?Update@Input@@UAEXXZ
0x100f1c50:?Update@Model@@UAEXXZ
0x10001b30:?Update@Profiler@@QAEXXZ
0x100ee340:?Update@StaticModel@@UAEXXZ
0x10080c60:?UpdateCamera@Editor@@QAEXXZ
0x1009dd00:?UpdateChildrenMatrices@ModelFrame@@QAEXXZ
0x100b3c70:?UpdateControlKeyName@CInputBox@@AAEXXZ
0x101177c0:?UpdateDynamicPRT@World@@QAEXPAVMesh@@AAVMatrix@@AAV?$vector@PAVLight@@V?$allocator@PAVLight@@@std@@@std@@@Z
0x1012d370:?UpdateFades@SkyController@@AAEXM@Z
0x10117a10:?UpdateGlobalPRT@World@@IAEXXZ
0x10162160:?UpdateIndex@TerrainNode@@QAE_NXZ
0x1009db20:?UpdateMatrices@ModelFrame@@QAEXVMatrix@@@Z
0x1015cfc0:?UpdateModifyRect@Terrain@@QAEXAAUtagRECT@@@Z
0x10092c60:?UpdateMovement@Gizmo@@IAEXXZ
0x100e2810:?UpdatePhysicsMaterial@Material@@QAEXXZ
0x100a7af0:?UpdateRects@CMLIMEEditBox@@UAEXXZ
0x100a6f90:?UpdateRects@CPasswordEB@@UAEXXZ
0x100aa150:?UpdateRects@CRECheckBox@@UAEXXZ
0x100bc4f0:?UpdateRects@CREComboBox@@UAEXXZ
0x100a31b0:?UpdateRects@CREControl@@MAEXXZ
0x100a4220:?UpdateRects@CREEditBox@@UAEXXZ
0x100ab190:?UpdateRects@CREHScrollBar@@UAEXXZ
0x100a45e0:?UpdateRects@CREIMEEditBox@@UAEXXZ
0x100bd330:?UpdateRects@CREListBox@@UAEXXZ
0x100a6e20:?UpdateRects@CRENumericEdit@@MAEXXZ
0x100bda20:?UpdateRects@CREPropertiesList@@UAEXXZ
0x100aad10:?UpdateRects@CREScrollBar@@UAEXXZ
0x100aa930:?UpdateRects@CRESlider@@UAEXXZ
0x100b13c0:?UpdateRects@CRETabPages@@MAEXXZ
0x10121160:?UpdateRenderSettings@ShaderManager@@QAEXXZ
0x10140c10:?UpdateScene@NxPhysics@@QAEX_N@Z
0x10092b40:?UpdateScreenSpaceMatrices@Gizmo@@IAEXAAVCamera@@@Z
0x10076540:?UpdateSphere@ClothSimulator@@QAEXPAXAAVVector@@M@Z
0x100e35c0:?UpdateStates@Material@@QAEXXZ
0x10116fb0:?UpdateStaticPRT@World@@QAEXPAVMesh@@@Z
0x10109980:?UpdateTexture@Precacher@@SA_NPAVTexture@@V?$basic_string@DU?$char_traits@D@std@@V?$allocator@D@2@@std@@@Z
0x100a3d90:?UpdateThumbRect@CREHScrollBar@@IAEXXZ
0x100a3c30:?UpdateThumbRect@CREScrollBar@@IAEXXZ
0x100a6bd0:?UpdateValue@CRENumericEdit@@UAEXPB_W_N@Z
0x1015edf0:?UpdateVertex@TerrainNode@@QAE_N_N00000VVector2@@1@Z
0x100eeba0:?UpdateWorldBBox@StaticModel@@QAEXXZ
0x1009dd60:?UseCollisionMesh@ModelFrame@@QAE_NXZ
0x1006a780:?UseControlSoundScheme@CREComboBox@@UAEXPAVCREControl@@@Z
0x10069bc0:?UseControlSoundScheme@CREControl@@UAEXPAV1@@Z
0x1006b3e0:?UseCustomPic@CPicCheckBox@@QAEX_N@Z
0x1006bbd0:?UseModuleTags@Engine@@QAE_NXZ
0x101bb310:?UsesLightArray@Shader@@2HB
0x100954b0:?ValidateSerial@Engine@@QAE_NV?$basic_string@DU?$char_traits@D@std@@V?$allocator@D@2@@std@@@Z
0x100a3b60:?ValueFromPos@CRESlider@@IAEHH@Z
0x1006b1f0:?ValueMax@CRENumericEdit@@QAE_NXZ
0x1006b230:?ValueMin@CRENumericEdit@@QAE_NXZ
0x101bb2f4:?WATER_POS_INNER@Actor@@2HB
0x101bb2f0:?WATER_POS_OUTER@Actor@@2HB
0x101bb2f8:?WATER_POS_UPPER@Actor@@2HB
0x10097800:?Warning@@YAXPBDZZ
0x100d5ec0:?WindowOnPoint@GUISystem@@UAEPAVCGUIWindow@@ABUtagPOINT@@@Z
0x10149780:?WriteCommonProp@CDlgMgr@@IAE_NPAVDOMElement@xercesc_2_5@@PAVCREControl@@@Z
0x1014c730:?WriteControl@CDlgMgr@@IAE_NPAVDOMElement@xercesc_2_5@@PAVCREControl@@@Z
0x1014d460:?WriteDlgData@CDlgMgr@@IAE_NPAVDOMNode@xercesc_2_5@@PAVCTYDialog@@@Z
0x100405a0:?WriteMaterials@MaterialSerializer@@AAEXPAVDOMElement@xercesc_2_5@@@Z
0x10014730:?WriteMeshBinary@ISave@@QAEXV?$basic_string@DU?$char_traits@D@std@@V?$allocator@D@2@@std@@AAPAUModelFrame@@@Z
0x10013f40:?WriteMeshPart@ISave@@QAEXPAVMesh@@PAU_iobuf@@H@Z
0x1004abc0:?WriteParameter@XMLSystem@@QAEXPADW4Type@EditorVar@@PAEPAVDOMNode@xercesc_2_5@@@Z
0x100a57f0:?XtoCP@CUniBuffer@CREEditBox@@QAEJHPAH0@Z
0x1002adf0:?_Assign_n@?$vector@PAUModelFrame@@V?$allocator@PAUModelFrame@@@std@@@std@@IAEXIABQAUModelFrame@@@Z
0x1002aba0:?_Assign_n@?$vector@PAVActor@@V?$allocator@PAVActor@@@std@@@std@@IAEXIABQAVActor@@@Z
0x1002b4e0:?_Assign_n@?$vector@PAVEditorVar@@V?$allocator@PAVEditorVar@@@std@@@std@@IAEXIABQAVEditorVar@@@Z
0x1002b6a0:?_Assign_n@?$vector@PAVMaterial@@V?$allocator@PAVMaterial@@@std@@@std@@IAEXIABQAVMaterial@@@Z
0x1002b290:?_Assign_n@?$vector@PAVMatrix@@V?$allocator@PAVMatrix@@@std@@@std@@IAEXIABQAVMatrix@@@Z
0x1002b040:?_Assign_n@?$vector@PAVModel@@V?$allocator@PAVModel@@@std@@@std@@IAEXIABQAVModel@@@Z
0x10026100:?_Assign_n@?$vector@UAttributeRange@@V?$allocator@UAttributeRange@@@std@@@std@@IAEXIABUAttributeRange@@@Z
0x1002c3e0:?_Assign_n@?$vector@UVFormat@VertexManager@@V?$allocator@UVFormat@VertexManager@@@std@@@std@@IAEXIABUVFormat@VertexManager@@@Z
0x1002b990:?_Assign_n@?$vector@VBBox@@V?$allocator@VBBox@@@std@@@std@@IAEXIABVBBox@@@Z
0x1002be20:?_Assign_n@?$vector@VEditorVar@@V?$allocator@VEditorVar@@@std@@@std@@IAEXIABVEditorVar@@@Z
0x1001cd70:?_Buy@?$vector@PAUModelFrame@@V?$allocator@PAUModelFrame@@@std@@@std@@IAE_NI@Z
0x1000bf50:?_Buy@?$vector@PAVActor@@V?$allocator@PAVActor@@@std@@@std@@IAE_NI@Z
0x1001cfc0:?_Buy@?$vector@PAVEditorVar@@V?$allocator@PAVEditorVar@@@std@@@std@@IAE_NI@Z
0x1000c210:?_Buy@?$vector@PAVMaterial@@V?$allocator@PAVMaterial@@@std@@@std@@IAE_NI@Z
0x1001cee0:?_Buy@?$vector@PAVMatrix@@V?$allocator@PAVMatrix@@@std@@@std@@IAE_NI@Z
0x1001ce30:?_Buy@?$vector@PAVModel@@V?$allocator@PAVModel@@@std@@@std@@IAE_NI@Z
0x1001d290:?_Buy@?$vector@UAttributeRange@@V?$allocator@UAttributeRange@@@std@@@std@@IAE_NI@Z
0x1001d3a0:?_Buy@?$vector@UVFormat@VertexManager@@V?$allocator@UVFormat@VertexManager@@@std@@@std@@IAE_NI@Z
0x1001d0e0:?_Buy@?$vector@VBBox@@V?$allocator@VBBox@@@std@@@std@@IAE_NI@Z
0x1000c260:?_Buy@?$vector@VEditorVar@@V?$allocator@VEditorVar@@@std@@@std@@IAE_NI@Z
0x100247a0:?_Construct_n@?$vector@PAUModelFrame@@V?$allocator@PAUModelFrame@@@std@@@std@@QAEXIABQAUModelFrame@@@Z
0x10024730:?_Construct_n@?$vector@PAVActor@@V?$allocator@PAVActor@@@std@@@std@@QAEXIABQAVActor@@@Z
0x10024e30:?_Construct_n@?$vector@PAVEditorVar@@V?$allocator@PAVEditorVar@@@std@@@std@@QAEXIABQAVEditorVar@@@Z
0x10025060:?_Construct_n@?$vector@PAVMaterial@@V?$allocator@PAVMaterial@@@std@@@std@@QAEXIABQAVMaterial@@@Z
0x10024c00:?_Construct_n@?$vector@PAVMatrix@@V?$allocator@PAVMatrix@@@std@@@std@@QAEXIABQAVMatrix@@@Z
0x100249d0:?_Construct_n@?$vector@PAVModel@@V?$allocator@PAVModel@@@std@@@std@@QAEXIABQAVModel@@@Z
0x10022300:?_Construct_n@?$vector@UAttributeRange@@V?$allocator@UAttributeRange@@@std@@@std@@QAEXIABUAttributeRange@@@Z
0x10026280:?_Construct_n@?$vector@UVFormat@VertexManager@@V?$allocator@UVFormat@VertexManager@@@std@@@std@@QAEXIABUVFormat@VertexManager@@@Z
0x100250d0:?_Construct_n@?$vector@VBBox@@V?$allocator@VBBox@@@std@@@std@@QAEXIABVBBox@@@Z
0x10025860:?_Construct_n@?$vector@VEditorVar@@V?$allocator@VEditorVar@@@std@@@std@@QAEXIABVEditorVar@@@Z
0x1001cdc0:?_Destroy@?$vector@PAUModelFrame@@V?$allocator@PAUModelFrame@@@std@@@std@@IAEXPAPAUModelFrame@@0@Z
0x1001cdc0:?_Destroy@?$vector@PAVActor@@V?$allocator@PAVActor@@@std@@@std@@IAEXPAPAVActor@@0@Z
0x1001cdc0:?_Destroy@?$vector@PAVEditorVar@@V?$allocator@PAVEditorVar@@@std@@@std@@IAEXPAPAVEditorVar@@0@Z
0x1001cdc0:?_Destroy@?$vector@PAVMaterial@@V?$allocator@PAVMaterial@@@std@@@std@@IAEXPAPAVMaterial@@0@Z
0x1001cdc0:?_Destroy@?$vector@PAVMatrix@@V?$allocator@PAVMatrix@@@std@@@std@@IAEXPAPAVMatrix@@0@Z
0x1001cdc0:?_Destroy@?$vector@PAVModel@@V?$allocator@PAVModel@@@std@@@std@@IAEXPAPAVModel@@0@Z
0x1001cdc0:?_Destroy@?$vector@UAttributeRange@@V?$allocator@UAttributeRange@@@std@@@std@@IAEXPAUAttributeRange@@0@Z
0x100229d0:?_Destroy@?$vector@UVFormat@VertexManager@@V?$allocator@UVFormat@VertexManager@@@std@@@std@@IAEXPAUVFormat@VertexManager@@0@Z
0x10020390:?_Destroy@?$vector@VBBox@@V?$allocator@VBBox@@@std@@@std@@IAEXPAVBBox@@0@Z
0x1000d720:?_Destroy@?$vector@VEditorVar@@V?$allocator@VEditorVar@@@std@@@std@@IAEXPAVEditorVar@@0@Z
0x1028165c:?_GetFileVersionInfoA@CMLIMEEditBox@@1P6GHPADKKPAX@ZA
0x102815d4:?_GetFileVersionInfoA@CREIMEEditBox@@1P6GHPADKKPAX@ZA
0x10281660:?_GetFileVersionInfoSizeA@CMLIMEEditBox@@1P6GKPADPAK@ZA
0x102815d8:?_GetFileVersionInfoSizeA@CREIMEEditBox@@1P6GKPADPAK@ZA
0x10281650:?_GetReadingString@CMLIMEEditBox@@1P6GIPAUHIMC__@@IPA_WPAH2PAI@ZA
0x102815c8:?_GetReadingString@CREIMEEditBox@@1P6GIPAUHIMC__@@IPA_WPAH2PAI@ZA
0x10281624:?_ImmAssociateContext@CMLIMEEditBox@@1P6GPAUHIMC__@@PAUHWND__@@PAU2@@ZA
0x1028159c:?_ImmAssociateContext@CREIMEEditBox@@1P6GPAUHIMC__@@PAUHWND__@@PAU2@@ZA
0x10281610:?_ImmDisableTextFrameService@CMLIMEEditBox@@1P6GHK@ZA
0x10281588:?_ImmDisableTextFrameService@CREIMEEditBox@@1P6GHK@ZA
0x10281618:?_ImmGetCandidateListW@CMLIMEEditBox@@1P6GKPAUHIMC__@@KPAUtagCANDIDATELIST@@K@ZA
0x10281590:?_ImmGetCandidateListW@CREIMEEditBox@@1P6GKPAUHIMC__@@KPAUtagCANDIDATELIST@@K@ZA
0x10281614:?_ImmGetCompositionStringW@CMLIMEEditBox@@1P6GJPAUHIMC__@@KPAXK@ZA
0x1028158c:?_ImmGetCompositionStringW@CREIMEEditBox@@1P6GJPAUHIMC__@@KPAXK@ZA
0x1028161c:?_ImmGetContext@CMLIMEEditBox@@1P6GPAUHIMC__@@PAUHWND__@@@ZA
0x10281594:?_ImmGetContext@CREIMEEditBox@@1P6GPAUHIMC__@@PAUHWND__@@@ZA
0x10281630:?_ImmGetConversionStatus@CMLIMEEditBox@@1P6GHPAUHIMC__@@PAK1@ZA
0x102815a8:?_ImmGetConversionStatus@CREIMEEditBox@@1P6GHPAUHIMC__@@PAK1@ZA
0x10281634:?_ImmGetDefaultIMEWnd@CMLIMEEditBox@@1P6GPAUHWND__@@PAU2@@ZA
0x102815ac:?_ImmGetDefaultIMEWnd@CREIMEEditBox@@1P6GPAUHWND__@@PAU2@@ZA
0x10281638:?_ImmGetIMEFileNameA@CMLIMEEditBox@@1P6GIPAUHKL__@@PADI@ZA
0x102815b0:?_ImmGetIMEFileNameA@CREIMEEditBox@@1P6GIPAUHKL__@@PADI@ZA
0x10281628:?_ImmGetOpenStatus@CMLIMEEditBox@@1P6GHPAUHIMC__@@@ZA
0x102815a0:?_ImmGetOpenStatus@CREIMEEditBox@@1P6GHPAUHIMC__@@@ZA
0x1028163c:?_ImmGetVirtualKey@CMLIMEEditBox@@1P6GIPAUHWND__@@@ZA
0x102815b4:?_ImmGetVirtualKey@CREIMEEditBox@@1P6GIPAUHWND__@@@ZA
0x1028164c:?_ImmIsIME@CMLIMEEditBox@@1P6GHPAUHKL__@@@ZA
0x102815c4:?_ImmIsIME@CREIMEEditBox@@1P6GHPAUHKL__@@@ZA
0x10281600:?_ImmLockIMC@CMLIMEEditBox@@1P6GPAU__MIDL___MIDL_itf_dimm_0000_0012@@PAUHIMC__@@@ZA
0x10281578:?_ImmLockIMC@CREIMEEditBox@@1P6GPAU__MIDL___MIDL_itf_dimm_0000_0012@@PAUHIMC__@@@ZA
0x10281608:?_ImmLockIMCC@CMLIMEEditBox@@1P6GPAXPAUHIMCC__@@@ZA
0x10281580:?_ImmLockIMCC@CREIMEEditBox@@1P6GPAXPAUHIMCC__@@@ZA
0x10281640:?_ImmNotifyIME@CMLIMEEditBox@@1P6GHPAUHIMC__@@KKK@ZA
0x102815b8:?_ImmNotifyIME@CREIMEEditBox@@1P6GHPAUHIMC__@@KKK@ZA
0x10281620:?_ImmReleaseContext@CMLIMEEditBox@@1P6GHPAUHWND__@@PAUHIMC__@@@ZA
0x10281598:?_ImmReleaseContext@CREIMEEditBox@@1P6GHPAUHWND__@@PAUHIMC__@@@ZA
0x10281644:?_ImmSetConversionStatus@CMLIMEEditBox@@1P6GHPAUHIMC__@@KK@ZA
0x102815bc:?_ImmSetConversionStatus@CREIMEEditBox@@1P6GHPAUHIMC__@@KK@ZA
0x1028162c:?_ImmSetOpenStatus@CMLIMEEditBox@@1P6GHPAUHIMC__@@H@ZA
0x102815a4:?_ImmSetOpenStatus@CREIMEEditBox@@1P6GHPAUHIMC__@@H@ZA
0x10281648:?_ImmSimulateHotKey@CMLIMEEditBox@@1P6GHPAUHWND__@@K@ZA
0x102815c0:?_ImmSimulateHotKey@CREIMEEditBox@@1P6GHPAUHWND__@@K@ZA
0x10281604:?_ImmUnlockIMC@CMLIMEEditBox@@1P6GHPAUHIMC__@@@ZA
0x1028157c:?_ImmUnlockIMC@CREIMEEditBox@@1P6GHPAUHIMC__@@@ZA
0x1028160c:?_ImmUnlockIMCC@CMLIMEEditBox@@1P6GHPAUHIMCC__@@@ZA
0x10281584:?_ImmUnlockIMCC@CREIMEEditBox@@1P6GHPAUHIMCC__@@@ZA
0x10024810:?_Insert_n@?$vector@PAUModelFrame@@V?$allocator@PAUModelFrame@@@std@@@std@@IAEXV?$_Vector_iterator@PAUModelFrame@@V?$allocator@PAUModelFrame@@@std@@@2@IABQAUModelFrame@@@Z
0x1000f460:?_Insert_n@?$vector@PAVActor@@V?$allocator@PAVActor@@@std@@@std@@IAEXV?$_Vector_iterator@PAVActor@@V?$allocator@PAVActor@@@std@@@2@IABQAVActor@@@Z
0x10024ea0:?_Insert_n@?$vector@PAVEditorVar@@V?$allocator@PAVEditorVar@@@std@@@std@@IAEXV?$_Vector_iterator@PAVEditorVar@@V?$allocator@PAVEditorVar@@@std@@@2@IABQAVEditorVar@@@Z
0x1000f620:?_Insert_n@?$vector@PAVMaterial@@V?$allocator@PAVMaterial@@@std@@@std@@IAEXV?$_Vector_iterator@PAVMaterial@@V?$allocator@PAVMaterial@@@std@@@2@IABQAVMaterial@@@Z
0x10024c70:?_Insert_n@?$vector@PAVMatrix@@V?$allocator@PAVMatrix@@@std@@@std@@IAEXV?$_Vector_iterator@PAVMatrix@@V?$allocator@PAVMatrix@@@std@@@2@IABQAVMatrix@@@Z
0x10024a40:?_Insert_n@?$vector@PAVModel@@V?$allocator@PAVModel@@@std@@@std@@IAEXV?$_Vector_iterator@PAVModel@@V?$allocator@PAVModel@@@std@@@2@IABQAVModel@@@Z
0x10022540:?_Insert_n@?$vector@UAttributeRange@@V?$allocator@UAttributeRange@@@std@@@std@@IAEXV?$_Vector_iterator@UAttributeRange@@V?$allocator@UAttributeRange@@@std@@@2@IABUAttributeRange@@@Z
0x100265d0:?_Insert_n@?$vector@UVFormat@VertexManager@@V?$allocator@UVFormat@VertexManager@@@std@@@std@@IAEXV?$_Vector_iterator@UVFormat@VertexManager@@V?$allocator@UVFormat@VertexManager@@@std@@@2@IABUVFormat@VertexManager@@@Z
0x10025440:?_Insert_n@?$vector@VBBox@@V?$allocator@VBBox@@@std@@@std@@IAEXV?$_Vector_iterator@VBBox@@V?$allocator@VBBox@@@std@@@2@IABVBBox@@@Z
0x1000f8d0:?_Insert_n@?$vector@VEditorVar@@V?$allocator@VEditorVar@@@std@@@std@@IAEXV?$_Vector_iterator@VEditorVar@@V?$allocator@VEditorVar@@@std@@@2@IABVEditorVar@@@Z
0x10018fb0:?_MakeStatic@Light@@QAEXXZ
0x1028155c:?_ScriptApplyDigitSubstitution@CUniBuffer@CREEditBox@@0P6GJPBUtag_SCRIPT_DIGITSUBSTITUTE@@PAUtag_SCRIPT_CONTROL@@PAUtag_SCRIPT_STATE@@@ZA
0x10281560:?_ScriptStringAnalyse@CUniBuffer@CREEditBox@@0P6GJPAUHDC__@@PBXHHHKHPAUtag_SCRIPT_CONTROL@@PAUtag_SCRIPT_STATE@@PBHPAUtag_SCRIPT_TABDEF@@PBEPAPAX@ZA
0x10281564:?_ScriptStringCPtoX@CUniBuffer@CREEditBox@@0P6GJPAXHHPAH@ZA
0x1028156c:?_ScriptStringFree@CUniBuffer@CREEditBox@@0P6GJPAPAX@ZA
0x10281568:?_ScriptStringXtoCP@CUniBuffer@CREEditBox@@0P6GJPAXHPAH1@ZA
0x10281570:?_ScriptString_pLogAttr@CUniBuffer@CREEditBox@@0P6GPBUtag_SCRIPT_LOGATTR@@PAX@ZA
0x10281574:?_ScriptString_pcOutChars@CUniBuffer@CREEditBox@@0P6GPBHPAX@ZA
0x10281654:?_ShowReadingWindow@CMLIMEEditBox@@1P6GHPAUHIMC__@@H@ZA
0x102815cc:?_ShowReadingWindow@CREIMEEditBox@@1P6GHPAUHIMC__@@H@ZA
0x1010fea0:?_Tidy@?$vector@PAUModelFrame@@V?$allocator@PAUModelFrame@@@std@@@std@@IAEXXZ
0x1010fea0:?_Tidy@?$vector@PAVActor@@V?$allocator@PAVActor@@@std@@@std@@IAEXXZ
0x1010fea0:?_Tidy@?$vector@PAVEditorVar@@V?$allocator@PAVEditorVar@@@std@@@std@@IAEXXZ
0x1010fea0:?_Tidy@?$vector@PAVMaterial@@V?$allocator@PAVMaterial@@@std@@@std@@IAEXXZ
0x1010fea0:?_Tidy@?$vector@PAVMatrix@@V?$allocator@PAVMatrix@@@std@@@std@@IAEXXZ
0x1010fea0:?_Tidy@?$vector@PAVModel@@V?$allocator@PAVModel@@@std@@@std@@IAEXXZ
0x1010fea0:?_Tidy@?$vector@UAttributeRange@@V?$allocator@UAttributeRange@@@std@@@std@@IAEXXZ
0x10022a00:?_Tidy@?$vector@UVFormat@VertexManager@@V?$allocator@UVFormat@VertexManager@@@std@@@std@@IAEXXZ
0x100203c0:?_Tidy@?$vector@VBBox@@V?$allocator@VBBox@@@std@@@std@@IAEXXZ
0x1000f7e0:?_Tidy@?$vector@VEditorVar@@V?$allocator@VEditorVar@@@std@@@std@@IAEXXZ
0x1012b5e0:?_Ufill@?$vector@PAUModelFrame@@V?$allocator@PAUModelFrame@@@std@@@std@@IAEPAPAUModelFrame@@PAPAU3@IABQAU3@@Z
0x1012b5e0:?_Ufill@?$vector@PAVActor@@V?$allocator@PAVActor@@@std@@@std@@IAEPAPAVActor@@PAPAV3@IABQAV3@@Z
0x1012b5e0:?_Ufill@?$vector@PAVEditorVar@@V?$allocator@PAVEditorVar@@@std@@@std@@IAEPAPAVEditorVar@@PAPAV3@IABQAV3@@Z
0x1012b5e0:?_Ufill@?$vector@PAVMaterial@@V?$allocator@PAVMaterial@@@std@@@std@@IAEPAPAVMaterial@@PAPAV3@IABQAV3@@Z
0x1012b5e0:?_Ufill@?$vector@PAVMatrix@@V?$allocator@PAVMatrix@@@std@@@std@@IAEPAPAVMatrix@@PAPAV3@IABQAV3@@Z
0x1012b5e0:?_Ufill@?$vector@PAVModel@@V?$allocator@PAVModel@@@std@@@std@@IAEPAPAVModel@@PAPAV3@IABQAV3@@Z
0x10020410:?_Ufill@?$vector@UAttributeRange@@V?$allocator@UAttributeRange@@@std@@@std@@IAEPAUAttributeRange@@PAU3@IABU3@@Z
0x10022a50:?_Ufill@?$vector@UVFormat@VertexManager@@V?$allocator@UVFormat@VertexManager@@@std@@@std@@IAEPAUVFormat@VertexManager@@PAU34@IABU34@@Z
0x100217e0:?_Ufill@?$vector@VBBox@@V?$allocator@VBBox@@@std@@@std@@IAEPAVBBox@@PAV3@IABV3@@Z
0x1000d740:?_Ufill@?$vector@VEditorVar@@V?$allocator@VEditorVar@@@std@@@std@@IAEPAVEditorVar@@PAV3@IABV3@@Z
0x10281658:?_VerQueryValueA@CMLIMEEditBox@@1P6GHQAXPADPAPAXPAI@ZA
0x102815d0:?_VerQueryValueA@CREIMEEditBox@@1P6GHQAXPADPAPAXPAI@ZA
0x100196a0:?_Xinvarg@?$vector@PAUModelFrame@@V?$allocator@PAUModelFrame@@@std@@@std@@KAXXZ
0x10019520:?_Xinvarg@?$vector@PAVActor@@V?$allocator@PAVActor@@@std@@@std@@KAXXZ
0x10019b40:?_Xinvarg@?$vector@PAVEditorVar@@V?$allocator@PAVEditorVar@@@std@@@std@@KAXXZ
0x10019c40:?_Xinvarg@?$vector@PAVMaterial@@V?$allocator@PAVMaterial@@@std@@@std@@KAXXZ
0x100199a0:?_Xinvarg@?$vector@PAVMatrix@@V?$allocator@PAVMatrix@@@std@@@std@@KAXXZ
0x10019820:?_Xinvarg@?$vector@PAVModel@@V?$allocator@PAVModel@@@std@@@std@@KAXXZ
0x1001a160:?_Xinvarg@?$vector@UAttributeRange@@V?$allocator@UAttributeRange@@@std@@@std@@KAXXZ
0x1001a300:?_Xinvarg@?$vector@UVFormat@VertexManager@@V?$allocator@UVFormat@VertexManager@@@std@@@std@@KAXXZ
0x10019e00:?_Xinvarg@?$vector@VBBox@@V?$allocator@VBBox@@@std@@@std@@KAXXZ
0x10019f80:?_Xinvarg@?$vector@VEditorVar@@V?$allocator@VEditorVar@@@std@@@std@@KAXXZ
0x100195a0:?_Xlen@?$vector@PAUModelFrame@@V?$allocator@PAUModelFrame@@@std@@@std@@KAXXZ
0x1000a0f0:?_Xlen@?$vector@PAVActor@@V?$allocator@PAVActor@@@std@@@std@@KAXXZ
0x10019a40:?_Xlen@?$vector@PAVEditorVar@@V?$allocator@PAVEditorVar@@@std@@@std@@KAXXZ
0x1000a1e0:?_Xlen@?$vector@PAVMaterial@@V?$allocator@PAVMaterial@@@std@@@std@@KAXXZ
0x100198a0:?_Xlen@?$vector@PAVMatrix@@V?$allocator@PAVMatrix@@@std@@@std@@KAXXZ
0x10019720:?_Xlen@?$vector@PAVModel@@V?$allocator@PAVModel@@@std@@@std@@KAXXZ
0x1001a060:?_Xlen@?$vector@UAttributeRange@@V?$allocator@UAttributeRange@@@std@@@std@@KAXXZ
0x1001a200:?_Xlen@?$vector@UVFormat@VertexManager@@V?$allocator@UVFormat@VertexManager@@@std@@@std@@KAXXZ
0x10019d00:?_Xlen@?$vector@VBBox@@V?$allocator@VBBox@@@std@@@std@@KAXXZ
0x1000a2a0:?_Xlen@?$vector@VEditorVar@@V?$allocator@VEditorVar@@@std@@@std@@KAXXZ
0x10019620:?_Xran@?$vector@PAUModelFrame@@V?$allocator@PAUModelFrame@@@std@@@std@@KAXXZ
0x100194a0:?_Xran@?$vector@PAVActor@@V?$allocator@PAVActor@@@std@@@std@@KAXXZ
0x10019ac0:?_Xran@?$vector@PAVEditorVar@@V?$allocator@PAVEditorVar@@@std@@@std@@KAXXZ
0x10019bc0:?_Xran@?$vector@PAVMaterial@@V?$allocator@PAVMaterial@@@std@@@std@@KAXXZ
0x10019920:?_Xran@?$vector@PAVMatrix@@V?$allocator@PAVMatrix@@@std@@@std@@KAXXZ
0x100197a0:?_Xran@?$vector@PAVModel@@V?$allocator@PAVModel@@@std@@@std@@KAXXZ
0x1001a0e0:?_Xran@?$vector@UAttributeRange@@V?$allocator@UAttributeRange@@@std@@@std@@KAXXZ
0x1001a280:?_Xran@?$vector@UVFormat@VertexManager@@V?$allocator@UVFormat@VertexManager@@@std@@@std@@KAXXZ
0x10019d80:?_Xran@?$vector@VBBox@@V?$allocator@VBBox@@@std@@@std@@KAXXZ
0x10019f00:?_Xran@?$vector@VEditorVar@@V?$allocator@VEditorVar@@@std@@@std@@KAXXZ
0x10171950:?_filterPacket@AsyncLoader@@IAEXAAUAsyncPacket@@ABU2@@Z
0x10141960:?_generateCylinder@NxPhysics@@AAEPAVNxConvexMesh@@MMI@Z
0x10166fb0:?_newSurfaceNode@Terrain@@QAEXPAVTerrainNode@@@Z
0x10285884:?_registry@@3V?$map@V?$basic_string@DU?$char_traits@D@std@@V?$allocator@D@2@@std@@PAVFactory@@U?$less@V?$basic_string@DU?$char_traits@D@std@@V?$allocator@D@2@@std@@@2@V?$allocator@U?$pair@$$CBV?$basic_string@DU?$char_traits@D@std@@V?$allocator@D@2@@std@@PAVFactory@@@std@@@2@@std@@A
0x100b41c0:?addModel@C3DModel@@QAE_NABV?$basic_string@DU?$char_traits@D@std@@V?$allocator@D@2@@std@@@Z
0x100b2080:?addModel@C3DModel@@QAE_NPAVActor@@@Z
0x100a12a0:?addNewBatch@FXManager@@SAHPAVMaterial@@@Z
0x100a1460:?addNewBatch@FXManager@@SAHPAVTexture@@W4BlendMode@@@Z
0x100a1620:?addNewPolyBatch@FXManager@@SAHPAVTexture@@W4BlendMode@@@Z
0x100a7820:?addTexCam@C3DModel@@QAEXABVVector@@0@Z
0x100ae340:?adjustPage@CMultiLineEB@@IAEXXZ
0x1002eb30:?assign@?$vector@PAUModelFrame@@V?$allocator@PAUModelFrame@@@std@@@std@@QAEXIABQAUModelFrame@@@Z
0x1002eaa0:?assign@?$vector@PAVActor@@V?$allocator@PAVActor@@@std@@@std@@QAEXIABQAVActor@@@Z
0x1002ece0:?assign@?$vector@PAVEditorVar@@V?$allocator@PAVEditorVar@@@std@@@std@@QAEXIABQAVEditorVar@@@Z
0x1002ed00:?assign@?$vector@PAVMaterial@@V?$allocator@PAVMaterial@@@std@@@std@@QAEXIABQAVMaterial@@@Z
0x1002ec50:?assign@?$vector@PAVMatrix@@V?$allocator@PAVMatrix@@@std@@@std@@QAEXIABQAVMatrix@@@Z
0x1002ebc0:?assign@?$vector@PAVModel@@V?$allocator@PAVModel@@@std@@@std@@QAEXIABQAVModel@@@Z
0x1002bfb0:?assign@?$vector@UAttributeRange@@V?$allocator@UAttributeRange@@@std@@@std@@QAEXIABUAttributeRange@@@Z
0x1002f060:?assign@?$vector@UVFormat@VertexManager@@V?$allocator@UVFormat@VertexManager@@@std@@@std@@QAEXIABUVFormat@VertexManager@@@Z
0x1002edf0:?assign@?$vector@VBBox@@V?$allocator@VBBox@@@std@@@std@@QAEXIABVBBox@@@Z
0x1002ef70:?assign@?$vector@VEditorVar@@V?$allocator@VEditorVar@@@std@@@std@@QAEXIABVEditorVar@@@Z
0x1001cce0:?at@?$vector@PAUModelFrame@@V?$allocator@PAUModelFrame@@@std@@@std@@QAEAAPAUModelFrame@@I@Z
0x1001cce0:?at@?$vector@PAUModelFrame@@V?$allocator@PAUModelFrame@@@std@@@std@@QBEABQAUModelFrame@@I@Z
0x1001cc30:?at@?$vector@PAVActor@@V?$allocator@PAVActor@@@std@@@std@@QAEAAPAVActor@@I@Z
0x1001cc30:?at@?$vector@PAVActor@@V?$allocator@PAVActor@@@std@@@std@@QBEABQAVActor@@I@Z
0x1001cf60:?at@?$vector@PAVEditorVar@@V?$allocator@PAVEditorVar@@@std@@@std@@QAEAAPAVEditorVar@@I@Z
0x1001cf60:?at@?$vector@PAVEditorVar@@V?$allocator@PAVEditorVar@@@std@@@std@@QBEABQAVEditorVar@@I@Z
0x1001d010:?at@?$vector@PAVMaterial@@V?$allocator@PAVMaterial@@@std@@@std@@QAEAAPAVMaterial@@I@Z
0x1001d010:?at@?$vector@PAVMaterial@@V?$allocator@PAVMaterial@@@std@@@std@@QBEABQAVMaterial@@I@Z
0x1001ce80:?at@?$vector@PAVMatrix@@V?$allocator@PAVMatrix@@@std@@@std@@QAEAAPAVMatrix@@I@Z
0x1001ce80:?at@?$vector@PAVMatrix@@V?$allocator@PAVMatrix@@@std@@@std@@QBEABQAVMatrix@@I@Z
0x1001cdd0:?at@?$vector@PAVModel@@V?$allocator@PAVModel@@@std@@@std@@QAEAAPAVModel@@I@Z
0x1001cdd0:?at@?$vector@PAVModel@@V?$allocator@PAVModel@@@std@@@std@@QBEABQAVModel@@I@Z
0x1001d1d0:?at@?$vector@UAttributeRange@@V?$allocator@UAttributeRange@@@std@@@std@@QAEAAUAttributeRange@@I@Z
0x1001d1d0:?at@?$vector@UAttributeRange@@V?$allocator@UAttributeRange@@@std@@@std@@QBEABUAttributeRange@@I@Z
0x1001d2e0:?at@?$vector@UVFormat@VertexManager@@V?$allocator@UVFormat@VertexManager@@@std@@@std@@QAEAAUVFormat@VertexManager@@I@Z
0x1001d2e0:?at@?$vector@UVFormat@VertexManager@@V?$allocator@UVFormat@VertexManager@@@std@@@std@@QBEABUVFormat@VertexManager@@I@Z
0x1001d070:?at@?$vector@VBBox@@V?$allocator@VBBox@@@std@@@std@@QAEAAVBBox@@I@Z
0x1001d070:?at@?$vector@VBBox@@V?$allocator@VBBox@@@std@@@std@@QBEABVBBox@@I@Z
0x1001d130:?at@?$vector@VEditorVar@@V?$allocator@VEditorVar@@@std@@@std@@QAEAAVEditorVar@@I@Z
0x1001d130:?at@?$vector@VEditorVar@@V?$allocator@VEditorVar@@@std@@@std@@QBEABVEditorVar@@I@Z
0x10149420:?atow@@YAPB_WPBD@Z
0x1001cc90:?back@?$vector@PAUModelFrame@@V?$allocator@PAUModelFrame@@@std@@@std@@QAEAAPAUModelFrame@@XZ
0x1001cc90:?back@?$vector@PAUModelFrame@@V?$allocator@PAUModelFrame@@@std@@@std@@QBEABQAUModelFrame@@XZ
0x1001cc90:?back@?$vector@PAVActor@@V?$allocator@PAVActor@@@std@@@std@@QAEAAPAVActor@@XZ
0x1001cc90:?back@?$vector@PAVActor@@V?$allocator@PAVActor@@@std@@@std@@QBEABQAVActor@@XZ
0x1001cc90:?back@?$vector@PAVEditorVar@@V?$allocator@PAVEditorVar@@@std@@@std@@QAEAAPAVEditorVar@@XZ
0x1001cc90:?back@?$vector@PAVEditorVar@@V?$allocator@PAVEditorVar@@@std@@@std@@QBEABQAVEditorVar@@XZ
0x1001cc90:?back@?$vector@PAVMaterial@@V?$allocator@PAVMaterial@@@std@@@std@@QAEAAPAVMaterial@@XZ
0x1001cc90:?back@?$vector@PAVMaterial@@V?$allocator@PAVMaterial@@@std@@@std@@QBEABQAVMaterial@@XZ
0x1001cc90:?back@?$vector@PAVMatrix@@V?$allocator@PAVMatrix@@@std@@@std@@QAEAAPAVMatrix@@XZ
0x1001cc90:?back@?$vector@PAVMatrix@@V?$allocator@PAVMatrix@@@std@@@std@@QBEABQAVMatrix@@XZ
0x1001cc90:?back@?$vector@PAVModel@@V?$allocator@PAVModel@@@std@@@std@@QAEAAPAVModel@@XZ
0x1001cc90:?back@?$vector@PAVModel@@V?$allocator@PAVModel@@@std@@@std@@QBEABQAVModel@@XZ
0x1001d240:?back@?$vector@UAttributeRange@@V?$allocator@UAttributeRange@@@std@@@std@@QAEAAUAttributeRange@@XZ
0x1001d240:?back@?$vector@UAttributeRange@@V?$allocator@UAttributeRange@@@std@@@std@@QBEABUAttributeRange@@XZ
0x1001d350:?back@?$vector@UVFormat@VertexManager@@V?$allocator@UVFormat@VertexManager@@@std@@@std@@QAEAAUVFormat@VertexManager@@XZ
0x1001d350:?back@?$vector@UVFormat@VertexManager@@V?$allocator@UVFormat@VertexManager@@@std@@@std@@QBEABUVFormat@VertexManager@@XZ
0x1001d350:?back@?$vector@VBBox@@V?$allocator@VBBox@@@std@@@std@@QAEAAVBBox@@XZ
0x1001d350:?back@?$vector@VBBox@@V?$allocator@VBBox@@@std@@@std@@QBEABVBBox@@XZ
0x1001ea30:?back@?$vector@VEditorVar@@V?$allocator@VEditorVar@@@std@@@std@@QAEAAVEditorVar@@XZ
0x1001ea30:?back@?$vector@VEditorVar@@V?$allocator@VEditorVar@@@std@@@std@@QBEABVEditorVar@@XZ
0x1123d698:?batchedPolys@FXManager@@2V?$vector@UBatchedPoly@@V?$allocator@UBatchedPoly@@@std@@@std@@A
0x1123d688:?batchedQuads@FXManager@@2V?$vector@UBatchedQuad@@V?$allocator@UBatchedQuad@@@std@@@std@@A
0x1001ea80:?begin@?$vector@PAUModelFrame@@V?$allocator@PAUModelFrame@@@std@@@std@@QAE?AV?$_Vector_iterator@PAUModelFrame@@V?$allocator@PAUModelFrame@@@std@@@2@XZ
0x1001ea80:?begin@?$vector@PAUModelFrame@@V?$allocator@PAUModelFrame@@@std@@@std@@QBE?AV?$_Vector_const_iterator@PAUModelFrame@@V?$allocator@PAUModelFrame@@@std@@@2@XZ
0x1001ea80:?begin@?$vector@PAVActor@@V?$allocator@PAVActor@@@std@@@std@@QAE?AV?$_Vector_iterator@PAVActor@@V?$allocator@PAVActor@@@std@@@2@XZ
0x1001ea80:?begin@?$vector@PAVActor@@V?$allocator@PAVActor@@@std@@@std@@QBE?AV?$_Vector_const_iterator@PAVActor@@V?$allocator@PAVActor@@@std@@@2@XZ
0x1001ea80:?begin@?$vector@PAVEditorVar@@V?$allocator@PAVEditorVar@@@std@@@std@@QAE?AV?$_Vector_iterator@PAVEditorVar@@V?$allocator@PAVEditorVar@@@std@@@2@XZ
0x1001ea80:?begin@?$vector@PAVEditorVar@@V?$allocator@PAVEditorVar@@@std@@@std@@QBE?AV?$_Vector_const_iterator@PAVEditorVar@@V?$allocator@PAVEditorVar@@@std@@@2@XZ
0x1001ea80:?begin@?$vector@PAVMaterial@@V?$allocator@PAVMaterial@@@std@@@std@@QAE?AV?$_Vector_iterator@PAVMaterial@@V?$allocator@PAVMaterial@@@std@@@2@XZ
0x1001ea80:?begin@?$vector@PAVMaterial@@V?$allocator@PAVMaterial@@@std@@@std@@QBE?AV?$_Vector_const_iterator@PAVMaterial@@V?$allocator@PAVMaterial@@@std@@@2@XZ
0x1001ea80:?begin@?$vector@PAVMatrix@@V?$allocator@PAVMatrix@@@std@@@std@@QAE?AV?$_Vector_iterator@PAVMatrix@@V?$allocator@PAVMatrix@@@std@@@2@XZ
0x1001ea80:?begin@?$vector@PAVMatrix@@V?$allocator@PAVMatrix@@@std@@@std@@QBE?AV?$_Vector_const_iterator@PAVMatrix@@V?$allocator@PAVMatrix@@@std@@@2@XZ
0x1001ea80:?begin@?$vector@PAVModel@@V?$allocator@PAVModel@@@std@@@std@@QAE?AV?$_Vector_iterator@PAVModel@@V?$allocator@PAVModel@@@std@@@2@XZ
0x1001ea80:?begin@?$vector@PAVModel@@V?$allocator@PAVModel@@@std@@@std@@QBE?AV?$_Vector_const_iterator@PAVModel@@V?$allocator@PAVModel@@@std@@@2@XZ
0x1001ea80:?begin@?$vector@UAttributeRange@@V?$allocator@UAttributeRange@@@std@@@std@@QAE?AV?$_Vector_iterator@UAttributeRange@@V?$allocator@UAttributeRange@@@std@@@2@XZ
0x1001ea80:?begin@?$vector@UAttributeRange@@V?$allocator@UAttributeRange@@@std@@@std@@QBE?AV?$_Vector_const_iterator@UAttributeRange@@V?$allocator@UAttributeRange@@@std@@@2@XZ
0x1001ea80:?begin@?$vector@UVFormat@VertexManager@@V?$allocator@UVFormat@VertexManager@@@std@@@std@@QAE?AV?$_Vector_iterator@UVFormat@VertexManager@@V?$allocator@UVFormat@VertexManager@@@std@@@2@XZ
0x1001ea80:?begin@?$vector@UVFormat@VertexManager@@V?$allocator@UVFormat@VertexManager@@@std@@@std@@QBE?AV?$_Vector_const_iterator@UVFormat@VertexManager@@V?$allocator@UVFormat@VertexManager@@@std@@@2@XZ
0x1001ea80:?begin@?$vector@VBBox@@V?$allocator@VBBox@@@std@@@std@@QAE?AV?$_Vector_iterator@VBBox@@V?$allocator@VBBox@@@std@@@2@XZ
0x1001ea80:?begin@?$vector@VBBox@@V?$allocator@VBBox@@@std@@@std@@QBE?AV?$_Vector_const_iterator@VBBox@@V?$allocator@VBBox@@@std@@@2@XZ
0x1001ea80:?begin@?$vector@VEditorVar@@V?$allocator@VEditorVar@@@std@@@std@@QAE?AV?$_Vector_iterator@VEditorVar@@V?$allocator@VEditorVar@@@std@@@2@XZ
0x1001ea80:?begin@?$vector@VEditorVar@@V?$allocator@VEditorVar@@@std@@@std@@QBE?AV?$_Vector_const_iterator@VEditorVar@@V?$allocator@VEditorVar@@@std@@@2@XZ
0x11241060:?cFormatText@Precacher@@2PADA
0x10284744:?callback_Clone@Actor@@2P6AXHH@ZA
0x10284740:?callback_Landed@Actor@@2P6AXPAV1@PAVVector@@@ZA
0x10019a20:?capacity@?$vector@PAUModelFrame@@V?$allocator@PAUModelFrame@@@std@@@std@@QBEIXZ
0x10019a20:?capacity@?$vector@PAVActor@@V?$allocator@PAVActor@@@std@@@std@@QBEIXZ
0x10019a20:?capacity@?$vector@PAVEditorVar@@V?$allocator@PAVEditorVar@@@std@@@std@@QBEIXZ
0x10019a20:?capacity@?$vector@PAVMaterial@@V?$allocator@PAVMaterial@@@std@@@std@@QBEIXZ
0x10019a20:?capacity@?$vector@PAVMatrix@@V?$allocator@PAVMatrix@@@std@@@std@@QBEIXZ
0x10019a20:?capacity@?$vector@PAVModel@@V?$allocator@PAVModel@@@std@@@std@@QBEIXZ
0x1001a000:?capacity@?$vector@UAttributeRange@@V?$allocator@UAttributeRange@@@std@@@std@@QBEIXZ
0x1001a1e0:?capacity@?$vector@UVFormat@VertexManager@@V?$allocator@UVFormat@VertexManager@@@std@@@std@@QBEIXZ
0x1001a1e0:?capacity@?$vector@VBBox@@V?$allocator@VBBox@@@std@@@std@@QBEIXZ
0x1000a260:?capacity@?$vector@VEditorVar@@V?$allocator@VEditorVar@@@std@@@std@@QBEIXZ
0x10057ee0:?clear@?$vector@PAUModelFrame@@V?$allocator@PAUModelFrame@@@std@@@std@@QAEXXZ
0x10057ee0:?clear@?$vector@PAVActor@@V?$allocator@PAVActor@@@std@@@std@@QAEXXZ
0x10057ee0:?clear@?$vector@PAVEditorVar@@V?$allocator@PAVEditorVar@@@std@@@std@@QAEXXZ
0x10057ee0:?clear@?$vector@PAVMaterial@@V?$allocator@PAVMaterial@@@std@@@std@@QAEXXZ
0x10057ee0:?clear@?$vector@PAVMatrix@@V?$allocator@PAVMatrix@@@std@@@std@@QAEXXZ
0x10057ee0:?clear@?$vector@PAVModel@@V?$allocator@PAVModel@@@std@@@std@@QAEXXZ
0x1006f080:?clear@?$vector@UAttributeRange@@V?$allocator@UAttributeRange@@@std@@@std@@QAEXXZ
0x10026590:?clear@?$vector@UVFormat@VertexManager@@V?$allocator@UVFormat@VertexManager@@@std@@@std@@QAEXXZ
0x100217a0:?clear@?$vector@VBBox@@V?$allocator@VBBox@@@std@@@std@@QAEXXZ
0x1000f890:?clear@?$vector@VEditorVar@@V?$allocator@VEditorVar@@@std@@@std@@QAEXXZ
0x1006dbf0:?clearModels@C3DModel@@QAEXXZ
0x100a77a0:?clearMouseOverStatus@CREListCtrl@@IAEXXZ
0x100b3fa0:?clearSpecItems@CREListCtrl@@QAEXXZ
0x100db650:?controlIndex@Input@@QAEHAAV?$basic_string@DU?$char_traits@D@std@@V?$allocator@D@2@@std@@@Z
0x100a74a0:?countCharRange@CMultiLineEB@@IAEXXZ
0x100c5d60:?countPages@CMultiLineEB@@IAEXXZ
0x10011d80:?create@Factory@@SAPAVActor@@KPAVWorld@@@Z
0x10011e50:?create@Factory@@SAPAVActor@@V?$basic_string@DU?$char_traits@D@std@@V?$allocator@D@2@@std@@PAVWorld@@@Z
0x100b2ea0:?doMotion@CTYDialog@@MAEXM@Z
0x101579b0:?empty@?$vector@PAUModelFrame@@V?$allocator@PAUModelFrame@@@std@@@std@@QBE_NXZ
0x101579b0:?empty@?$vector@PAVActor@@V?$allocator@PAVActor@@@std@@@std@@QBE_NXZ
0x101579b0:?empty@?$vector@PAVEditorVar@@V?$allocator@PAVEditorVar@@@std@@@std@@QBE_NXZ
0x101579b0:?empty@?$vector@PAVMaterial@@V?$allocator@PAVMaterial@@@std@@@std@@QBE_NXZ
0x101579b0:?empty@?$vector@PAVMatrix@@V?$allocator@PAVMatrix@@@std@@@std@@QBE_NXZ
0x101579b0:?empty@?$vector@PAVModel@@V?$allocator@PAVModel@@@std@@@std@@QBE_NXZ
0x1001a020:?empty@?$vector@UAttributeRange@@V?$allocator@UAttributeRange@@@std@@@std@@QBE_NXZ
0x10019cc0:?empty@?$vector@UVFormat@VertexManager@@V?$allocator@UVFormat@VertexManager@@@std@@@std@@QBE_NXZ
0x10019cc0:?empty@?$vector@VBBox@@V?$allocator@VBBox@@@std@@@std@@QBE_NXZ
0x10019e80:?empty@?$vector@VEditorVar@@V?$allocator@VEditorVar@@@std@@@std@@QBE_NXZ
0x1001cf30:?end@?$vector@PAUModelFrame@@V?$allocator@PAUModelFrame@@@std@@@std@@QAE?AV?$_Vector_iterator@PAUModelFrame@@V?$allocator@PAUModelFrame@@@std@@@2@XZ
0x1001cf30:?end@?$vector@PAUModelFrame@@V?$allocator@PAUModelFrame@@@std@@@std@@QBE?AV?$_Vector_const_iterator@PAUModelFrame@@V?$allocator@PAUModelFrame@@@std@@@2@XZ
0x1001cf30:?end@?$vector@PAVActor@@V?$allocator@PAVActor@@@std@@@std@@QAE?AV?$_Vector_iterator@PAVActor@@V?$allocator@PAVActor@@@std@@@2@XZ
0x1001cf30:?end@?$vector@PAVActor@@V?$allocator@PAVActor@@@std@@@std@@QBE?AV?$_Vector_const_iterator@PAVActor@@V?$allocator@PAVActor@@@std@@@2@XZ
0x1001cf30:?end@?$vector@PAVEditorVar@@V?$allocator@PAVEditorVar@@@std@@@std@@QAE?AV?$_Vector_iterator@PAVEditorVar@@V?$allocator@PAVEditorVar@@@std@@@2@XZ
0x1001cf30:?end@?$vector@PAVEditorVar@@V?$allocator@PAVEditorVar@@@std@@@std@@QBE?AV?$_Vector_const_iterator@PAVEditorVar@@V?$allocator@PAVEditorVar@@@std@@@2@XZ
0x1001cf30:?end@?$vector@PAVMaterial@@V?$allocator@PAVMaterial@@@std@@@std@@QAE?AV?$_Vector_iterator@PAVMaterial@@V?$allocator@PAVMaterial@@@std@@@2@XZ
0x1001cf30:?end@?$vector@PAVMaterial@@V?$allocator@PAVMaterial@@@std@@@std@@QBE?AV?$_Vector_const_iterator@PAVMaterial@@V?$allocator@PAVMaterial@@@std@@@2@XZ
0x1001cf30:?end@?$vector@PAVMatrix@@V?$allocator@PAVMatrix@@@std@@@std@@QAE?AV?$_Vector_iterator@PAVMatrix@@V?$allocator@PAVMatrix@@@std@@@2@XZ
0x1001cf30:?end@?$vector@PAVMatrix@@V?$allocator@PAVMatrix@@@std@@@std@@QBE?AV?$_Vector_const_iterator@PAVMatrix@@V?$allocator@PAVMatrix@@@std@@@2@XZ
0x1001cf30:?end@?$vector@PAVModel@@V?$allocator@PAVModel@@@std@@@std@@QAE?AV?$_Vector_iterator@PAVModel@@V?$allocator@PAVModel@@@std@@@2@XZ
0x1001cf30:?end@?$vector@PAVModel@@V?$allocator@PAVModel@@@std@@@std@@QBE?AV?$_Vector_const_iterator@PAVModel@@V?$allocator@PAVModel@@@std@@@2@XZ
0x1001cf30:?end@?$vector@UAttributeRange@@V?$allocator@UAttributeRange@@@std@@@std@@QAE?AV?$_Vector_iterator@UAttributeRange@@V?$allocator@UAttributeRange@@@std@@@2@XZ
0x1001cf30:?end@?$vector@UAttributeRange@@V?$allocator@UAttributeRange@@@std@@@std@@QBE?AV?$_Vector_const_iterator@UAttributeRange@@V?$allocator@UAttributeRange@@@std@@@2@XZ
0x1001cf30:?end@?$vector@UVFormat@VertexManager@@V?$allocator@UVFormat@VertexManager@@@std@@@std@@QAE?AV?$_Vector_iterator@UVFormat@VertexManager@@V?$allocator@UVFormat@VertexManager@@@std@@@2@XZ
0x1001cf30:?end@?$vector@UVFormat@VertexManager@@V?$allocator@UVFormat@VertexManager@@@std@@@std@@QBE?AV?$_Vector_const_iterator@UVFormat@VertexManager@@V?$allocator@UVFormat@VertexManager@@@std@@@2@XZ
0x1001cf30:?end@?$vector@VBBox@@V?$allocator@VBBox@@@std@@@std@@QAE?AV?$_Vector_iterator@VBBox@@V?$allocator@VBBox@@@std@@@2@XZ
0x1001cf30:?end@?$vector@VBBox@@V?$allocator@VBBox@@@std@@@std@@QBE?AV?$_Vector_const_iterator@VBBox@@V?$allocator@VBBox@@@std@@@2@XZ
0x1001cf30:?end@?$vector@VEditorVar@@V?$allocator@VEditorVar@@@std@@@std@@QAE?AV?$_Vector_iterator@VEditorVar@@V?$allocator@VEditorVar@@@std@@@2@XZ
0x1001cf30:?end@?$vector@VEditorVar@@V?$allocator@VEditorVar@@@std@@@std@@QBE?AV?$_Vector_const_iterator@VEditorVar@@V?$allocator@VEditorVar@@@std@@@2@XZ
0x100a1d10:?erase@?$vector@PAUModelFrame@@V?$allocator@PAUModelFrame@@@std@@@std@@QAE?AV?$_Vector_iterator@PAUModelFrame@@V?$allocator@PAUModelFrame@@@std@@@2@V32@0@Z
0x1001e9c0:?erase@?$vector@PAUModelFrame@@V?$allocator@PAUModelFrame@@@std@@@std@@QAE?AV?$_Vector_iterator@PAUModelFrame@@V?$allocator@PAUModelFrame@@@std@@@2@V32@@Z
0x100a1d10:?erase@?$vector@PAVActor@@V?$allocator@PAVActor@@@std@@@std@@QAE?AV?$_Vector_iterator@PAVActor@@V?$allocator@PAVActor@@@std@@@2@V32@0@Z
0x1001e9c0:?erase@?$vector@PAVActor@@V?$allocator@PAVActor@@@std@@@std@@QAE?AV?$_Vector_iterator@PAVActor@@V?$allocator@PAVActor@@@std@@@2@V32@@Z
0x100a1d10:?erase@?$vector@PAVEditorVar@@V?$allocator@PAVEditorVar@@@std@@@std@@QAE?AV?$_Vector_iterator@PAVEditorVar@@V?$allocator@PAVEditorVar@@@std@@@2@V32@0@Z
0x1001e9c0:?erase@?$vector@PAVEditorVar@@V?$allocator@PAVEditorVar@@@std@@@std@@QAE?AV?$_Vector_iterator@PAVEditorVar@@V?$allocator@PAVEditorVar@@@std@@@2@V32@@Z
0x100a1d10:?erase@?$vector@PAVMaterial@@V?$allocator@PAVMaterial@@@std@@@std@@QAE?AV?$_Vector_iterator@PAVMaterial@@V?$allocator@PAVMaterial@@@std@@@2@V32@0@Z
0x1001e9c0:?erase@?$vector@PAVMaterial@@V?$allocator@PAVMaterial@@@std@@@std@@QAE?AV?$_Vector_iterator@PAVMaterial@@V?$allocator@PAVMaterial@@@std@@@2@V32@@Z
0x100a1d10:?erase@?$vector@PAVMatrix@@V?$allocator@PAVMatrix@@@std@@@std@@QAE?AV?$_Vector_iterator@PAVMatrix@@V?$allocator@PAVMatrix@@@std@@@2@V32@0@Z
0x1001e9c0:?erase@?$vector@PAVMatrix@@V?$allocator@PAVMatrix@@@std@@@std@@QAE?AV?$_Vector_iterator@PAVMatrix@@V?$allocator@PAVMatrix@@@std@@@2@V32@@Z
0x100a1d10:?erase@?$vector@PAVModel@@V?$allocator@PAVModel@@@std@@@std@@QAE?AV?$_Vector_iterator@PAVModel@@V?$allocator@PAVModel@@@std@@@2@V32@0@Z
0x1001e9c0:?erase@?$vector@PAVModel@@V?$allocator@PAVModel@@@std@@@std@@QAE?AV?$_Vector_iterator@PAVModel@@V?$allocator@PAVModel@@@std@@@2@V32@@Z
0x100f6030:?erase@?$vector@UAttributeRange@@V?$allocator@UAttributeRange@@@std@@@std@@QAE?AV?$_Vector_iterator@UAttributeRange@@V?$allocator@UAttributeRange@@@std@@@2@V32@0@Z
0x10022510:?erase@?$vector@UAttributeRange@@V?$allocator@UAttributeRange@@@std@@@std@@QAE?AV?$_Vector_iterator@UAttributeRange@@V?$allocator@UAttributeRange@@@std@@@2@V32@@Z
0x10026520:?erase@?$vector@UVFormat@VertexManager@@V?$allocator@UVFormat@VertexManager@@@std@@@std@@QAE?AV?$_Vector_iterator@UVFormat@VertexManager@@V?$allocator@UVFormat@VertexManager@@@std@@@2@V32@0@Z
0x100264d0:?erase@?$vector@UVFormat@VertexManager@@V?$allocator@UVFormat@VertexManager@@@std@@@std@@QAE?AV?$_Vector_iterator@UVFormat@VertexManager@@V?$allocator@UVFormat@VertexManager@@@std@@@2@V32@@Z
0x10021730:?erase@?$vector@VBBox@@V?$allocator@VBBox@@@std@@@std@@QAE?AV?$_Vector_iterator@VBBox@@V?$allocator@VBBox@@@std@@@2@V32@0@Z
0x100216e0:?erase@?$vector@VBBox@@V?$allocator@VBBox@@@std@@@std@@QAE?AV?$_Vector_iterator@VBBox@@V?$allocator@VBBox@@@std@@@2@V32@@Z
0x1000f820:?erase@?$vector@VEditorVar@@V?$allocator@VEditorVar@@@std@@@std@@QAE?AV?$_Vector_iterator@VEditorVar@@V?$allocator@VEditorVar@@@std@@@2@V32@0@Z
0x10025ab0:?erase@?$vector@VEditorVar@@V?$allocator@VEditorVar@@@std@@@std@@QAE?AV?$_Vector_iterator@VEditorVar@@V?$allocator@VEditorVar@@@std@@@2@V32@@Z
0x1001cd40:?front@?$vector@PAUModelFrame@@V?$allocator@PAUModelFrame@@@std@@@std@@QAEAAPAUModelFrame@@XZ
0x1001cd40:?front@?$vector@PAUModelFrame@@V?$allocator@PAUModelFrame@@@std@@@std@@QBEABQAUModelFrame@@XZ
0x1001cd40:?front@?$vector@PAVActor@@V?$allocator@PAVActor@@@std@@@std@@QAEAAPAVActor@@XZ
0x1001cd40:?front@?$vector@PAVActor@@V?$allocator@PAVActor@@@std@@@std@@QBEABQAVActor@@XZ
0x1001cd40:?front@?$vector@PAVEditorVar@@V?$allocator@PAVEditorVar@@@std@@@std@@QAEAAPAVEditorVar@@XZ
0x1001cd40:?front@?$vector@PAVEditorVar@@V?$allocator@PAVEditorVar@@@std@@@std@@QBEABQAVEditorVar@@XZ
0x1001cd40:?front@?$vector@PAVMaterial@@V?$allocator@PAVMaterial@@@std@@@std@@QAEAAPAVMaterial@@XZ
0x1001cd40:?front@?$vector@PAVMaterial@@V?$allocator@PAVMaterial@@@std@@@std@@QBEABQAVMaterial@@XZ
0x1001cd40:?front@?$vector@PAVMatrix@@V?$allocator@PAVMatrix@@@std@@@std@@QAEAAPAVMatrix@@XZ
0x1001cd40:?front@?$vector@PAVMatrix@@V?$allocator@PAVMatrix@@@std@@@std@@QBEABQAVMatrix@@XZ
0x1001cd40:?front@?$vector@PAVModel@@V?$allocator@PAVModel@@@std@@@std@@QAEAAPAVModel@@XZ
0x1001cd40:?front@?$vector@PAVModel@@V?$allocator@PAVModel@@@std@@@std@@QBEABQAVModel@@XZ
0x1001cd40:?front@?$vector@UAttributeRange@@V?$allocator@UAttributeRange@@@std@@@std@@QAEAAUAttributeRange@@XZ
0x1001cd40:?front@?$vector@UAttributeRange@@V?$allocator@UAttributeRange@@@std@@@std@@QBEABUAttributeRange@@XZ
0x1001cd40:?front@?$vector@UVFormat@VertexManager@@V?$allocator@UVFormat@VertexManager@@@std@@@std@@QAEAAUVFormat@VertexManager@@XZ
0x1001cd40:?front@?$vector@UVFormat@VertexManager@@V?$allocator@UVFormat@VertexManager@@@std@@@std@@QBEABUVFormat@VertexManager@@XZ
0x1001cd40:?front@?$vector@VBBox@@V?$allocator@VBBox@@@std@@@std@@QAEAAVBBox@@XZ
0x1001cd40:?front@?$vector@VBBox@@V?$allocator@VBBox@@@std@@@std@@QBEABVBBox@@XZ
0x1001cd40:?front@?$vector@VEditorVar@@V?$allocator@VEditorVar@@@std@@@std@@QAEAAVEditorVar@@XZ
0x1001cd40:?front@?$vector@VEditorVar@@V?$allocator@VEditorVar@@@std@@@std@@QBEABVEditorVar@@XZ
0x100a1a40:?getBatchForWriting@FXManager@@SAHPAVFXSystem@@PAVMaterial@@@Z
0x100a1910:?getBatchForWriting@FXManager@@SAHPAVFXSystem@@PAVTexture@@W4BlendMode@@@Z
0x1009fc20:?getFreeBatch@FXManager@@SAHXZ
0x100a17e0:?getPolyBatchForWriting@FXManager@@SAHPAVFXSystem@@PAVTexture@@W4BlendMode@@@Z
0x1006acb0:?getScrollBarHeight@CMultiLineEB@@QAEHXZ
0x1006ac90:?getScrollBarWidth@CMultiLineEB@@QAEHXZ
0x1001c6d0:?get_allocator@?$vector@PAUModelFrame@@V?$allocator@PAUModelFrame@@@std@@@std@@QBE?AV?$allocator@PAUModelFrame@@@2@XZ
0x1001c6d0:?get_allocator@?$vector@PAVActor@@V?$allocator@PAVActor@@@std@@@std@@QBE?AV?$allocator@PAVActor@@@2@XZ
0x1001c6d0:?get_allocator@?$vector@PAVEditorVar@@V?$allocator@PAVEditorVar@@@std@@@std@@QBE?AV?$allocator@PAVEditorVar@@@2@XZ
0x1001c6d0:?get_allocator@?$vector@PAVMaterial@@V?$allocator@PAVMaterial@@@std@@@std@@QBE?AV?$allocator@PAVMaterial@@@2@XZ
0x1001c6d0:?get_allocator@?$vector@PAVMatrix@@V?$allocator@PAVMatrix@@@std@@@std@@QBE?AV?$allocator@PAVMatrix@@@2@XZ
0x1001c6d0:?get_allocator@?$vector@PAVModel@@V?$allocator@PAVModel@@@std@@@std@@QBE?AV?$allocator@PAVModel@@@2@XZ
0x1001c6d0:?get_allocator@?$vector@UAttributeRange@@V?$allocator@UAttributeRange@@@std@@@std@@QBE?AV?$allocator@UAttributeRange@@@2@XZ
0x1001c6d0:?get_allocator@?$vector@UVFormat@VertexManager@@V?$allocator@UVFormat@VertexManager@@@std@@@std@@QBE?AV?$allocator@UVFormat@VertexManager@@@2@XZ
0x1001c6d0:?get_allocator@?$vector@VBBox@@V?$allocator@VBBox@@@std@@@std@@QBE?AV?$allocator@VBBox@@@2@XZ
0x1001c6d0:?get_allocator@?$vector@VEditorVar@@V?$allocator@VEditorVar@@@std@@@std@@QBE?AV?$allocator@VEditorVar@@@2@XZ
0x10001230:?hash@Factory@@SAKABV?$basic_string@DU?$char_traits@D@std@@V?$allocator@D@2@@std@@@Z
0x1002ad40:?insert@?$vector@PAUModelFrame@@V?$allocator@PAUModelFrame@@@std@@@std@@QAE?AV?$_Vector_iterator@PAUModelFrame@@V?$allocator@PAUModelFrame@@@std@@@2@V32@ABQAUModelFrame@@@Z
0x1002add0:?insert@?$vector@PAUModelFrame@@V?$allocator@PAUModelFrame@@@std@@@std@@QAEXV?$_Vector_iterator@PAUModelFrame@@V?$allocator@PAUModelFrame@@@std@@@2@IABQAUModelFrame@@@Z
0x10011750:?insert@?$vector@PAVActor@@V?$allocator@PAVActor@@@std@@@std@@QAE?AV?$_Vector_iterator@PAVActor@@V?$allocator@PAVActor@@@std@@@2@V32@ABQAVActor@@@Z
0x1002ab80:?insert@?$vector@PAVActor@@V?$allocator@PAVActor@@@std@@@std@@QAEXV?$_Vector_iterator@PAVActor@@V?$allocator@PAVActor@@@std@@@2@IABQAVActor@@@Z
0x1002b430:?insert@?$vector@PAVEditorVar@@V?$allocator@PAVEditorVar@@@std@@@std@@QAE?AV?$_Vector_iterator@PAVEditorVar@@V?$allocator@PAVEditorVar@@@std@@@2@V32@ABQAVEditorVar@@@Z
0x1002b4c0:?insert@?$vector@PAVEditorVar@@V?$allocator@PAVEditorVar@@@std@@@std@@QAEXV?$_Vector_iterator@PAVEditorVar@@V?$allocator@PAVEditorVar@@@std@@@2@IABQAVEditorVar@@@Z
0x100117e0:?insert@?$vector@PAVMaterial@@V?$allocator@PAVMaterial@@@std@@@std@@QAE?AV?$_Vector_iterator@PAVMaterial@@V?$allocator@PAVMaterial@@@std@@@2@V32@ABQAVMaterial@@@Z
0x1002b680:?insert@?$vector@PAVMaterial@@V?$allocator@PAVMaterial@@@std@@@std@@QAEXV?$_Vector_iterator@PAVMaterial@@V?$allocator@PAVMaterial@@@std@@@2@IABQAVMaterial@@@Z
0x1002b1e0:?insert@?$vector@PAVMatrix@@V?$allocator@PAVMatrix@@@std@@@std@@QAE?AV?$_Vector_iterator@PAVMatrix@@V?$allocator@PAVMatrix@@@std@@@2@V32@ABQAVMatrix@@@Z
0x1002b270:?insert@?$vector@PAVMatrix@@V?$allocator@PAVMatrix@@@std@@@std@@QAEXV?$_Vector_iterator@PAVMatrix@@V?$allocator@PAVMatrix@@@std@@@2@IABQAVMatrix@@@Z
0x1002af90:?insert@?$vector@PAVModel@@V?$allocator@PAVModel@@@std@@@std@@QAE?AV?$_Vector_iterator@PAVModel@@V?$allocator@PAVModel@@@std@@@2@V32@ABQAVModel@@@Z
0x1002b020:?insert@?$vector@PAVModel@@V?$allocator@PAVModel@@@std@@@std@@QAEXV?$_Vector_iterator@PAVModel@@V?$allocator@PAVModel@@@std@@@2@IABQAVModel@@@Z
0x10026030:?insert@?$vector@UAttributeRange@@V?$allocator@UAttributeRange@@@std@@@std@@QAE?AV?$_Vector_iterator@UAttributeRange@@V?$allocator@UAttributeRange@@@std@@@2@V32@ABUAttributeRange@@@Z
0x100260e0:?insert@?$vector@UAttributeRange@@V?$allocator@UAttributeRange@@@std@@@std@@QAEXV?$_Vector_iterator@UAttributeRange@@V?$allocator@UAttributeRange@@@std@@@2@IABUAttributeRange@@@Z
0x1002c310:?insert@?$vector@UVFormat@VertexManager@@V?$allocator@UVFormat@VertexManager@@@std@@@std@@QAE?AV?$_Vector_iterator@UVFormat@VertexManager@@V?$allocator@UVFormat@VertexManager@@@std@@@2@V32@ABUVFormat@VertexManager@@@Z
0x1002c3c0:?insert@?$vector@UVFormat@VertexManager@@V?$allocator@UVFormat@VertexManager@@@std@@@std@@QAEXV?$_Vector_iterator@UVFormat@VertexManager@@V?$allocator@UVFormat@VertexManager@@@std@@@2@IABUVFormat@VertexManager@@@Z
0x1002b8c0:?insert@?$vector@VBBox@@V?$allocator@VBBox@@@std@@@std@@QAE?AV?$_Vector_iterator@VBBox@@V?$allocator@VBBox@@@std@@@2@V32@ABVBBox@@@Z
0x1002b970:?insert@?$vector@VBBox@@V?$allocator@VBBox@@@std@@@std@@QAEXV?$_Vector_iterator@VBBox@@V?$allocator@VBBox@@@std@@@2@IABVBBox@@@Z
0x10011b30:?insert@?$vector@VEditorVar@@V?$allocator@VEditorVar@@@std@@@std@@QAE?AV?$_Vector_iterator@VEditorVar@@V?$allocator@VEditorVar@@@std@@@2@V32@ABVEditorVar@@@Z
0x1002be00:?insert@?$vector@VEditorVar@@V?$allocator@VEditorVar@@@std@@@std@@QAEXV?$_Vector_iterator@VEditorVar@@V?$allocator@VEditorVar@@@std@@@2@IABVEditorVar@@@Z
0x10283708:?inst@?1??Instance@Serializer@@SAPAV2@XZ@4V2@A
0x1028577c:?inst@Editor@@2PAV1@A
0x100abae0:?isSelected@CRETabPages@@QAE_NPAVCREab@@@Z
0x11241ab4:?m_AddTouchedImpulse@World@@2P6AXHPAX@ZA
0x1028474c:?m_Callback_DeserializationComplete@Actor@@2P6AXH@ZA
0x10284748:?m_Callback_SetWorld@Actor@@2P6AXHPAVWorld@@@ZA
0x11241a30:?m_ControllerScript@SkyController@@2PAVScript@@A
0x11241ab0:?m_DeleteWorld@World@@2P6AXPAV1@@ZA
0x10284764:?m_Instance@AudioDevice@@2PAV1@A
0x10284ef0:?m_Instance@Canvas@@2PAV1@A
0x11240bf4:?m_Instance@Input@@2PAV1@A
0x11240c34:?m_Instance@LCDDevice@@2PAV1@A
0x10284760:?m_Instance@OggPlayer@@2PAV1@A
0x1124177c:?m_Instance@RenderDevice@@2PAV1@A
0x10282ec0:?m_Instance@SubareaManager@@2V1@A
0x11241aac:?m_RegisterWorld@World@@2P6AXPAV1@@ZA
0x11248acc:?m_bHasCached@TextureCamera@@1_NA
0x1123e1f8:?m_bModuleDlgEnabled@CTYDialog@@0_NA
0x1123e1f4:?m_iDialogCorruptAct@CTYDialog@@2HA
0x1123e1f0:?m_iHasDialogHasInput@CTYDialog@@0HA
0x112414fc:?m_listActorGroups@Precacher@@2V?$list@PAVActorGroup@@V?$allocator@PAVActorGroup@@@std@@@std@@A
0x112414d8:?m_listMaterials@Precacher@@2V?$list@PAVMaterial@@V?$allocator@PAVMaterial@@@std@@@std@@A
0x112414cc:?m_listModels@Precacher@@2V?$list@PAVModel@@V?$allocator@PAVModel@@@std@@@std@@A
0x112414f0:?m_listSounds2D@Precacher@@2V?$list@PAVSound@@V?$allocator@PAVSound@@@std@@@std@@A
0x112414e4:?m_listSounds@Precacher@@2V?$list@PAVSound@@V?$allocator@PAVSound@@@std@@@std@@A
0x11241508:?m_listStaticList@ActorGroup@@2V?$list@PAVActorGroup@@V?$allocator@PAVActorGroup@@@std@@@std@@A
0x112414c0:?m_listTextures@Precacher@@2V?$list@PAVTexture@@V?$allocator@PAVTexture@@@std@@@std@@A
0x11241604:?m_mapActorGroupTMPs@Precacher@@2V?$hash_map@V?$basic_string@DU?$char_traits@D@std@@V?$allocator@D@2@@std@@PAVActorGroup@@V?$hash_compare@V?$basic_string@DU?$char_traits@D@std@@V?$allocator@D@2@@std@@U?$less@V?$basic_string@DU?$char_traits@D@std@@V?$allocator@D@2@@std@@@2@@stdext@@V?$allocator@U?$pair@$$CBV?$basic_string@DU?$char_traits@D@std@@V?$allocator@D@2@@std@@PAVActorGroup@@@std@@@2@@stdext@@A
0x11241564:?m_mapAnimTMPs@Precacher@@2V?$hash_map@V?$basic_string@DU?$char_traits@D@std@@V?$allocator@D@2@@std@@HV?$hash_compare@V?$basic_string@DU?$char_traits@D@std@@V?$allocator@D@2@@std@@U?$less@V?$basic_string@DU?$char_traits@D@std@@V?$allocator@D@2@@std@@@2@@stdext@@V?$allocator@U?$pair@$$CBV?$basic_string@DU?$char_traits@D@std@@V?$allocator@D@2@@std@@H@std@@@2@@stdext@@A
0x11241654:?m_mapErrorText@Precacher@@2V?$hash_map@JV?$basic_string@_WU?$char_traits@_W@std@@V?$allocator@_W@2@@std@@V?$hash_compare@JU?$less@J@std@@@stdext@@V?$allocator@U?$pair@$$CBJV?$basic_string@_WU?$char_traits@_W@std@@V?$allocator@_W@2@@std@@@std@@@2@@stdext@@A
0x112415dc:?m_mapMaterialTMPs@Precacher@@2V?$hash_map@V?$basic_string@DU?$char_traits@D@std@@V?$allocator@D@2@@std@@PAVMaterial@@V?$hash_compare@V?$basic_string@DU?$char_traits@D@std@@V?$allocator@D@2@@std@@U?$less@V?$basic_string@DU?$char_traits@D@std@@V?$allocator@D@2@@std@@@2@@stdext@@V?$allocator@U?$pair@$$CBV?$basic_string@DU?$char_traits@D@std@@V?$allocator@D@2@@std@@PAVMaterial@@@std@@@2@@stdext@@A
0x1124153c:?m_mapModelTMPs@Precacher@@2V?$hash_map@V?$basic_string@DU?$char_traits@D@std@@V?$allocator@D@2@@std@@PAVModel@@V?$hash_compare@V?$basic_string@DU?$char_traits@D@std@@V?$allocator@D@2@@std@@U?$less@V?$basic_string@DU?$char_traits@D@std@@V?$allocator@D@2@@std@@@2@@stdext@@V?$allocator@U?$pair@$$CBV?$basic_string@DU?$char_traits@D@std@@V?$allocator@D@2@@std@@PAVModel@@@std@@@2@@stdext@@A
0x112415b4:?m_mapSound2DTMPs@Precacher@@2V?$hash_map@V?$basic_string@DU?$char_traits@D@std@@V?$allocator@D@2@@std@@PAVSound@@V?$hash_compare@V?$basic_string@DU?$char_traits@D@std@@V?$allocator@D@2@@std@@U?$less@V?$basic_string@DU?$char_traits@D@std@@V?$allocator@D@2@@std@@@2@@stdext@@V?$allocator@U?$pair@$$CBV?$basic_string@DU?$char_traits@D@std@@V?$allocator@D@2@@std@@PAVSound@@@std@@@2@@stdext@@A
0x1124158c:?m_mapSoundTMPs@Precacher@@2V?$hash_map@V?$basic_string@DU?$char_traits@D@std@@V?$allocator@D@2@@std@@PAVSound@@V?$hash_compare@V?$basic_string@DU?$char_traits@D@std@@V?$allocator@D@2@@std@@U?$less@V?$basic_string@DU?$char_traits@D@std@@V?$allocator@D@2@@std@@@2@@stdext@@V?$allocator@U?$pair@$$CBV?$basic_string@DU?$char_traits@D@std@@V?$allocator@D@2@@std@@PAVSound@@@std@@@2@@stdext@@A
0x1124162c:?m_mapText@Precacher@@2V?$hash_map@V?$basic_string@_WU?$char_traits@_W@std@@V?$allocator@_W@2@@std@@V12@V?$hash_compare@V?$basic_string@_WU?$char_traits@_W@std@@V?$allocator@_W@2@@std@@U?$less@V?$basic_string@_WU?$char_traits@_W@std@@V?$allocator@_W@2@@std@@@2@@stdext@@V?$allocator@U?$pair@$$CBV?$basic_string@_WU?$char_traits@_W@std@@V?$allocator@_W@2@@std@@V12@@std@@@2@@stdext@@A
0x11241514:?m_mapTextureTMPs@Precacher@@2V?$hash_map@V?$basic_string@DU?$char_traits@D@std@@V?$allocator@D@2@@std@@PAVTexture@@V?$hash_compare@V?$basic_string@DU?$char_traits@D@std@@V?$allocator@D@2@@std@@U?$less@V?$basic_string@DU?$char_traits@D@std@@V?$allocator@D@2@@std@@@2@@stdext@@V?$allocator@U?$pair@$$CBV?$basic_string@DU?$char_traits@D@std@@V?$allocator@D@2@@std@@PAVTexture@@@std@@@2@@stdext@@A
0x102879e8:?m_pInstance@CVideoManager@@0PAV1@A
0x11248ad0:?m_pmodelStaticModel@TextureCamera@@1PAVModel@@A
0x11248ad4:?m_sClassName@TextureCamera@@1V?$basic_string@DU?$char_traits@D@std@@V?$allocator@D@2@@std@@A
0x11240db0:?m_staticAnimations@AnimationSet@@1V?$hash_map@V?$basic_string@DU?$char_traits@D@std@@V?$allocator@D@2@@std@@V?$list@PAVAnimationSet@@V?$allocator@PAVAnimationSet@@@std@@@2@V?$hash_compare@V?$basic_string@DU?$char_traits@D@std@@V?$allocator@D@2@@std@@U?$less@V?$basic_string@DU?$char_traits@D@std@@V?$allocator@D@2@@std@@@2@@stdext@@V?$allocator@U?$pair@$$CBV?$basic_string@DU?$char_traits@D@std@@V?$allocator@D@2@@std@@V?$list@PAVAnimationSet@@V?$allocator@PAVAnimationSet@@@std@@@2@@std@@@2@@stdext@@A
0x112414b0:?m_vecActorGroups@Precacher@@2V?$vector@V?$basic_string@DU?$char_traits@D@std@@V?$allocator@D@2@@std@@V?$allocator@V?$basic_string@DU?$char_traits@D@std@@V?$allocator@D@2@@std@@@2@@std@@A
0x112414a0:?m_vecMaterials@Precacher@@2V?$vector@V?$basic_string@DU?$char_traits@D@std@@V?$allocator@D@2@@std@@V?$allocator@V?$basic_string@DU?$char_traits@D@std@@V?$allocator@D@2@@std@@@2@@std@@A
0x11241470:?m_vecModels@Precacher@@2V?$vector@UPreModelInfo@Precacher@@V?$allocator@UPreModelInfo@Precacher@@@std@@@std@@A
0x11241490:?m_vecSounds2D@Precacher@@2V?$vector@V?$basic_string@DU?$char_traits@D@std@@V?$allocator@D@2@@std@@V?$allocator@V?$basic_string@DU?$char_traits@D@std@@V?$allocator@D@2@@std@@@2@@std@@A
0x11241480:?m_vecSounds@Precacher@@2V?$vector@V?$basic_string@DU?$char_traits@D@std@@V?$allocator@D@2@@std@@V?$allocator@V?$basic_string@DU?$char_traits@D@std@@V?$allocator@D@2@@std@@@2@@std@@A
0x11241460:?m_vecTextures@Precacher@@2V?$vector@V?$basic_string@DU?$char_traits@D@std@@V?$allocator@D@2@@std@@V?$allocator@V?$basic_string@DU?$char_traits@D@std@@V?$allocator@D@2@@std@@@2@@std@@A
0x1001c6e0:?max_size@?$vector@PAUModelFrame@@V?$allocator@PAUModelFrame@@@std@@@std@@QBEIXZ
0x1001c6e0:?max_size@?$vector@PAVActor@@V?$allocator@PAVActor@@@std@@@std@@QBEIXZ
0x1001c6e0:?max_size@?$vector@PAVEditorVar@@V?$allocator@PAVEditorVar@@@std@@@std@@QBEIXZ
0x1001c6e0:?max_size@?$vector@PAVMaterial@@V?$allocator@PAVMaterial@@@std@@@std@@QBEIXZ
0x1001c6e0:?max_size@?$vector@PAVMatrix@@V?$allocator@PAVMatrix@@@std@@@std@@QBEIXZ
0x1001c6e0:?max_size@?$vector@PAVModel@@V?$allocator@PAVModel@@@std@@@std@@QBEIXZ
0x1001c6f0:?max_size@?$vector@UAttributeRange@@V?$allocator@UAttributeRange@@@std@@@std@@QBEIXZ
0x1001c700:?max_size@?$vector@UVFormat@VertexManager@@V?$allocator@UVFormat@VertexManager@@@std@@@std@@QBEIXZ
0x1001c700:?max_size@?$vector@VBBox@@V?$allocator@VBBox@@@std@@@std@@QBEIXZ
0x1000b940:?max_size@?$vector@VEditorVar@@V?$allocator@VEditorVar@@@std@@@std@@QBEIXZ
0x11241aa8:?ms_Instance@WaterManager@@2PAV1@A
0x11241a28:?mySkySettings@SkyController@@2PAVSkySettings@@A
0x101478f0:?onContactNotify@NxPhysicsContactReport@@UAEXAAVNxContactPair@@I@Z
0x10147770:?onControllerHit@OutpopControllerHitReport@@UAE?AW4NxControllerAction@@ABUNxControllersHit@@@Z
0x101484b0:?onHit@OutpopRaycastReport@@UAE_NABUNxRaycastHit@@@Z
0x101482d0:?onHit@OutpopRaycastReportIgnore@@UAE_NABUNxRaycastHit@@@Z
0x10147700:?onShapeHit@OutpopControllerHitReport@@UAE?AW4NxControllerAction@@ABUNxControllerShapeHit@@@Z
0x101477b0:?onTrigger@PhysicsTriggerReport@@UAEXAAVNxShape@@0W4NxShapeFlag@@@Z
0x1001e990:?pop_back@?$vector@PAUModelFrame@@V?$allocator@PAUModelFrame@@@std@@@std@@QAEXXZ
0x1001e990:?pop_back@?$vector@PAVActor@@V?$allocator@PAVActor@@@std@@@std@@QAEXXZ
0x1001e990:?pop_back@?$vector@PAVEditorVar@@V?$allocator@PAVEditorVar@@@std@@@std@@QAEXXZ
0x1001e990:?pop_back@?$vector@PAVMaterial@@V?$allocator@PAVMaterial@@@std@@@std@@QAEXXZ
0x1001e990:?pop_back@?$vector@PAVMatrix@@V?$allocator@PAVMatrix@@@std@@@std@@QAEXXZ
0x1001e990:?pop_back@?$vector@PAVModel@@V?$allocator@PAVModel@@@std@@@std@@QAEXXZ
0x100224e0:?pop_back@?$vector@UAttributeRange@@V?$allocator@UAttributeRange@@@std@@@std@@QAEXXZ
0x10026480:?pop_back@?$vector@UVFormat@VertexManager@@V?$allocator@UVFormat@VertexManager@@@std@@@std@@QAEXXZ
0x10021690:?pop_back@?$vector@VBBox@@V?$allocator@VBBox@@@std@@@std@@QAEXXZ
0x10025a60:?pop_back@?$vector@VEditorVar@@V?$allocator@VEditorVar@@@std@@@std@@QAEXXZ
0x1002eac0:?push_back@?$vector@PAUModelFrame@@V?$allocator@PAUModelFrame@@@std@@@std@@QAEXABQAUModelFrame@@@Z
0x10012a30:?push_back@?$vector@PAVActor@@V?$allocator@PAVActor@@@std@@@std@@QAEXABQAVActor@@@Z
0x1002ec70:?push_back@?$vector@PAVEditorVar@@V?$allocator@PAVEditorVar@@@std@@@std@@QAEXABQAVEditorVar@@@Z
0x10012aa0:?push_back@?$vector@PAVMaterial@@V?$allocator@PAVMaterial@@@std@@@std@@QAEXABQAVMaterial@@@Z
0x1002ebe0:?push_back@?$vector@PAVMatrix@@V?$allocator@PAVMatrix@@@std@@@std@@QAEXABQAVMatrix@@@Z
0x1002eb50:?push_back@?$vector@PAVModel@@V?$allocator@PAVModel@@@std@@@std@@QAEXABQAVModel@@@Z
0x1002bf00:?push_back@?$vector@UAttributeRange@@V?$allocator@UAttributeRange@@@std@@@std@@QAEXABUAttributeRange@@@Z
0x1002efb0:?push_back@?$vector@UVFormat@VertexManager@@V?$allocator@UVFormat@VertexManager@@@std@@@std@@QAEXABUVFormat@VertexManager@@@Z
0x1002ed40:?push_back@?$vector@VBBox@@V?$allocator@VBBox@@@std@@@std@@QAEXABVBBox@@@Z
0x10012c20:?push_back@?$vector@VEditorVar@@V?$allocator@VEditorVar@@@std@@@std@@QAEXABVEditorVar@@@Z
0x1001d1a0:?rbegin@?$vector@PAUModelFrame@@V?$allocator@PAUModelFrame@@@std@@@std@@QAE?AV?$reverse_iterator@V?$_Vector_iterator@PAUModelFrame@@V?$allocator@PAUModelFrame@@@std@@@std@@@2@XZ
0x1001d1a0:?rbegin@?$vector@PAUModelFrame@@V?$allocator@PAUModelFrame@@@std@@@std@@QBE?AV?$reverse_iterator@V?$_Vector_const_iterator@PAUModelFrame@@V?$allocator@PAUModelFrame@@@std@@@std@@@2@XZ
0x1001d1a0:?rbegin@?$vector@PAVActor@@V?$allocator@PAVActor@@@std@@@std@@QAE?AV?$reverse_iterator@V?$_Vector_iterator@PAVActor@@V?$allocator@PAVActor@@@std@@@std@@@2@XZ
0x1001d1a0:?rbegin@?$vector@PAVActor@@V?$allocator@PAVActor@@@std@@@std@@QBE?AV?$reverse_iterator@V?$_Vector_const_iterator@PAVActor@@V?$allocator@PAVActor@@@std@@@std@@@2@XZ
0x1001d1a0:?rbegin@?$vector@PAVEditorVar@@V?$allocator@PAVEditorVar@@@std@@@std@@QAE?AV?$reverse_iterator@V?$_Vector_iterator@PAVEditorVar@@V?$allocator@PAVEditorVar@@@std@@@std@@@2@XZ
0x1001d1a0:?rbegin@?$vector@PAVEditorVar@@V?$allocator@PAVEditorVar@@@std@@@std@@QBE?AV?$reverse_iterator@V?$_Vector_const_iterator@PAVEditorVar@@V?$allocator@PAVEditorVar@@@std@@@std@@@2@XZ
0x1001d1a0:?rbegin@?$vector@PAVMaterial@@V?$allocator@PAVMaterial@@@std@@@std@@QAE?AV?$reverse_iterator@V?$_Vector_iterator@PAVMaterial@@V?$allocator@PAVMaterial@@@std@@@std@@@2@XZ
0x1001d1a0:?rbegin@?$vector@PAVMaterial@@V?$allocator@PAVMaterial@@@std@@@std@@QBE?AV?$reverse_iterator@V?$_Vector_const_iterator@PAVMaterial@@V?$allocator@PAVMaterial@@@std@@@std@@@2@XZ
0x1001d1a0:?rbegin@?$vector@PAVMatrix@@V?$allocator@PAVMatrix@@@std@@@std@@QAE?AV?$reverse_iterator@V?$_Vector_iterator@PAVMatrix@@V?$allocator@PAVMatrix@@@std@@@std@@@2@XZ
0x1001d1a0:?rbegin@?$vector@PAVMatrix@@V?$allocator@PAVMatrix@@@std@@@std@@QBE?AV?$reverse_iterator@V?$_Vector_const_iterator@PAVMatrix@@V?$allocator@PAVMatrix@@@std@@@std@@@2@XZ
0x1001d1a0:?rbegin@?$vector@PAVModel@@V?$allocator@PAVModel@@@std@@@std@@QAE?AV?$reverse_iterator@V?$_Vector_iterator@PAVModel@@V?$allocator@PAVModel@@@std@@@std@@@2@XZ
0x1001d1a0:?rbegin@?$vector@PAVModel@@V?$allocator@PAVModel@@@std@@@std@@QBE?AV?$reverse_iterator@V?$_Vector_const_iterator@PAVModel@@V?$allocator@PAVModel@@@std@@@std@@@2@XZ
0x1001d1a0:?rbegin@?$vector@UAttributeRange@@V?$allocator@UAttributeRange@@@std@@@std@@QAE?AV?$reverse_iterator@V?$_Vector_iterator@UAttributeRange@@V?$allocator@UAttributeRange@@@std@@@std@@@2@XZ
0x1001d1a0:?rbegin@?$vector@UAttributeRange@@V?$allocator@UAttributeRange@@@std@@@std@@QBE?AV?$reverse_iterator@V?$_Vector_const_iterator@UAttributeRange@@V?$allocator@UAttributeRange@@@std@@@std@@@2@XZ
0x1001d1a0:?rbegin@?$vector@UVFormat@VertexManager@@V?$allocator@UVFormat@VertexManager@@@std@@@std@@QAE?AV?$reverse_iterator@V?$_Vector_iterator@UVFormat@VertexManager@@V?$allocator@UVFormat@VertexManager@@@std@@@std@@@2@XZ
0x1001d1a0:?rbegin@?$vector@UVFormat@VertexManager@@V?$allocator@UVFormat@VertexManager@@@std@@@std@@QBE?AV?$reverse_iterator@V?$_Vector_const_iterator@UVFormat@VertexManager@@V?$allocator@UVFormat@VertexManager@@@std@@@std@@@2@XZ
0x1001d1a0:?rbegin@?$vector@VBBox@@V?$allocator@VBBox@@@std@@@std@@QAE?AV?$reverse_iterator@V?$_Vector_iterator@VBBox@@V?$allocator@VBBox@@@std@@@std@@@2@XZ
0x1001d1a0:?rbegin@?$vector@VBBox@@V?$allocator@VBBox@@@std@@@std@@QBE?AV?$reverse_iterator@V?$_Vector_const_iterator@VBBox@@V?$allocator@VBBox@@@std@@@std@@@2@XZ
0x1001d1a0:?rbegin@?$vector@VEditorVar@@V?$allocator@VEditorVar@@@std@@@std@@QAE?AV?$reverse_iterator@V?$_Vector_iterator@VEditorVar@@V?$allocator@VEditorVar@@@std@@@std@@@2@XZ
0x1001d1a0:?rbegin@?$vector@VEditorVar@@V?$allocator@VEditorVar@@@std@@@std@@QBE?AV?$reverse_iterator@V?$_Vector_const_iterator@VEditorVar@@V?$allocator@VEditorVar@@@std@@@std@@@2@XZ
0x1001ea00:?rend@?$vector@PAUModelFrame@@V?$allocator@PAUModelFrame@@@std@@@std@@QAE?AV?$reverse_iterator@V?$_Vector_iterator@PAUModelFrame@@V?$allocator@PAUModelFrame@@@std@@@std@@@2@XZ
0x1001ea00:?rend@?$vector@PAUModelFrame@@V?$allocator@PAUModelFrame@@@std@@@std@@QBE?AV?$reverse_iterator@V?$_Vector_const_iterator@PAUModelFrame@@V?$allocator@PAUModelFrame@@@std@@@std@@@2@XZ
0x1001ea00:?rend@?$vector@PAVActor@@V?$allocator@PAVActor@@@std@@@std@@QAE?AV?$reverse_iterator@V?$_Vector_iterator@PAVActor@@V?$allocator@PAVActor@@@std@@@std@@@2@XZ
0x1001ea00:?rend@?$vector@PAVActor@@V?$allocator@PAVActor@@@std@@@std@@QBE?AV?$reverse_iterator@V?$_Vector_const_iterator@PAVActor@@V?$allocator@PAVActor@@@std@@@std@@@2@XZ
0x1001ea00:?rend@?$vector@PAVEditorVar@@V?$allocator@PAVEditorVar@@@std@@@std@@QAE?AV?$reverse_iterator@V?$_Vector_iterator@PAVEditorVar@@V?$allocator@PAVEditorVar@@@std@@@std@@@2@XZ
0x1001ea00:?rend@?$vector@PAVEditorVar@@V?$allocator@PAVEditorVar@@@std@@@std@@QBE?AV?$reverse_iterator@V?$_Vector_const_iterator@PAVEditorVar@@V?$allocator@PAVEditorVar@@@std@@@std@@@2@XZ
0x1001ea00:?rend@?$vector@PAVMaterial@@V?$allocator@PAVMaterial@@@std@@@std@@QAE?AV?$reverse_iterator@V?$_Vector_iterator@PAVMaterial@@V?$allocator@PAVMaterial@@@std@@@std@@@2@XZ
0x1001ea00:?rend@?$vector@PAVMaterial@@V?$allocator@PAVMaterial@@@std@@@std@@QBE?AV?$reverse_iterator@V?$_Vector_const_iterator@PAVMaterial@@V?$allocator@PAVMaterial@@@std@@@std@@@2@XZ
0x1001ea00:?rend@?$vector@PAVMatrix@@V?$allocator@PAVMatrix@@@std@@@std@@QAE?AV?$reverse_iterator@V?$_Vector_iterator@PAVMatrix@@V?$allocator@PAVMatrix@@@std@@@std@@@2@XZ
0x1001ea00:?rend@?$vector@PAVMatrix@@V?$allocator@PAVMatrix@@@std@@@std@@QBE?AV?$reverse_iterator@V?$_Vector_const_iterator@PAVMatrix@@V?$allocator@PAVMatrix@@@std@@@std@@@2@XZ
0x1001ea00:?rend@?$vector@PAVModel@@V?$allocator@PAVModel@@@std@@@std@@QAE?AV?$reverse_iterator@V?$_Vector_iterator@PAVModel@@V?$allocator@PAVModel@@@std@@@std@@@2@XZ
0x1001ea00:?rend@?$vector@PAVModel@@V?$allocator@PAVModel@@@std@@@std@@QBE?AV?$reverse_iterator@V?$_Vector_const_iterator@PAVModel@@V?$allocator@PAVModel@@@std@@@std@@@2@XZ
0x1001ea00:?rend@?$vector@UAttributeRange@@V?$allocator@UAttributeRange@@@std@@@std@@QAE?AV?$reverse_iterator@V?$_Vector_iterator@UAttributeRange@@V?$allocator@UAttributeRange@@@std@@@std@@@2@XZ
0x1001ea00:?rend@?$vector@UAttributeRange@@V?$allocator@UAttributeRange@@@std@@@std@@QBE?AV?$reverse_iterator@V?$_Vector_const_iterator@UAttributeRange@@V?$allocator@UAttributeRange@@@std@@@std@@@2@XZ
0x1001ea00:?rend@?$vector@UVFormat@VertexManager@@V?$allocator@UVFormat@VertexManager@@@std@@@std@@QAE?AV?$reverse_iterator@V?$_Vector_iterator@UVFormat@VertexManager@@V?$allocator@UVFormat@VertexManager@@@std@@@std@@@2@XZ
0x1001ea00:?rend@?$vector@UVFormat@VertexManager@@V?$allocator@UVFormat@VertexManager@@@std@@@std@@QBE?AV?$reverse_iterator@V?$_Vector_const_iterator@UVFormat@VertexManager@@V?$allocator@UVFormat@VertexManager@@@std@@@std@@@2@XZ
0x1001ea00:?rend@?$vector@VBBox@@V?$allocator@VBBox@@@std@@@std@@QAE?AV?$reverse_iterator@V?$_Vector_iterator@VBBox@@V?$allocator@VBBox@@@std@@@std@@@2@XZ
0x1001ea00:?rend@?$vector@VBBox@@V?$allocator@VBBox@@@std@@@std@@QBE?AV?$reverse_iterator@V?$_Vector_const_iterator@VBBox@@V?$allocator@VBBox@@@std@@@std@@@2@XZ
0x1001ea00:?rend@?$vector@VEditorVar@@V?$allocator@VEditorVar@@@std@@@std@@QAE?AV?$reverse_iterator@V?$_Vector_iterator@VEditorVar@@V?$allocator@VEditorVar@@@std@@@std@@@2@XZ
0x1001ea00:?rend@?$vector@VEditorVar@@V?$allocator@VEditorVar@@@std@@@std@@QBE?AV?$reverse_iterator@V?$_Vector_const_iterator@VEditorVar@@V?$allocator@VEditorVar@@@std@@@std@@@2@XZ
0x10021010:?reserve@?$vector@PAUModelFrame@@V?$allocator@PAUModelFrame@@@std@@@std@@QAEXI@Z
0x1001fe20:?reserve@?$vector@PAVActor@@V?$allocator@PAVActor@@@std@@@std@@QAEXI@Z
0x10021430:?reserve@?$vector@PAVEditorVar@@V?$allocator@PAVEditorVar@@@std@@@std@@QAEXI@Z
0x100214e0:?reserve@?$vector@PAVMaterial@@V?$allocator@PAVMaterial@@@std@@@std@@QAEXI@Z
0x100212e0:?reserve@?$vector@PAVMatrix@@V?$allocator@PAVMatrix@@@std@@@std@@QAEXI@Z
0x10021160:?reserve@?$vector@PAVModel@@V?$allocator@PAVModel@@@std@@@std@@QAEXI@Z
0x100223c0:?reserve@?$vector@UAttributeRange@@V?$allocator@UAttributeRange@@@std@@@std@@QAEXI@Z
0x10026350:?reserve@?$vector@UVFormat@VertexManager@@V?$allocator@UVFormat@VertexManager@@@std@@@std@@QAEXI@Z
0x10025310:?reserve@?$vector@VBBox@@V?$allocator@VBBox@@@std@@@std@@QAEXI@Z
0x10025920:?reserve@?$vector@VEditorVar@@V?$allocator@VEditorVar@@@std@@@std@@QAEXI@Z
0x1002eab0:?resize@?$vector@PAUModelFrame@@V?$allocator@PAUModelFrame@@@std@@@std@@QAEXI@Z
0x1002ac80:?resize@?$vector@PAUModelFrame@@V?$allocator@PAUModelFrame@@@std@@@std@@QAEXIPAUModelFrame@@@Z
0x1002ea90:?resize@?$vector@PAVActor@@V?$allocator@PAVActor@@@std@@@std@@QAEXI@Z
0x1002aac0:?resize@?$vector@PAVActor@@V?$allocator@PAVActor@@@std@@@std@@QAEXIPAVActor@@@Z
0x1002ec60:?resize@?$vector@PAVEditorVar@@V?$allocator@PAVEditorVar@@@std@@@std@@QAEXI@Z
0x1002b370:?resize@?$vector@PAVEditorVar@@V?$allocator@PAVEditorVar@@@std@@@std@@QAEXIPAVEditorVar@@@Z
0x1002ecf0:?resize@?$vector@PAVMaterial@@V?$allocator@PAVMaterial@@@std@@@std@@QAEXI@Z
0x1002b5c0:?resize@?$vector@PAVMaterial@@V?$allocator@PAVMaterial@@@std@@@std@@QAEXIPAVMaterial@@@Z
0x1002ebd0:?resize@?$vector@PAVMatrix@@V?$allocator@PAVMatrix@@@std@@@std@@QAEXI@Z
0x1002b120:?resize@?$vector@PAVMatrix@@V?$allocator@PAVMatrix@@@std@@@std@@QAEXIPAVMatrix@@@Z
0x1002eb40:?resize@?$vector@PAVModel@@V?$allocator@PAVModel@@@std@@@std@@QAEXI@Z
0x1002aed0:?resize@?$vector@PAVModel@@V?$allocator@PAVModel@@@std@@@std@@QAEXIPAVModel@@@Z
0x1002bed0:?resize@?$vector@UAttributeRange@@V?$allocator@UAttributeRange@@@std@@@std@@QAEXI@Z
0x10025f50:?resize@?$vector@UAttributeRange@@V?$allocator@UAttributeRange@@@std@@@std@@QAEXIUAttributeRange@@@Z
0x1002ef80:?resize@?$vector@UVFormat@VertexManager@@V?$allocator@UVFormat@VertexManager@@@std@@@std@@QAEXI@Z
0x1002c1f0:?resize@?$vector@UVFormat@VertexManager@@V?$allocator@UVFormat@VertexManager@@@std@@@std@@QAEXIUVFormat@VertexManager@@@Z
0x1002ed10:?resize@?$vector@VBBox@@V?$allocator@VBBox@@@std@@@std@@QAEXI@Z
0x1002b7b0:?resize@?$vector@VBBox@@V?$allocator@VBBox@@@std@@@std@@QAEXIVBBox@@@Z
0x10012bf0:?resize@?$vector@VEditorVar@@V?$allocator@VEditorVar@@@std@@@std@@QAEXI@Z
0x10011a10:?resize@?$vector@VEditorVar@@V?$allocator@VEditorVar@@@std@@@std@@QAEXIVEditorVar@@@Z
0x1123e250:?s_CandList@CMLIMEEditBox@@1UCCandList@1@A
0x1123f698:?s_CandList@CREIMEEditBox@@1UCCandList@1@A
0x1123e20c:?s_CompString@CMLIMEEditBox@@1VCUniBuffer@CREEditBox@@A
0x1123e228:?s_CompString@CREIMEEditBox@@1VCUniBuffer@CREEditBox@@A
0x10280500:?s_CoordSystem@OBJLoad@@2W4CoordSystem@1@A
0x102804f8:?s_CoordSystem@OBJSave@@2W4CoordSystem@1@A
0x1123e1fc:?s_ImeState@CMLIMEEditBox@@1W4IMESTATE@1@A
0x1123e1ec:?s_ImeState@CREIMEEditBox@@1W4IMESTATE@1@A
0x11240d8c:?s_InstancedMeshes@Mesh@@2V?$vector@PAVMesh@@V?$allocator@PAVMesh@@@std@@@std@@A
0x1123e240:?s_Locale@CMLIMEEditBox@@1V?$CGrowableArray@UCInputLocale@CMLIMEEditBox@@@@A
0x1123e200:?s_Locale@CREIMEEditBox@@1V?$CGrowableArray@UCInputLocale@CREIMEEditBox@@@@A
0x10280504:?s_Scale@OBJLoad@@2MA
0x102804fc:?s_Scale@OBJSave@@2MA
0x102805b8:?s_Scale@XFileLoad@@2MA
0x10283f34:?s_StripHierarchy@XFileLoad@@2_NA
0x10282ab7:?s_UseSkinning@Serializer@@2_NA
0x1123dba0:?s_abCompStringAttr@CMLIMEEditBox@@1PAEA
0x1123e0c8:?s_abCompStringAttr@CREIMEEditBox@@1PAEA
0x1123d740:?s_adwCompStringClause@CMLIMEEditBox@@1PAKA
0x1123dca0:?s_adwCompStringClause@CREIMEEditBox@@1PAKA
0x10281664:?s_aszIndicator@CMLIMEEditBox@@1PAY02_WA
0x102815dc:?s_aszIndicator@CREIMEEditBox@@1PAY02_WA
0x1123e0c1:?s_bChineseIME@CMLIMEEditBox@@1_NA
0x1123e0c3:?s_bChineseIME@CREIMEEditBox@@1_NA
0x1123d6fe:?s_bEnableImeSystem@CMLIMEEditBox@@1_NA
0x1123db9d:?s_bEnableImeSystem@CREIMEEditBox@@1_NA
0x1123d6fd:?s_bHideCaret@CREEditBox@@1_NA
0x1123e0c0:?s_bHorizontalReading@CMLIMEEditBox@@1_NA
0x1123d6fc:?s_bHorizontalReading@CREIMEEditBox@@1_NA
0x1123db9e:?s_bInsertOnType@CMLIMEEditBox@@1_NA
0x1123e1c8:?s_bInsertOnType@CREIMEEditBox@@1_NA
0x1123d6ff:?s_bShowReadingWindow@CMLIMEEditBox@@1_NA
0x1123db9c:?s_bShowReadingWindow@CREIMEEditBox@@1_NA
0x1123e0c2:?s_bVerticalCand@CMLIMEEditBox@@1_NA
0x1123db9f:?s_bVerticalCand@CREIMEEditBox@@1_NA
0x1123e1d8:?s_fTimeRefresh@@3NA
0x1123e1e8:?s_hDll@CUniBuffer@CREEditBox@@0PAUHINSTANCE__@@A
0x1123e0a8:?s_hDllIme@CMLIMEEditBox@@1PAUHINSTANCE__@@A
0x1123db40:?s_hDllIme@CREIMEEditBox@@1PAUHINSTANCE__@@A
0x1123d6f8:?s_hDllImm32@CMLIMEEditBox@@0PAUHINSTANCE__@@A
0x1123e0b4:?s_hDllImm32@CREIMEEditBox@@0PAUHINSTANCE__@@A
0x1123e0b8:?s_hDllVer@CMLIMEEditBox@@0PAUHINSTANCE__@@A
0x1123e1cc:?s_hDllVer@CREIMEEditBox@@0PAUHINSTANCE__@@A
0x1123e0b0:?s_hImcDef@CMLIMEEditBox@@0PAUHIMC__@@A
0x1123db44:?s_hImcDef@CREIMEEditBox@@0PAUHIMC__@@A
0x1123db98:?s_hklCurrent@CMLIMEEditBox@@1PAUHKL__@@A
0x1123e0bc:?s_hklCurrent@CREIMEEditBox@@1PAUHKL__@@A
0x1123e0c4:?s_nCompCaret@CMLIMEEditBox@@1HA
0x1123db4c:?s_nCompCaret@CREIMEEditBox@@1HA
0x1123db48:?s_nFirstTargetConv@CMLIMEEditBox@@1HA
0x1123e0ac:?s_nFirstTargetConv@CREIMEEditBox@@1HA
0x1123e1d4:?s_pControlFocus@CREDialog@@1PAVCREControl@@A
0x1123e1e4:?s_pControlLast@CREDialog@@1PAVCREControl@@A
0x1123e1e0:?s_pControlPressed@CREDialog@@1PAVCREControl@@A
0x11248b30:?s_pInstance@AsyncLoader@@1PAV1@A
0x11248b20:?s_pInstance@EventAttemper@@1PAV1@A
0x1123db90:?s_ptCompString@CMLIMEEditBox@@1UtagPOINT@@A
0x1123e0a0:?s_ptCompString@CREIMEEditBox@@1UtagPOINT@@A
0x11242a28:?s_pwCompleteIndex@TerrainNode@@2PAGA
0x11242a2c:?s_pwReduceIndex@TerrainNode@@2PAGA
0x11242a30:?s_vecTerrain@Terrain@@2V?$vector@PAVTerrain@@V?$allocator@PAVTerrain@@@std@@@std@@A
0x10281684:?s_wszCurrIndicator@CMLIMEEditBox@@1PA_WA
0x102815fc:?s_wszCurrIndicator@CREIMEEditBox@@1PA_WA
0x1123db50:?s_wszReadingString@CMLIMEEditBox@@1PA_WA
0x1123d700:?s_wszReadingString@CREIMEEditBox@@1PA_WA
0x100a7810:?setBackGround@C3DModel@@QAEXABV?$basic_string@DU?$char_traits@D@std@@V?$allocator@D@2@@std@@@Z
0x100c97b0:?setCellPic@CREListCtrl@@QAE_NHHABV?$basic_string@DU?$char_traits@D@std@@V?$allocator@D@2@@std@@PAUtagRECT@@@Z
0x100b1f60:?setCheckPic@CPicCheckBox@@QAEXABV?$basic_string@DU?$char_traits@D@std@@V?$allocator@D@2@@std@@PAUtagRECT@@@Z
0x100a7590:?setGridPic@CREListCtrl@@QAEXABV?$basic_string@DU?$char_traits@D@std@@V?$allocator@D@2@@std@@PAUtagRECT@@@Z
0x100a74b0:?setHeadPic@CREListCtrl@@QAEXABV?$basic_string@DU?$char_traits@D@std@@V?$allocator@D@2@@std@@@Z
0x100a77b0:?setModelLocation@C3DModel@@QAEXHH@Z
0x100a77d0:?setModelSize@C3DModel@@QAEXHH@Z
0x100b1e40:?setMouseOverPic@CPicCheckBox@@QAEXABV?$basic_string@DU?$char_traits@D@std@@V?$allocator@D@2@@std@@PAUtagRECT@@@Z
0x100a76a0:?setMouseOverPic@CREListCtrl@@QAEXABV?$basic_string@DU?$char_traits@D@std@@V?$allocator@D@2@@std@@@Z
0x100b1d20:?setOriginPic@CPicCheckBox@@QAEXABV?$basic_string@DU?$char_traits@D@std@@V?$allocator@D@2@@std@@PAUtagRECT@@@Z
0x100a73c0:?setPicSize@CPicCheckBox@@QAEXHH@Z
0x100ae180:?setScrollBarSize@CMultiLineEB@@QAEXHH@Z
0x100af2b0:?setScrollBarSize@CMultiLineStatic@@QAEXHH@Z
0x1006b580:?setWorld@C3DModel@@QAEXPAVWorld@@@Z
0x100a7800:?setWorldName@C3DModel@@QAEXABV?$basic_string@DU?$char_traits@D@std@@V?$allocator@D@2@@std@@@Z
0x10076ef0:?size@?$vector@PAUModelFrame@@V?$allocator@PAUModelFrame@@@std@@@std@@QBEIXZ
0x10076ef0:?size@?$vector@PAVActor@@V?$allocator@PAVActor@@@std@@@std@@QBEIXZ
0x10076ef0:?size@?$vector@PAVEditorVar@@V?$allocator@PAVEditorVar@@@std@@@std@@QBEIXZ
0x10076ef0:?size@?$vector@PAVMaterial@@V?$allocator@PAVMaterial@@@std@@@std@@QBEIXZ
0x10076ef0:?size@?$vector@PAVMatrix@@V?$allocator@PAVMatrix@@@std@@@std@@QBEIXZ
0x10076ef0:?size@?$vector@PAVModel@@V?$allocator@PAVModel@@@std@@@std@@QBEIXZ
0x100a1af0:?size@?$vector@UAttributeRange@@V?$allocator@UAttributeRange@@@std@@@std@@QBEIXZ
0x101190c0:?size@?$vector@UVFormat@VertexManager@@V?$allocator@UVFormat@VertexManager@@@std@@@std@@QBEIXZ
0x101190c0:?size@?$vector@VBBox@@V?$allocator@VBBox@@@std@@@std@@QBEIXZ
0x1000a280:?size@?$vector@VEditorVar@@V?$allocator@VEditorVar@@@std@@@std@@QBEIXZ
0x10021210:?swap@?$vector@PAUModelFrame@@V?$allocator@PAUModelFrame@@@std@@@std@@QAEXAAV12@@Z
0x10021210:?swap@?$vector@PAVActor@@V?$allocator@PAVActor@@@std@@@std@@QAEXAAV12@@Z
0x10021210:?swap@?$vector@PAVEditorVar@@V?$allocator@PAVEditorVar@@@std@@@std@@QAEXAAV12@@Z
0x10021210:?swap@?$vector@PAVMaterial@@V?$allocator@PAVMaterial@@@std@@@std@@QAEXAAV12@@Z
0x10021210:?swap@?$vector@PAVMatrix@@V?$allocator@PAVMatrix@@@std@@@std@@QAEXAAV12@@Z
0x10021210:?swap@?$vector@PAVModel@@V?$allocator@PAVModel@@@std@@@std@@QAEXAAV12@@Z
0x10021210:?swap@?$vector@UAttributeRange@@V?$allocator@UAttributeRange@@@std@@@std@@QAEXAAV12@@Z
0x10021210:?swap@?$vector@UVFormat@VertexManager@@V?$allocator@UVFormat@VertexManager@@@std@@@std@@QAEXAAV12@@Z
0x10021210:?swap@?$vector@VBBox@@V?$allocator@VBBox@@@std@@@std@@QAEXAAV12@@Z
0x10021210:?swap@?$vector@VEditorVar@@V?$allocator@VEditorVar@@@std@@@std@@QAEXAAV12@@Z
0x100a7420:?updateAllRects@CMultiLineEB@@IAEXXZ
0x100a8eb0:?updateAllRects@CMultiLineStatic@@QAEXXZ
0x112417bc:?variables@ShaderVar@@2V?$vector@PAUShaderVar@@V?$allocator@PAUShaderVar@@@std@@@std@@A
0x102c7a50:?vertexIndicesBatches@FXManager@@2PAUVertexIndicesBatch@@A
0x10149480:?wtoa@@YAPBDPB_W@Z
0x1007ea40:GetValue
0x101a2c66:DllEntryPoint
